ARM GAS  C:\Users\Matty\AppData\Local\Temp\ccmyBE4w.s 			page 1


   1              		.cpu cortex-m0
   2              		.fpu softvfp
   3              		.eabi_attribute 20, 1
   4              		.eabi_attribute 21, 1
   5              		.eabi_attribute 23, 3
   6              		.eabi_attribute 24, 1
   7              		.eabi_attribute 25, 1
   8              		.eabi_attribute 26, 1
   9              		.eabi_attribute 30, 6
  10              		.eabi_attribute 34, 0
  11              		.eabi_attribute 18, 4
  12              		.code	16
  13              		.file	"cli.c"
  14              		.text
  15              	.Ltext0:
  16              		.cfi_sections	.debug_frame
  17              		.comm	switchFreq,4,4
  18              		.comm	power,1,1
  19              		.comm	status,1,1
  20              		.section	.text.sendString,"ax",%progbits
  21              		.align	2
  22              		.global	sendString
  23              		.code	16
  24              		.thumb_func
  25              		.type	sendString, %function
  26              	sendString:
  27              	.LFB34:
  28              		.file 1 ".\\cli.c"
   1:.\cli.c       **** /* ========================================
   2:.\cli.c       ****  *
   3:.\cli.c       ****  * Copyright YOUR COMPANY, THE YEAR
   4:.\cli.c       ****  * All Rights Reserved
   5:.\cli.c       ****  * UNPUBLISHED, LICENSED SOFTWARE.
   6:.\cli.c       ****  *
   7:.\cli.c       ****  * CONFIDENTIAL AND PROPRIETARY INFORMATION
   8:.\cli.c       ****  * WHICH IS THE PROPERTY OF your company.
   9:.\cli.c       ****  *
  10:.\cli.c       ****  * ========================================
  11:.\cli.c       **** */
  12:.\cli.c       **** #include <project.h>
  13:.\cli.c       **** #include <cli.h>
  14:.\cli.c       **** #include <stdbool.h>
  15:.\cli.c       **** #include <stdio.h>
  16:.\cli.c       **** #include <main.h>
  17:.\cli.c       **** 
  18:.\cli.c       **** /* void sendString(char* string)
  19:.\cli.c       ****  * @param:
  20:.\cli.c       ****  *     pointer to a array of char
  21:.\cli.c       ****  *
  22:.\cli.c       ****  * Writes the parsed string to the Tx USB conneciton
  23:.\cli.c       ****  */
  24:.\cli.c       **** void sendString(char* string) {
  29              		.loc 1 24 0
  30              		.cfi_startproc
  31 0000 80B5     		push	{r7, lr}
  32              		.cfi_def_cfa_offset 8
  33              		.cfi_offset 7, -8
ARM GAS  C:\Users\Matty\AppData\Local\Temp\ccmyBE4w.s 			page 2


  34              		.cfi_offset 14, -4
  35 0002 84B0     		sub	sp, sp, #16
  36              		.cfi_def_cfa_offset 24
  37 0004 00AF     		add	r7, sp, #0
  38              		.cfi_def_cfa_register 7
  39 0006 7860     		str	r0, [r7, #4]
  25:.\cli.c       ****     int i=0;
  40              		.loc 1 25 0
  41 0008 0023     		mov	r3, #0
  42 000a FB60     		str	r3, [r7, #12]
  26:.\cli.c       ****     while(string[i] != '\0') {
  43              		.loc 1 26 0
  44 000c 09E0     		b	.L2
  45              	.L3:
  27:.\cli.c       ****         UART_WriteTxData(string[i]);
  46              		.loc 1 27 0
  47 000e FB68     		ldr	r3, [r7, #12]
  48 0010 7A68     		ldr	r2, [r7, #4]
  49 0012 D318     		add	r3, r2, r3
  50 0014 1B78     		ldrb	r3, [r3]
  51 0016 181C     		mov	r0, r3
  52 0018 FFF7FEFF 		bl	UART_WriteTxData
  28:.\cli.c       ****         i++;
  53              		.loc 1 28 0
  54 001c FB68     		ldr	r3, [r7, #12]
  55 001e 0133     		add	r3, r3, #1
  56 0020 FB60     		str	r3, [r7, #12]
  57              	.L2:
  26:.\cli.c       ****     while(string[i] != '\0') {
  58              		.loc 1 26 0 discriminator 1
  59 0022 FB68     		ldr	r3, [r7, #12]
  60 0024 7A68     		ldr	r2, [r7, #4]
  61 0026 D318     		add	r3, r2, r3
  62 0028 1B78     		ldrb	r3, [r3]
  63 002a 002B     		cmp	r3, #0
  64 002c EFD1     		bne	.L3
  29:.\cli.c       ****     }
  30:.\cli.c       **** }
  65              		.loc 1 30 0
  66 002e BD46     		mov	sp, r7
  67 0030 04B0     		add	sp, sp, #16
  68              		@ sp needed
  69 0032 80BD     		pop	{r7, pc}
  70              		.cfi_endproc
  71              	.LFE34:
  72              		.size	sendString, .-sendString
  73              		.section	.rodata
  74              		.align	2
  75              	.LC1:
  76 0000 5475726E 		.ascii	"Turning switch OFF\015\012\015\012\000"
  76      696E6720 
  76      73776974 
  76      6368204F 
  76      46460D0A 
  77 0017 00       		.align	2
  78              	.LC3:
  79 0018 5475726E 		.ascii	"Turning switch ON\015\012\015\012\000"
ARM GAS  C:\Users\Matty\AppData\Local\Temp\ccmyBE4w.s 			page 3


  79      696E6720 
  79      73776974 
  79      6368204F 
  79      4E0D0A0D 
  80 002e 0000     		.align	2
  81              	.LC6:
  82 0030 0D0A00   		.ascii	"\015\012\000"
  83 0033 00       		.align	2
  84              	.LC8:
  85 0034 496E7661 		.ascii	"Invalid input\015\012\000"
  85      6C696420 
  85      696E7075 
  85      740D0A00 
  86              		.align	2
  87              	.LC10:
  88 0044 3E2000   		.ascii	"> \000"
  89              		.section	.text.homeProcess,"ax",%progbits
  90              		.align	2
  91              		.global	homeProcess
  92              		.code	16
  93              		.thumb_func
  94              		.type	homeProcess, %function
  95              	homeProcess:
  96              	.LFB35:
  31:.\cli.c       **** 
  32:.\cli.c       **** void homeProcess(char input) {
  97              		.loc 1 32 0
  98              		.cfi_startproc
  99 0000 80B5     		push	{r7, lr}
 100              		.cfi_def_cfa_offset 8
 101              		.cfi_offset 7, -8
 102              		.cfi_offset 14, -4
 103 0002 82B0     		sub	sp, sp, #8
 104              		.cfi_def_cfa_offset 16
 105 0004 00AF     		add	r7, sp, #0
 106              		.cfi_def_cfa_register 7
 107 0006 021C     		mov	r2, r0
 108 0008 FB1D     		add	r3, r7, #7
 109 000a 1A70     		strb	r2, [r3]
  33:.\cli.c       ****     switch(input) {
 110              		.loc 1 33 0
 111 000c FB1D     		add	r3, r7, #7
 112 000e 1B78     		ldrb	r3, [r3]
 113 0010 332B     		cmp	r3, #51
 114 0012 28D0     		beq	.L6
 115 0014 04DC     		bgt	.L7
 116 0016 312B     		cmp	r3, #49
 117 0018 07D0     		beq	.L8
 118 001a 322B     		cmp	r3, #50
 119 001c 1DD0     		beq	.L9
 120 001e 35E0     		b	.L5
 121              	.L7:
 122 0020 342B     		cmp	r3, #52
 123 0022 26D0     		beq	.L10
 124 0024 682B     		cmp	r3, #104
 125 0026 2AD0     		beq	.L11
 126 0028 30E0     		b	.L5
ARM GAS  C:\Users\Matty\AppData\Local\Temp\ccmyBE4w.s 			page 4


 127              	.L8:
  34:.\cli.c       ****         case '1':
  35:.\cli.c       ****             if(power) {
 128              		.loc 1 35 0
 129 002a 1E4B     		ldr	r3, .L15
 130 002c 1B78     		ldrb	r3, [r3]
 131 002e 002B     		cmp	r3, #0
 132 0030 09D0     		beq	.L12
  36:.\cli.c       ****                 power = false;
 133              		.loc 1 36 0
 134 0032 1C4B     		ldr	r3, .L15
 135 0034 0022     		mov	r2, #0
 136 0036 1A70     		strb	r2, [r3]
  37:.\cli.c       ****                 updatePower();
 137              		.loc 1 37 0
 138 0038 FFF7FEFF 		bl	updatePower
  38:.\cli.c       ****                 UART_PutString("Turning switch OFF\r\n\r\n");
 139              		.loc 1 38 0
 140 003c 1A4B     		ldr	r3, .L15+4
 141 003e 181C     		mov	r0, r3
 142 0040 FFF7FEFF 		bl	UART_PutString
  39:.\cli.c       ****             } else {
  40:.\cli.c       ****                 power = true;
  41:.\cli.c       ****                 updatePower(); 
  42:.\cli.c       ****                 UART_PutString("Turning switch ON\r\n\r\n");
  43:.\cli.c       ****             }
  44:.\cli.c       ****             break;
 143              		.loc 1 44 0
 144 0044 26E0     		b	.L14
 145              	.L12:
  40:.\cli.c       ****                 power = true;
 146              		.loc 1 40 0
 147 0046 174B     		ldr	r3, .L15
 148 0048 0122     		mov	r2, #1
 149 004a 1A70     		strb	r2, [r3]
  41:.\cli.c       ****                 updatePower(); 
 150              		.loc 1 41 0
 151 004c FFF7FEFF 		bl	updatePower
  42:.\cli.c       ****                 UART_PutString("Turning switch ON\r\n\r\n");
 152              		.loc 1 42 0
 153 0050 164B     		ldr	r3, .L15+8
 154 0052 181C     		mov	r0, r3
 155 0054 FFF7FEFF 		bl	UART_PutString
 156              		.loc 1 44 0
 157 0058 1CE0     		b	.L14
 158              	.L9:
  45:.\cli.c       ****         case '2':
  46:.\cli.c       ****             status = SET_FREQ;
 159              		.loc 1 46 0
 160 005a 154B     		ldr	r3, .L15+12
 161 005c 0122     		mov	r2, #1
 162 005e 1A70     		strb	r2, [r3]
  47:.\cli.c       ****             dispFuncHelp();
 163              		.loc 1 47 0
 164 0060 FFF7FEFF 		bl	dispFuncHelp
  48:.\cli.c       ****             break;
 165              		.loc 1 48 0
ARM GAS  C:\Users\Matty\AppData\Local\Temp\ccmyBE4w.s 			page 5


 166 0064 16E0     		b	.L14
 167              	.L6:
  49:.\cli.c       ****         case '3':
  50:.\cli.c       ****             status = SET_SWITCH;
 168              		.loc 1 50 0
 169 0066 124B     		ldr	r3, .L15+12
 170 0068 0222     		mov	r2, #2
 171 006a 1A70     		strb	r2, [r3]
  51:.\cli.c       ****             dispSwitchHelp();
 172              		.loc 1 51 0
 173 006c FFF7FEFF 		bl	dispSwitchHelp
  52:.\cli.c       ****             break;
 174              		.loc 1 52 0
 175 0070 10E0     		b	.L14
 176              	.L10:
  53:.\cli.c       ****         case '4':
  54:.\cli.c       ****             status = DEBUG_MODE;
 177              		.loc 1 54 0
 178 0072 0F4B     		ldr	r3, .L15+12
 179 0074 0422     		mov	r2, #4
 180 0076 1A70     		strb	r2, [r3]
  55:.\cli.c       ****             dispDebugHelp();
 181              		.loc 1 55 0
 182 0078 FFF7FEFF 		bl	dispDebugHelp
  56:.\cli.c       ****            
  57:.\cli.c       ****             //move to new for loop in main
  58:.\cli.c       ****             break;
 183              		.loc 1 58 0
 184 007c 0AE0     		b	.L14
 185              	.L11:
  59:.\cli.c       ****         case 'h':
  60:.\cli.c       ****             UART_PutString("\r\n");
 186              		.loc 1 60 0
 187 007e 0D4B     		ldr	r3, .L15+16
 188 0080 181C     		mov	r0, r3
 189 0082 FFF7FEFF 		bl	UART_PutString
  61:.\cli.c       ****             dispMenuHelp();
 190              		.loc 1 61 0
 191 0086 FFF7FEFF 		bl	dispMenuHelp
  62:.\cli.c       ****             break;
 192              		.loc 1 62 0
 193 008a 03E0     		b	.L14
 194              	.L5:
  63:.\cli.c       ****         default:
  64:.\cli.c       ****             UART_PutString("Invalid input\r\n");
 195              		.loc 1 64 0
 196 008c 0A4B     		ldr	r3, .L15+20
 197 008e 181C     		mov	r0, r3
 198 0090 FFF7FEFF 		bl	UART_PutString
 199              	.L14:
  65:.\cli.c       ****     }
  66:.\cli.c       ****     UART_PutString("> ");
 200              		.loc 1 66 0
 201 0094 094B     		ldr	r3, .L15+24
 202 0096 181C     		mov	r0, r3
 203 0098 FFF7FEFF 		bl	UART_PutString
  67:.\cli.c       **** }
ARM GAS  C:\Users\Matty\AppData\Local\Temp\ccmyBE4w.s 			page 6


 204              		.loc 1 67 0
 205 009c BD46     		mov	sp, r7
 206 009e 02B0     		add	sp, sp, #8
 207              		@ sp needed
 208 00a0 80BD     		pop	{r7, pc}
 209              	.L16:
 210 00a2 C046     		.align	2
 211              	.L15:
 212 00a4 00000000 		.word	power
 213 00a8 00000000 		.word	.LC1
 214 00ac 18000000 		.word	.LC3
 215 00b0 00000000 		.word	status
 216 00b4 30000000 		.word	.LC6
 217 00b8 34000000 		.word	.LC8
 218 00bc 44000000 		.word	.LC10
 219              		.cfi_endproc
 220              	.LFE35:
 221              		.size	homeProcess, .-homeProcess
 222              		.section	.rodata
 223 0047 00       		.align	2
 224              	.LC12:
 225 0048 44656163 		.ascii	"Deactivated switch\015\012\000"
 225      74697661 
 225      74656420 
 225      73776974 
 225      63680D0A 
 226 005d 000000   		.align	2
 227              	.LC14:
 228 0060 41637469 		.ascii	"Activated switch\015\012\000"
 228      76617465 
 228      64207377 
 228      69746368 
 228      0D0A00
 229 0073 00       		.align	2
 230              	.LC16:
 231 0074 4368616E 		.ascii	"Change more switches? y/n\015\012\000"
 231      6765206D 
 231      6F726520 
 231      73776974 
 231      63686573 
 232              		.section	.text.switchProcess,"ax",%progbits
 233              		.align	2
 234              		.global	switchProcess
 235              		.code	16
 236              		.thumb_func
 237              		.type	switchProcess, %function
 238              	switchProcess:
 239              	.LFB36:
  68:.\cli.c       **** 
  69:.\cli.c       **** 
  70:.\cli.c       **** void switchProcess(char input) {
 240              		.loc 1 70 0
 241              		.cfi_startproc
 242 0000 80B5     		push	{r7, lr}
 243              		.cfi_def_cfa_offset 8
 244              		.cfi_offset 7, -8
 245              		.cfi_offset 14, -4
ARM GAS  C:\Users\Matty\AppData\Local\Temp\ccmyBE4w.s 			page 7


 246 0002 84B0     		sub	sp, sp, #16
 247              		.cfi_def_cfa_offset 24
 248 0004 00AF     		add	r7, sp, #0
 249              		.cfi_def_cfa_register 7
 250 0006 021C     		mov	r2, r0
 251 0008 FB1D     		add	r3, r7, #7
 252 000a 1A70     		strb	r2, [r3]
  71:.\cli.c       ****     if(input != 'x') {
 253              		.loc 1 71 0
 254 000c FB1D     		add	r3, r7, #7
 255 000e 1B78     		ldrb	r3, [r3]
 256 0010 782B     		cmp	r3, #120
 257 0012 1BD0     		beq	.L18
 258              	.LBB2:
  72:.\cli.c       ****         int switchVal = input-'a';
 259              		.loc 1 72 0
 260 0014 FB1D     		add	r3, r7, #7
 261 0016 1B78     		ldrb	r3, [r3]
 262 0018 613B     		sub	r3, r3, #97
 263 001a FB60     		str	r3, [r7, #12]
  73:.\cli.c       ****         if(isSwitchActive(switchVal)) {
 264              		.loc 1 73 0
 265 001c FB68     		ldr	r3, [r7, #12]
 266 001e 181C     		mov	r0, r3
 267 0020 FFF7FEFF 		bl	isSwitchActive
 268 0024 031C     		mov	r3, r0
 269 0026 002B     		cmp	r3, #0
 270 0028 08D0     		beq	.L19
  74:.\cli.c       ****             removeSwitch(switchVal);
 271              		.loc 1 74 0
 272 002a FB68     		ldr	r3, [r7, #12]
 273 002c 181C     		mov	r0, r3
 274 002e FFF7FEFF 		bl	removeSwitch
  75:.\cli.c       ****             UART_PutString("Deactivated switch\r\n");
 275              		.loc 1 75 0
 276 0032 0D4B     		ldr	r3, .L20
 277 0034 181C     		mov	r0, r3
 278 0036 FFF7FEFF 		bl	UART_PutString
 279 003a 07E0     		b	.L18
 280              	.L19:
  76:.\cli.c       ****         } else {
  77:.\cli.c       ****             addSwitch(switchVal);
 281              		.loc 1 77 0
 282 003c FB68     		ldr	r3, [r7, #12]
 283 003e 181C     		mov	r0, r3
 284 0040 FFF7FEFF 		bl	addSwitch
  78:.\cli.c       ****             UART_PutString("Activated switch\r\n");
 285              		.loc 1 78 0
 286 0044 094B     		ldr	r3, .L20+4
 287 0046 181C     		mov	r0, r3
 288 0048 FFF7FEFF 		bl	UART_PutString
 289              	.L18:
 290              	.LBE2:
  79:.\cli.c       ****         }  
  80:.\cli.c       ****     }
  81:.\cli.c       ****     
  82:.\cli.c       ****     //Ask if there is any additional changes
ARM GAS  C:\Users\Matty\AppData\Local\Temp\ccmyBE4w.s 			page 8


  83:.\cli.c       ****     UART_PutString("Change more switches? y/n\r\n");
 291              		.loc 1 83 0
 292 004c 084B     		ldr	r3, .L20+8
 293 004e 181C     		mov	r0, r3
 294 0050 FFF7FEFF 		bl	UART_PutString
  84:.\cli.c       ****     UART_PutString("> ");
 295              		.loc 1 84 0
 296 0054 074B     		ldr	r3, .L20+12
 297 0056 181C     		mov	r0, r3
 298 0058 FFF7FEFF 		bl	UART_PutString
  85:.\cli.c       ****     status = QUESTION;
 299              		.loc 1 85 0
 300 005c 064B     		ldr	r3, .L20+16
 301 005e 0322     		mov	r2, #3
 302 0060 1A70     		strb	r2, [r3]
  86:.\cli.c       **** }
 303              		.loc 1 86 0
 304 0062 BD46     		mov	sp, r7
 305 0064 04B0     		add	sp, sp, #16
 306              		@ sp needed
 307 0066 80BD     		pop	{r7, pc}
 308              	.L21:
 309              		.align	2
 310              	.L20:
 311 0068 48000000 		.word	.LC12
 312 006c 60000000 		.word	.LC14
 313 0070 74000000 		.word	.LC16
 314 0074 44000000 		.word	.LC10
 315 0078 00000000 		.word	status
 316              		.cfi_endproc
 317              	.LFE36:
 318              		.size	switchProcess, .-switchProcess
 319              		.section	.rodata
 320              		.align	2
 321              	.LC21:
 322 0090 312E2054 		.ascii	"1. Turn off switch matrix\015\012\000"
 322      75726E20 
 322      6F666620 
 322      73776974 
 322      6368206D 
 323              		.align	2
 324              	.LC23:
 325 00ac 312E2054 		.ascii	"1. Turn on switch matrix\015\012\000"
 325      75726E20 
 325      6F6E2073 
 325      77697463 
 325      68206D61 
 326 00c7 00       		.align	2
 327              	.LC25:
 328 00c8 322E2053 		.ascii	"2. Set switching frequency\015\012\000"
 328      65742073 
 328      77697463 
 328      68696E67 
 328      20667265 
 329 00e5 000000   		.align	2
 330              	.LC27:
 331 00e8 332E2043 		.ascii	"3. Change active swiches\015\012\000"
ARM GAS  C:\Users\Matty\AppData\Local\Temp\ccmyBE4w.s 			page 9


 331      68616E67 
 331      65206163 
 331      74697665 
 331      20737769 
 332              		.section	.text.dispMenuHelp,"ax",%progbits
 333              		.align	2
 334              		.global	dispMenuHelp
 335              		.code	16
 336              		.thumb_func
 337              		.type	dispMenuHelp, %function
 338              	dispMenuHelp:
 339              	.LFB37:
  87:.\cli.c       ****     
  88:.\cli.c       **** 
  89:.\cli.c       **** 
  90:.\cli.c       **** /* void dispMenuHelp(void)
  91:.\cli.c       ****  * @param:
  92:.\cli.c       ****  *     void
  93:.\cli.c       ****  *
  94:.\cli.c       ****  * Prints out a help menu
  95:.\cli.c       ****  */
  96:.\cli.c       **** void dispMenuHelp(void) {
 340              		.loc 1 96 0
 341              		.cfi_startproc
 342 0000 80B5     		push	{r7, lr}
 343              		.cfi_def_cfa_offset 8
 344              		.cfi_offset 7, -8
 345              		.cfi_offset 14, -4
 346 0002 00AF     		add	r7, sp, #0
 347              		.cfi_def_cfa_register 7
  97:.\cli.c       ****     if(power) {
 348              		.loc 1 97 0
 349 0004 0B4B     		ldr	r3, .L25
 350 0006 1B78     		ldrb	r3, [r3]
 351 0008 002B     		cmp	r3, #0
 352 000a 04D0     		beq	.L23
  98:.\cli.c       ****         UART_PutString("1. Turn off switch matrix\r\n");
 353              		.loc 1 98 0
 354 000c 0A4B     		ldr	r3, .L25+4
 355 000e 181C     		mov	r0, r3
 356 0010 FFF7FEFF 		bl	UART_PutString
 357 0014 03E0     		b	.L24
 358              	.L23:
  99:.\cli.c       ****     } else {
 100:.\cli.c       ****         UART_PutString("1. Turn on switch matrix\r\n");
 359              		.loc 1 100 0
 360 0016 094B     		ldr	r3, .L25+8
 361 0018 181C     		mov	r0, r3
 362 001a FFF7FEFF 		bl	UART_PutString
 363              	.L24:
 101:.\cli.c       ****     }
 102:.\cli.c       ****     UART_PutString("2. Set switching frequency\r\n");
 364              		.loc 1 102 0
 365 001e 084B     		ldr	r3, .L25+12
 366 0020 181C     		mov	r0, r3
 367 0022 FFF7FEFF 		bl	UART_PutString
 103:.\cli.c       ****     UART_PutString("3. Change active swiches\r\n");
ARM GAS  C:\Users\Matty\AppData\Local\Temp\ccmyBE4w.s 			page 10


 368              		.loc 1 103 0
 369 0026 074B     		ldr	r3, .L25+16
 370 0028 181C     		mov	r0, r3
 371 002a FFF7FEFF 		bl	UART_PutString
 104:.\cli.c       **** }
 372              		.loc 1 104 0
 373 002e BD46     		mov	sp, r7
 374              		@ sp needed
 375 0030 80BD     		pop	{r7, pc}
 376              	.L26:
 377 0032 C046     		.align	2
 378              	.L25:
 379 0034 00000000 		.word	power
 380 0038 90000000 		.word	.LC21
 381 003c AC000000 		.word	.LC23
 382 0040 C8000000 		.word	.LC25
 383 0044 E8000000 		.word	.LC27
 384              		.cfi_endproc
 385              	.LFE37:
 386              		.size	dispMenuHelp, .-dispMenuHelp
 387              		.section	.rodata
 388 0103 00       		.align	2
 389              	.LC29:
 390 0104 456E7465 		.ascii	"Enter a valid switching frequency from 0-30000Hz\015"
 390      72206120 
 390      76616C69 
 390      64207377 
 390      69746368 
 391 0135 0A00     		.ascii	"\012\000"
 392 0137 00       		.align	2
 393              	.LC31:
 394 0138 456E7465 		.ascii	"Enter the frequency in Hz and press ENTER\015\012\000"
 394      72207468 
 394      65206672 
 394      65717565 
 394      6E637920 
 395              		.align	2
 396              	.LC33:
 397 0164 50726573 		.ascii	"Press 'x' to return to main menu\015\012\000"
 397      73202778 
 397      2720746F 
 397      20726574 
 397      75726E20 
 398              		.section	.text.dispFuncHelp,"ax",%progbits
 399              		.align	2
 400              		.global	dispFuncHelp
 401              		.code	16
 402              		.thumb_func
 403              		.type	dispFuncHelp, %function
 404              	dispFuncHelp:
 405              	.LFB38:
 105:.\cli.c       **** 
 106:.\cli.c       **** /* void dispFuncHelp(void)
 107:.\cli.c       ****  * @param:
 108:.\cli.c       ****  *     void
 109:.\cli.c       ****  *
 110:.\cli.c       ****  * Prints out a help menu
ARM GAS  C:\Users\Matty\AppData\Local\Temp\ccmyBE4w.s 			page 11


 111:.\cli.c       ****  */
 112:.\cli.c       **** void dispFuncHelp(void) {
 406              		.loc 1 112 0
 407              		.cfi_startproc
 408 0000 80B5     		push	{r7, lr}
 409              		.cfi_def_cfa_offset 8
 410              		.cfi_offset 7, -8
 411              		.cfi_offset 14, -4
 412 0002 00AF     		add	r7, sp, #0
 413              		.cfi_def_cfa_register 7
 113:.\cli.c       ****     UART_PutString("Enter a valid switching frequency from 0-30000Hz\r\n");
 414              		.loc 1 113 0
 415 0004 064B     		ldr	r3, .L28
 416 0006 181C     		mov	r0, r3
 417 0008 FFF7FEFF 		bl	UART_PutString
 114:.\cli.c       ****     UART_PutString("Enter the frequency in Hz and press ENTER\r\n");
 418              		.loc 1 114 0
 419 000c 054B     		ldr	r3, .L28+4
 420 000e 181C     		mov	r0, r3
 421 0010 FFF7FEFF 		bl	UART_PutString
 115:.\cli.c       ****     UART_PutString("Press 'x' to return to main menu\r\n");
 422              		.loc 1 115 0
 423 0014 044B     		ldr	r3, .L28+8
 424 0016 181C     		mov	r0, r3
 425 0018 FFF7FEFF 		bl	UART_PutString
 116:.\cli.c       **** }
 426              		.loc 1 116 0
 427 001c BD46     		mov	sp, r7
 428              		@ sp needed
 429 001e 80BD     		pop	{r7, pc}
 430              	.L29:
 431              		.align	2
 432              	.L28:
 433 0020 04010000 		.word	.LC29
 434 0024 38010000 		.word	.LC31
 435 0028 64010000 		.word	.LC33
 436              		.cfi_endproc
 437              	.LFE38:
 438              		.size	dispFuncHelp, .-dispFuncHelp
 439              		.section	.rodata
 440 0187 00       		.align	2
 441              	.LC35:
 442 0188 456E7465 		.ascii	"Enter a character for which switch to add/remove\015"
 442      72206120 
 442      63686172 
 442      61637465 
 442      7220666F 
 443 01b9 0A00     		.ascii	"\012\000"
 444 01bb 00       		.align	2
 445              	.LC37:
 446 01bc 2563292E 		.ascii	"%c). Output %d - ON\015\012\000"
 446      204F7574 
 446      70757420 
 446      2564202D 
 446      204F4E0D 
 447 01d2 0000     		.align	2
 448              	.LC39:
ARM GAS  C:\Users\Matty\AppData\Local\Temp\ccmyBE4w.s 			page 12


 449 01d4 2563292E 		.ascii	"%c). Output %d - OFF\015\012\000"
 449      204F7574 
 449      70757420 
 449      2564202D 
 449      204F4646 
 450 01eb 00       		.align	2
 451              	.LC41:
 452 01ec 78292E20 		.ascii	"x). Cancel and resturn to main menu.\015\012\000"
 452      43616E63 
 452      656C2061 
 452      6E642072 
 452      65737475 
 453              		.section	.text.dispSwitchHelp,"ax",%progbits
 454              		.align	2
 455              		.global	dispSwitchHelp
 456              		.code	16
 457              		.thumb_func
 458              		.type	dispSwitchHelp, %function
 459              	dispSwitchHelp:
 460              	.LFB39:
 117:.\cli.c       **** 
 118:.\cli.c       **** /* void dispSwitchHelp(void)
 119:.\cli.c       ****  * @param:
 120:.\cli.c       ****  *     void
 121:.\cli.c       ****  *
 122:.\cli.c       ****  * Prints out a help menu
 123:.\cli.c       ****  */
 124:.\cli.c       **** void dispSwitchHelp(void) {
 461              		.loc 1 124 0
 462              		.cfi_startproc
 463 0000 80B5     		push	{r7, lr}
 464              		.cfi_def_cfa_offset 8
 465              		.cfi_offset 7, -8
 466              		.cfi_offset 14, -4
 467 0002 96B0     		sub	sp, sp, #88
 468              		.cfi_def_cfa_offset 96
 469 0004 00AF     		add	r7, sp, #0
 470              		.cfi_def_cfa_register 7
 125:.\cli.c       ****     char str[80];
 126:.\cli.c       ****     int i;
 127:.\cli.c       ****     UART_PutString("Enter a character for which switch to add/remove\r\n");
 471              		.loc 1 127 0
 472 0006 184B     		ldr	r3, .L35
 473 0008 181C     		mov	r0, r3
 474 000a FFF7FEFF 		bl	UART_PutString
 128:.\cli.c       ****     for(i=0; i<MAX_SWITCHES; i++) {
 475              		.loc 1 128 0
 476 000e 0023     		mov	r3, #0
 477 0010 7B65     		str	r3, [r7, #84]
 478 0012 1EE0     		b	.L31
 479              	.L34:
 129:.\cli.c       ****         if(isSwitchActive(i)) {
 480              		.loc 1 129 0
 481 0014 7B6D     		ldr	r3, [r7, #84]
 482 0016 181C     		mov	r0, r3
 483 0018 FFF7FEFF 		bl	isSwitchActive
 484 001c 031C     		mov	r3, r0
ARM GAS  C:\Users\Matty\AppData\Local\Temp\ccmyBE4w.s 			page 13


 485 001e 002B     		cmp	r3, #0
 486 0020 08D0     		beq	.L32
 130:.\cli.c       ****             sprintf(str, "%c). Output %d - ON\r\n", 'a'+i, i);
 487              		.loc 1 130 0
 488 0022 7B6D     		ldr	r3, [r7, #84]
 489 0024 1A1C     		mov	r2, r3
 490 0026 6132     		add	r2, r2, #97
 491 0028 381D     		add	r0, r7, #4
 492 002a 1049     		ldr	r1, .L35+4
 493 002c 7B6D     		ldr	r3, [r7, #84]
 494 002e FFF7FEFF 		bl	sprintf
 495 0032 07E0     		b	.L33
 496              	.L32:
 131:.\cli.c       ****         } else {
 132:.\cli.c       ****             sprintf(str, "%c). Output %d - OFF\r\n", 'a'+i, i);
 497              		.loc 1 132 0
 498 0034 7B6D     		ldr	r3, [r7, #84]
 499 0036 1A1C     		mov	r2, r3
 500 0038 6132     		add	r2, r2, #97
 501 003a 381D     		add	r0, r7, #4
 502 003c 0C49     		ldr	r1, .L35+8
 503 003e 7B6D     		ldr	r3, [r7, #84]
 504 0040 FFF7FEFF 		bl	sprintf
 505              	.L33:
 133:.\cli.c       ****         }
 134:.\cli.c       ****         UART_PutString(str);
 506              		.loc 1 134 0
 507 0044 3B1D     		add	r3, r7, #4
 508 0046 181C     		mov	r0, r3
 509 0048 FFF7FEFF 		bl	UART_PutString
 128:.\cli.c       ****     for(i=0; i<MAX_SWITCHES; i++) {
 510              		.loc 1 128 0
 511 004c 7B6D     		ldr	r3, [r7, #84]
 512 004e 0133     		add	r3, r3, #1
 513 0050 7B65     		str	r3, [r7, #84]
 514              	.L31:
 128:.\cli.c       ****     for(i=0; i<MAX_SWITCHES; i++) {
 515              		.loc 1 128 0 is_stmt 0 discriminator 1
 516 0052 7B6D     		ldr	r3, [r7, #84]
 517 0054 0F2B     		cmp	r3, #15
 518 0056 DDDD     		ble	.L34
 135:.\cli.c       ****     }    
 136:.\cli.c       ****     UART_PutString("x). Cancel and resturn to main menu.\r\n");
 519              		.loc 1 136 0 is_stmt 1
 520 0058 064B     		ldr	r3, .L35+12
 521 005a 181C     		mov	r0, r3
 522 005c FFF7FEFF 		bl	UART_PutString
 137:.\cli.c       **** }
 523              		.loc 1 137 0
 524 0060 BD46     		mov	sp, r7
 525 0062 16B0     		add	sp, sp, #88
 526              		@ sp needed
 527 0064 80BD     		pop	{r7, pc}
 528              	.L36:
 529 0066 C046     		.align	2
 530              	.L35:
 531 0068 88010000 		.word	.LC35
ARM GAS  C:\Users\Matty\AppData\Local\Temp\ccmyBE4w.s 			page 14


 532 006c BC010000 		.word	.LC37
 533 0070 D4010000 		.word	.LC39
 534 0074 EC010000 		.word	.LC41
 535              		.cfi_endproc
 536              	.LFE39:
 537              		.size	dispSwitchHelp, .-dispSwitchHelp
 538              		.section	.rodata
 539 0213 00       		.align	2
 540              	.LC43:
 541 0214 456E7465 		.ascii	"Entering Debug mode...\015\012\000"
 541      72696E67 
 541      20446562 
 541      7567206D 
 541      6F64652E 
 542 022d 000000   		.align	2
 543              	.LC45:
 544 0230 50726573 		.ascii	"Press any key to change to next switch\015\012\000"
 544      7320616E 
 544      79206B65 
 544      7920746F 
 544      20636861 
 545 0259 000000   		.section	.text.dispDebugHelp,"ax",%progbits
 546              		.align	2
 547              		.global	dispDebugHelp
 548              		.code	16
 549              		.thumb_func
 550              		.type	dispDebugHelp, %function
 551              	dispDebugHelp:
 552              	.LFB40:
 138:.\cli.c       **** 
 139:.\cli.c       **** void dispDebugHelp(void) {
 553              		.loc 1 139 0
 554              		.cfi_startproc
 555 0000 80B5     		push	{r7, lr}
 556              		.cfi_def_cfa_offset 8
 557              		.cfi_offset 7, -8
 558              		.cfi_offset 14, -4
 559 0002 00AF     		add	r7, sp, #0
 560              		.cfi_def_cfa_register 7
 140:.\cli.c       ****     UART_PutString("Entering Debug mode...\r\n");
 561              		.loc 1 140 0
 562 0004 064B     		ldr	r3, .L38
 563 0006 181C     		mov	r0, r3
 564 0008 FFF7FEFF 		bl	UART_PutString
 141:.\cli.c       ****     UART_PutString("Press any key to change to next switch\r\n");
 565              		.loc 1 141 0
 566 000c 054B     		ldr	r3, .L38+4
 567 000e 181C     		mov	r0, r3
 568 0010 FFF7FEFF 		bl	UART_PutString
 142:.\cli.c       ****     UART_PutString("Press 'x' to return to main menu\r\n");
 569              		.loc 1 142 0
 570 0014 044B     		ldr	r3, .L38+8
 571 0016 181C     		mov	r0, r3
 572 0018 FFF7FEFF 		bl	UART_PutString
 143:.\cli.c       **** }
 573              		.loc 1 143 0
 574 001c BD46     		mov	sp, r7
ARM GAS  C:\Users\Matty\AppData\Local\Temp\ccmyBE4w.s 			page 15


 575              		@ sp needed
 576 001e 80BD     		pop	{r7, pc}
 577              	.L39:
 578              		.align	2
 579              	.L38:
 580 0020 14020000 		.word	.LC43
 581 0024 30020000 		.word	.LC45
 582 0028 64010000 		.word	.LC33
 583              		.cfi_endproc
 584              	.LFE40:
 585              		.size	dispDebugHelp, .-dispDebugHelp
 586              		.text
 587              	.Letext0:
 588              		.file 2 "./main.h"