ARM GAS  C:\Users\Matty\AppData\Local\Temp\ccXs7IQl.s 			page 1


   1              		.cpu cortex-m0
   2              		.fpu softvfp
   3              		.eabi_attribute 20, 1
   4              		.eabi_attribute 21, 1
   5              		.eabi_attribute 23, 3
   6              		.eabi_attribute 24, 1
   7              		.eabi_attribute 25, 1
   8              		.eabi_attribute 26, 1
   9              		.eabi_attribute 30, 6
  10              		.eabi_attribute 34, 0
  11              		.eabi_attribute 18, 4
  12              		.code	16
  13              		.file	"CyDMA.c"
  14              		.text
  15              	.Ltext0:
  16              		.cfi_sections	.debug_frame
  17              		.data
  18              		.align	2
  19              		.type	CyDmaInterruptCallback, %object
  20              		.size	CyDmaInterruptCallback, 32
  21              	CyDmaInterruptCallback:
  22 0000 00000000 		.word	CyDmaDefaultInterruptCallback
  23 0004 00000000 		.word	CyDmaDefaultInterruptCallback
  24 0008 00000000 		.word	CyDmaDefaultInterruptCallback
  25 000c 00000000 		.word	CyDmaDefaultInterruptCallback
  26 0010 00000000 		.word	CyDmaDefaultInterruptCallback
  27 0014 00000000 		.word	CyDmaDefaultInterruptCallback
  28 0018 00000000 		.word	CyDmaDefaultInterruptCallback
  29 001c 00000000 		.word	CyDmaDefaultInterruptCallback
  30              		.bss
  31              		.align	2
  32              	CyDmaChannelUsedMask:
  33 0000 00000000 		.space	4
  34              		.section	.text.CyDmaEnable,"ax",%progbits
  35              		.align	2
  36              		.global	CyDmaEnable
  37              		.code	16
  38              		.thumb_func
  39              		.type	CyDmaEnable, %function
  40              	CyDmaEnable:
  41              	.LFB1:
  42              		.file 1 ".\\Generated_Source\\PSoC4\\CyDMA.c"
   1:.\Generated_Source\PSoC4/CyDMA.c **** /*******************************************************************************
   2:.\Generated_Source\PSoC4/CyDMA.c **** * File Name: CyDMA.c
   3:.\Generated_Source\PSoC4/CyDMA.c **** * Version 1.0
   4:.\Generated_Source\PSoC4/CyDMA.c **** *
   5:.\Generated_Source\PSoC4/CyDMA.c **** * Description:
   6:.\Generated_Source\PSoC4/CyDMA.c **** *  This file contains all of the global DMA API functions.
   7:.\Generated_Source\PSoC4/CyDMA.c **** *
   8:.\Generated_Source\PSoC4/CyDMA.c **** ********************************************************************************
   9:.\Generated_Source\PSoC4/CyDMA.c **** * Copyright 2015, Cypress Semiconductor Corporation. All rights reserved.
  10:.\Generated_Source\PSoC4/CyDMA.c **** * You may use this file only in accordance with the license, terms, conditions,
  11:.\Generated_Source\PSoC4/CyDMA.c **** * disclaimers, and limitations in the end user license agreement accompanying
  12:.\Generated_Source\PSoC4/CyDMA.c **** * the software package with which this file was provided.
  13:.\Generated_Source\PSoC4/CyDMA.c **** *******************************************************************************/
  14:.\Generated_Source\PSoC4/CyDMA.c **** 
  15:.\Generated_Source\PSoC4/CyDMA.c **** #include "CyDMA.h"
ARM GAS  C:\Users\Matty\AppData\Local\Temp\ccXs7IQl.s 			page 2


  16:.\Generated_Source\PSoC4/CyDMA.c **** #include "CyLib.h"
  17:.\Generated_Source\PSoC4/CyDMA.c **** 
  18:.\Generated_Source\PSoC4/CyDMA.c **** /* Default callback function. It is invoked if the user callback function is
  19:.\Generated_Source\PSoC4/CyDMA.c **** * undefined.
  20:.\Generated_Source\PSoC4/CyDMA.c **** */
  21:.\Generated_Source\PSoC4/CyDMA.c **** static void CyDmaDefaultInterruptCallback(void);
  22:.\Generated_Source\PSoC4/CyDMA.c **** 
  23:.\Generated_Source\PSoC4/CyDMA.c **** /* Array of pointers to user defined callback functions to be called
  24:.\Generated_Source\PSoC4/CyDMA.c **** * from DMA interrupt.
  25:.\Generated_Source\PSoC4/CyDMA.c **** */
  26:.\Generated_Source\PSoC4/CyDMA.c **** static cydma_callback_t CyDmaInterruptCallback[CYDMA_CH_NR] = {
  27:.\Generated_Source\PSoC4/CyDMA.c ****     &CyDmaDefaultInterruptCallback, &CyDmaDefaultInterruptCallback,
  28:.\Generated_Source\PSoC4/CyDMA.c ****     &CyDmaDefaultInterruptCallback, &CyDmaDefaultInterruptCallback,
  29:.\Generated_Source\PSoC4/CyDMA.c ****     &CyDmaDefaultInterruptCallback, &CyDmaDefaultInterruptCallback,
  30:.\Generated_Source\PSoC4/CyDMA.c ****     &CyDmaDefaultInterruptCallback, &CyDmaDefaultInterruptCallback
  31:.\Generated_Source\PSoC4/CyDMA.c **** };
  32:.\Generated_Source\PSoC4/CyDMA.c **** 
  33:.\Generated_Source\PSoC4/CyDMA.c **** /* The live status of all DMA channels usage. Bit i is associated to channel i,
  34:.\Generated_Source\PSoC4/CyDMA.c **** * with i = 0..CYDMA_CH_NR-1. '0' - channel is free. '1' - channel is in use.
  35:.\Generated_Source\PSoC4/CyDMA.c **** * All the channels allocated for DMA instances placed on a schematic are in use
  36:.\Generated_Source\PSoC4/CyDMA.c **** * by default and cannot be freed. 
  37:.\Generated_Source\PSoC4/CyDMA.c **** * DMA_CHANNELS_USED__MASK is generated during the build time and is a bit field
  38:.\Generated_Source\PSoC4/CyDMA.c **** * corresponding to the DMA channels placed on a design schematic.
  39:.\Generated_Source\PSoC4/CyDMA.c **** */
  40:.\Generated_Source\PSoC4/CyDMA.c **** static uint32 CyDmaChannelUsedMask = DMA_CHANNELS_USED__MASK;
  41:.\Generated_Source\PSoC4/CyDMA.c **** 
  42:.\Generated_Source\PSoC4/CyDMA.c **** 
  43:.\Generated_Source\PSoC4/CyDMA.c **** /*******************************************************************************
  44:.\Generated_Source\PSoC4/CyDMA.c **** * Function Name: CyDmaEnable
  45:.\Generated_Source\PSoC4/CyDMA.c **** ********************************************************************************
  46:.\Generated_Source\PSoC4/CyDMA.c **** *
  47:.\Generated_Source\PSoC4/CyDMA.c **** * Summary:
  48:.\Generated_Source\PSoC4/CyDMA.c **** *  Sets the default ISR to be called by the DMA interrupt and enables the DMA
  49:.\Generated_Source\PSoC4/CyDMA.c **** *  transfer engine.
  50:.\Generated_Source\PSoC4/CyDMA.c **** *
  51:.\Generated_Source\PSoC4/CyDMA.c **** * Parameters:
  52:.\Generated_Source\PSoC4/CyDMA.c **** *  None.
  53:.\Generated_Source\PSoC4/CyDMA.c **** *                   
  54:.\Generated_Source\PSoC4/CyDMA.c **** * Return:
  55:.\Generated_Source\PSoC4/CyDMA.c **** *  None.
  56:.\Generated_Source\PSoC4/CyDMA.c **** *
  57:.\Generated_Source\PSoC4/CyDMA.c **** * Side effect:
  58:.\Generated_Source\PSoC4/CyDMA.c **** *  Does not affect the channel enable status. Overrides the interrupt vector
  59:.\Generated_Source\PSoC4/CyDMA.c **** *  set prior the first time CyDmaEnable() is called.
  60:.\Generated_Source\PSoC4/CyDMA.c **** *
  61:.\Generated_Source\PSoC4/CyDMA.c **** *******************************************************************************/
  62:.\Generated_Source\PSoC4/CyDMA.c **** void CyDmaEnable(void)
  63:.\Generated_Source\PSoC4/CyDMA.c **** {
  43              		.loc 1 63 0
  44              		.cfi_startproc
  45 0000 80B5     		push	{r7, lr}
  46              		.cfi_def_cfa_offset 8
  47              		.cfi_offset 7, -8
  48              		.cfi_offset 14, -4
  49 0002 00AF     		add	r7, sp, #0
  50              		.cfi_def_cfa_register 7
  64:.\Generated_Source\PSoC4/CyDMA.c ****     static uint8 initIntrVector = 0u;
ARM GAS  C:\Users\Matty\AppData\Local\Temp\ccXs7IQl.s 			page 3


  65:.\Generated_Source\PSoC4/CyDMA.c **** 
  66:.\Generated_Source\PSoC4/CyDMA.c ****     if(0u == initIntrVector)
  51              		.loc 1 66 0
  52 0004 084B     		ldr	r3, .L3
  53 0006 1B78     		ldrb	r3, [r3]
  54 0008 002B     		cmp	r3, #0
  55 000a 06D1     		bne	.L2
  67:.\Generated_Source\PSoC4/CyDMA.c ****     {
  68:.\Generated_Source\PSoC4/CyDMA.c ****         CyDmaSetInterruptVector(&CyDmaInterrupt);
  56              		.loc 1 68 0
  57 000c 074B     		ldr	r3, .L3+4
  58 000e 181C     		mov	r0, r3
  59 0010 FFF7FEFF 		bl	CyDmaSetInterruptVector
  69:.\Generated_Source\PSoC4/CyDMA.c ****         initIntrVector = 1u;
  60              		.loc 1 69 0
  61 0014 044B     		ldr	r3, .L3
  62 0016 0122     		mov	r2, #1
  63 0018 1A70     		strb	r2, [r3]
  64              	.L2:
  70:.\Generated_Source\PSoC4/CyDMA.c ****     }
  71:.\Generated_Source\PSoC4/CyDMA.c ****     CYDMA_CTL_REG = CYDMA_ENABLED;
  65              		.loc 1 71 0
  66 001a 054B     		ldr	r3, .L3+8
  67 001c 8022     		mov	r2, #128
  68 001e 1206     		lsl	r2, r2, #24
  69 0020 1A60     		str	r2, [r3]
  72:.\Generated_Source\PSoC4/CyDMA.c **** }
  70              		.loc 1 72 0
  71 0022 BD46     		mov	sp, r7
  72              		@ sp needed
  73 0024 80BD     		pop	{r7, pc}
  74              	.L4:
  75 0026 C046     		.align	2
  76              	.L3:
  77 0028 04000000 		.word	initIntrVector.4856
  78 002c 00000000 		.word	CyDmaInterrupt
  79 0030 00101040 		.word	1074794496
  80              		.cfi_endproc
  81              	.LFE1:
  82              		.size	CyDmaEnable, .-CyDmaEnable
  83              		.section	.text.CyDmaDisable,"ax",%progbits
  84              		.align	2
  85              		.global	CyDmaDisable
  86              		.code	16
  87              		.thumb_func
  88              		.type	CyDmaDisable, %function
  89              	CyDmaDisable:
  90              	.LFB2:
  73:.\Generated_Source\PSoC4/CyDMA.c **** 
  74:.\Generated_Source\PSoC4/CyDMA.c **** 
  75:.\Generated_Source\PSoC4/CyDMA.c **** /*******************************************************************************
  76:.\Generated_Source\PSoC4/CyDMA.c **** * Function Name: CyDmaDisable
  77:.\Generated_Source\PSoC4/CyDMA.c **** ********************************************************************************
  78:.\Generated_Source\PSoC4/CyDMA.c **** *
  79:.\Generated_Source\PSoC4/CyDMA.c **** * Summary:
  80:.\Generated_Source\PSoC4/CyDMA.c **** *  Disables the DMA transfer engine.
  81:.\Generated_Source\PSoC4/CyDMA.c **** *
ARM GAS  C:\Users\Matty\AppData\Local\Temp\ccXs7IQl.s 			page 4


  82:.\Generated_Source\PSoC4/CyDMA.c **** * Parameters:
  83:.\Generated_Source\PSoC4/CyDMA.c **** *  None.
  84:.\Generated_Source\PSoC4/CyDMA.c **** *                   
  85:.\Generated_Source\PSoC4/CyDMA.c **** * Return:
  86:.\Generated_Source\PSoC4/CyDMA.c **** *  None.
  87:.\Generated_Source\PSoC4/CyDMA.c **** *
  88:.\Generated_Source\PSoC4/CyDMA.c **** * Side effect:
  89:.\Generated_Source\PSoC4/CyDMA.c **** *  Does not affect the channel enable status.
  90:.\Generated_Source\PSoC4/CyDMA.c **** *
  91:.\Generated_Source\PSoC4/CyDMA.c **** *******************************************************************************/
  92:.\Generated_Source\PSoC4/CyDMA.c **** void CyDmaDisable(void)
  93:.\Generated_Source\PSoC4/CyDMA.c **** {
  91              		.loc 1 93 0
  92              		.cfi_startproc
  93 0000 80B5     		push	{r7, lr}
  94              		.cfi_def_cfa_offset 8
  95              		.cfi_offset 7, -8
  96              		.cfi_offset 14, -4
  97 0002 00AF     		add	r7, sp, #0
  98              		.cfi_def_cfa_register 7
  94:.\Generated_Source\PSoC4/CyDMA.c ****     CYDMA_CTL_REG = (uint32)~CYDMA_ENABLED;
  99              		.loc 1 94 0
 100 0004 024B     		ldr	r3, .L6
 101 0006 034A     		ldr	r2, .L6+4
 102 0008 1A60     		str	r2, [r3]
  95:.\Generated_Source\PSoC4/CyDMA.c **** }
 103              		.loc 1 95 0
 104 000a BD46     		mov	sp, r7
 105              		@ sp needed
 106 000c 80BD     		pop	{r7, pc}
 107              	.L7:
 108 000e C046     		.align	2
 109              	.L6:
 110 0010 00101040 		.word	1074794496
 111 0014 FFFFFF7F 		.word	2147483647
 112              		.cfi_endproc
 113              	.LFE2:
 114              		.size	CyDmaDisable, .-CyDmaDisable
 115              		.section	.text.CyDmaGetStatus,"ax",%progbits
 116              		.align	2
 117              		.global	CyDmaGetStatus
 118              		.code	16
 119              		.thumb_func
 120              		.type	CyDmaGetStatus, %function
 121              	CyDmaGetStatus:
 122              	.LFB3:
  96:.\Generated_Source\PSoC4/CyDMA.c **** 
  97:.\Generated_Source\PSoC4/CyDMA.c **** 
  98:.\Generated_Source\PSoC4/CyDMA.c **** /*******************************************************************************
  99:.\Generated_Source\PSoC4/CyDMA.c **** * Function Name: CyDmaGetStatus
 100:.\Generated_Source\PSoC4/CyDMA.c **** ********************************************************************************
 101:.\Generated_Source\PSoC4/CyDMA.c **** *
 102:.\Generated_Source\PSoC4/CyDMA.c **** * Summary:
 103:.\Generated_Source\PSoC4/CyDMA.c **** *  Returns the status of the DMA transfer engine.
 104:.\Generated_Source\PSoC4/CyDMA.c **** *
 105:.\Generated_Source\PSoC4/CyDMA.c **** * Parameters:
 106:.\Generated_Source\PSoC4/CyDMA.c **** *  None.
ARM GAS  C:\Users\Matty\AppData\Local\Temp\ccXs7IQl.s 			page 5


 107:.\Generated_Source\PSoC4/CyDMA.c **** *                   
 108:.\Generated_Source\PSoC4/CyDMA.c **** * Return:
 109:.\Generated_Source\PSoC4/CyDMA.c **** *  The contents of the DMA status register. Refer to the status register bit
 110:.\Generated_Source\PSoC4/CyDMA.c **** *  definitions in CyDMA_P4.h or the API description in the DMA channel
 111:.\Generated_Source\PSoC4/CyDMA.c **** *  datasheet.
 112:.\Generated_Source\PSoC4/CyDMA.c **** *
 113:.\Generated_Source\PSoC4/CyDMA.c **** * Side effect:
 114:.\Generated_Source\PSoC4/CyDMA.c **** *  The series of function calls CyDmaGetActiveSrcAddress(),
 115:.\Generated_Source\PSoC4/CyDMA.c **** *  CyDmaGetActiveDstAddress(), CyDmaGetStatus() are not atomic, the DMA
 116:.\Generated_Source\PSoC4/CyDMA.c **** *  engine may have advanced after one or more of these function calls. Meaning
 117:.\Generated_Source\PSoC4/CyDMA.c **** *  the returns from these three functions may not be related to each other.
 118:.\Generated_Source\PSoC4/CyDMA.c **** *
 119:.\Generated_Source\PSoC4/CyDMA.c **** *******************************************************************************/
 120:.\Generated_Source\PSoC4/CyDMA.c **** uint32 CyDmaGetStatus(void)
 121:.\Generated_Source\PSoC4/CyDMA.c **** {
 123              		.loc 1 121 0
 124              		.cfi_startproc
 125 0000 80B5     		push	{r7, lr}
 126              		.cfi_def_cfa_offset 8
 127              		.cfi_offset 7, -8
 128              		.cfi_offset 14, -4
 129 0002 00AF     		add	r7, sp, #0
 130              		.cfi_def_cfa_register 7
 122:.\Generated_Source\PSoC4/CyDMA.c ****     return (CYDMA_STATUS_REG);
 131              		.loc 1 122 0
 132 0004 024B     		ldr	r3, .L10
 133 0006 1B68     		ldr	r3, [r3]
 123:.\Generated_Source\PSoC4/CyDMA.c **** }
 134              		.loc 1 123 0
 135 0008 181C     		mov	r0, r3
 136 000a BD46     		mov	sp, r7
 137              		@ sp needed
 138 000c 80BD     		pop	{r7, pc}
 139              	.L11:
 140 000e C046     		.align	2
 141              	.L10:
 142 0010 10101040 		.word	1074794512
 143              		.cfi_endproc
 144              	.LFE3:
 145              		.size	CyDmaGetStatus, .-CyDmaGetStatus
 146              		.section	.text.CyDmaGetActiveChannels,"ax",%progbits
 147              		.align	2
 148              		.global	CyDmaGetActiveChannels
 149              		.code	16
 150              		.thumb_func
 151              		.type	CyDmaGetActiveChannels, %function
 152              	CyDmaGetActiveChannels:
 153              	.LFB4:
 124:.\Generated_Source\PSoC4/CyDMA.c **** 
 125:.\Generated_Source\PSoC4/CyDMA.c **** 
 126:.\Generated_Source\PSoC4/CyDMA.c **** /*******************************************************************************
 127:.\Generated_Source\PSoC4/CyDMA.c **** * Function Name: CyDmaGetActiveChannels
 128:.\Generated_Source\PSoC4/CyDMA.c **** ********************************************************************************
 129:.\Generated_Source\PSoC4/CyDMA.c **** *
 130:.\Generated_Source\PSoC4/CyDMA.c **** * Summary:
 131:.\Generated_Source\PSoC4/CyDMA.c **** *  Returns a bit field of all the DMA channels that are either active or
 132:.\Generated_Source\PSoC4/CyDMA.c **** *  pending.
ARM GAS  C:\Users\Matty\AppData\Local\Temp\ccXs7IQl.s 			page 6


 133:.\Generated_Source\PSoC4/CyDMA.c **** *
 134:.\Generated_Source\PSoC4/CyDMA.c **** * Parameters:
 135:.\Generated_Source\PSoC4/CyDMA.c **** *  None.
 136:.\Generated_Source\PSoC4/CyDMA.c **** *                   
 137:.\Generated_Source\PSoC4/CyDMA.c **** * Return:
 138:.\Generated_Source\PSoC4/CyDMA.c **** *  Bit field of active and pending channels. 
 139:.\Generated_Source\PSoC4/CyDMA.c **** *
 140:.\Generated_Source\PSoC4/CyDMA.c **** *******************************************************************************/
 141:.\Generated_Source\PSoC4/CyDMA.c **** uint32 CyDmaGetActiveChannels(void)
 142:.\Generated_Source\PSoC4/CyDMA.c **** {
 154              		.loc 1 142 0
 155              		.cfi_startproc
 156 0000 80B5     		push	{r7, lr}
 157              		.cfi_def_cfa_offset 8
 158              		.cfi_offset 7, -8
 159              		.cfi_offset 14, -4
 160 0002 00AF     		add	r7, sp, #0
 161              		.cfi_def_cfa_register 7
 143:.\Generated_Source\PSoC4/CyDMA.c ****     return (CYDMA_STATUS_CH_ACT_REG);
 162              		.loc 1 143 0
 163 0004 024B     		ldr	r3, .L14
 164 0006 1B68     		ldr	r3, [r3]
 144:.\Generated_Source\PSoC4/CyDMA.c **** }
 165              		.loc 1 144 0
 166 0008 181C     		mov	r0, r3
 167 000a BD46     		mov	sp, r7
 168              		@ sp needed
 169 000c 80BD     		pop	{r7, pc}
 170              	.L15:
 171 000e C046     		.align	2
 172              	.L14:
 173 0010 1C101040 		.word	1074794524
 174              		.cfi_endproc
 175              	.LFE4:
 176              		.size	CyDmaGetActiveChannels, .-CyDmaGetActiveChannels
 177              		.section	.text.CyDmaGetActiveSrcAddress,"ax",%progbits
 178              		.align	2
 179              		.global	CyDmaGetActiveSrcAddress
 180              		.code	16
 181              		.thumb_func
 182              		.type	CyDmaGetActiveSrcAddress, %function
 183              	CyDmaGetActiveSrcAddress:
 184              	.LFB5:
 145:.\Generated_Source\PSoC4/CyDMA.c **** 
 146:.\Generated_Source\PSoC4/CyDMA.c **** 
 147:.\Generated_Source\PSoC4/CyDMA.c **** /*******************************************************************************
 148:.\Generated_Source\PSoC4/CyDMA.c **** * Function Name: CyDmaGetActiveSrcAddress
 149:.\Generated_Source\PSoC4/CyDMA.c **** ********************************************************************************
 150:.\Generated_Source\PSoC4/CyDMA.c **** *
 151:.\Generated_Source\PSoC4/CyDMA.c **** * Summary:
 152:.\Generated_Source\PSoC4/CyDMA.c **** *  Returns the source address currently being used by the DMA transfer engine.
 153:.\Generated_Source\PSoC4/CyDMA.c **** *  This function can be used to debug the DMA, or observe where it is at in a
 154:.\Generated_Source\PSoC4/CyDMA.c **** *  transfer. It will not be used in normal DMA operation.
 155:.\Generated_Source\PSoC4/CyDMA.c **** *
 156:.\Generated_Source\PSoC4/CyDMA.c **** * Parameters:
 157:.\Generated_Source\PSoC4/CyDMA.c **** *  None.
 158:.\Generated_Source\PSoC4/CyDMA.c **** *                   
ARM GAS  C:\Users\Matty\AppData\Local\Temp\ccXs7IQl.s 			page 7


 159:.\Generated_Source\PSoC4/CyDMA.c **** * Return:
 160:.\Generated_Source\PSoC4/CyDMA.c **** *  Source address currently being used by the DMA transfer engine.
 161:.\Generated_Source\PSoC4/CyDMA.c **** *
 162:.\Generated_Source\PSoC4/CyDMA.c **** * Side effect:
 163:.\Generated_Source\PSoC4/CyDMA.c **** *  The series of function calls CyDmaGetActiveSrcAddress(),
 164:.\Generated_Source\PSoC4/CyDMA.c **** *  CyDmaGetActiveDstAddress(), CyDmaGetStatus() are not atomic, the DMA
 165:.\Generated_Source\PSoC4/CyDMA.c **** *  engine may have advanced after one or more of these function calls. Meaning
 166:.\Generated_Source\PSoC4/CyDMA.c **** *  the returns from these three functions may not be related to each other.
 167:.\Generated_Source\PSoC4/CyDMA.c **** *
 168:.\Generated_Source\PSoC4/CyDMA.c **** *******************************************************************************/
 169:.\Generated_Source\PSoC4/CyDMA.c **** void * CyDmaGetActiveSrcAddress(void)
 170:.\Generated_Source\PSoC4/CyDMA.c **** {
 185              		.loc 1 170 0
 186              		.cfi_startproc
 187 0000 80B5     		push	{r7, lr}
 188              		.cfi_def_cfa_offset 8
 189              		.cfi_offset 7, -8
 190              		.cfi_offset 14, -4
 191 0002 00AF     		add	r7, sp, #0
 192              		.cfi_def_cfa_register 7
 171:.\Generated_Source\PSoC4/CyDMA.c ****     return ((void *)CYDMA_STATUS_SRC_ADDR_REG);
 193              		.loc 1 171 0
 194 0004 024B     		ldr	r3, .L18
 195 0006 1B68     		ldr	r3, [r3]
 172:.\Generated_Source\PSoC4/CyDMA.c **** }
 196              		.loc 1 172 0
 197 0008 181C     		mov	r0, r3
 198 000a BD46     		mov	sp, r7
 199              		@ sp needed
 200 000c 80BD     		pop	{r7, pc}
 201              	.L19:
 202 000e C046     		.align	2
 203              	.L18:
 204 0010 14101040 		.word	1074794516
 205              		.cfi_endproc
 206              	.LFE5:
 207              		.size	CyDmaGetActiveSrcAddress, .-CyDmaGetActiveSrcAddress
 208              		.section	.text.CyDmaGetActiveDstAddress,"ax",%progbits
 209              		.align	2
 210              		.global	CyDmaGetActiveDstAddress
 211              		.code	16
 212              		.thumb_func
 213              		.type	CyDmaGetActiveDstAddress, %function
 214              	CyDmaGetActiveDstAddress:
 215              	.LFB6:
 173:.\Generated_Source\PSoC4/CyDMA.c **** 
 174:.\Generated_Source\PSoC4/CyDMA.c **** 
 175:.\Generated_Source\PSoC4/CyDMA.c **** /*******************************************************************************
 176:.\Generated_Source\PSoC4/CyDMA.c **** * Function Name: CyDmaGetActiveDstAddress
 177:.\Generated_Source\PSoC4/CyDMA.c **** ********************************************************************************
 178:.\Generated_Source\PSoC4/CyDMA.c **** *
 179:.\Generated_Source\PSoC4/CyDMA.c **** * Summary:
 180:.\Generated_Source\PSoC4/CyDMA.c **** *  Returns the destination address currently being used by the DMA transfer
 181:.\Generated_Source\PSoC4/CyDMA.c **** *  engine. This function can be used to debug the DMA, or observe where it is at
 182:.\Generated_Source\PSoC4/CyDMA.c **** *  in a transfer. It will not be used in normal DMA operation.
 183:.\Generated_Source\PSoC4/CyDMA.c **** *
 184:.\Generated_Source\PSoC4/CyDMA.c **** * Parameters:
ARM GAS  C:\Users\Matty\AppData\Local\Temp\ccXs7IQl.s 			page 8


 185:.\Generated_Source\PSoC4/CyDMA.c **** *  None.
 186:.\Generated_Source\PSoC4/CyDMA.c **** *                   
 187:.\Generated_Source\PSoC4/CyDMA.c **** * Return:
 188:.\Generated_Source\PSoC4/CyDMA.c **** *  Destination address currently being used by the DMA transfer engine.
 189:.\Generated_Source\PSoC4/CyDMA.c **** *
 190:.\Generated_Source\PSoC4/CyDMA.c **** * Side effect:
 191:.\Generated_Source\PSoC4/CyDMA.c **** *  The series of function calls CyDmaGetActiveSrcAddress(),
 192:.\Generated_Source\PSoC4/CyDMA.c **** *  CyDmaGetActiveDstAddress(), CyDmaGetStatus() are not atomic, the DMA
 193:.\Generated_Source\PSoC4/CyDMA.c **** *  engine may have advanced after one or more of these function calls. Meaning
 194:.\Generated_Source\PSoC4/CyDMA.c **** *  the returns from these three functions may not be related to each other.
 195:.\Generated_Source\PSoC4/CyDMA.c **** *
 196:.\Generated_Source\PSoC4/CyDMA.c **** *******************************************************************************/
 197:.\Generated_Source\PSoC4/CyDMA.c **** void * CyDmaGetActiveDstAddress(void)
 198:.\Generated_Source\PSoC4/CyDMA.c **** {
 216              		.loc 1 198 0
 217              		.cfi_startproc
 218 0000 80B5     		push	{r7, lr}
 219              		.cfi_def_cfa_offset 8
 220              		.cfi_offset 7, -8
 221              		.cfi_offset 14, -4
 222 0002 00AF     		add	r7, sp, #0
 223              		.cfi_def_cfa_register 7
 199:.\Generated_Source\PSoC4/CyDMA.c ****     return ((void *)CYDMA_STATUS_DST_ADDR_REG);
 224              		.loc 1 199 0
 225 0004 024B     		ldr	r3, .L22
 226 0006 1B68     		ldr	r3, [r3]
 200:.\Generated_Source\PSoC4/CyDMA.c **** }
 227              		.loc 1 200 0
 228 0008 181C     		mov	r0, r3
 229 000a BD46     		mov	sp, r7
 230              		@ sp needed
 231 000c 80BD     		pop	{r7, pc}
 232              	.L23:
 233 000e C046     		.align	2
 234              	.L22:
 235 0010 18101040 		.word	1074794520
 236              		.cfi_endproc
 237              	.LFE6:
 238              		.size	CyDmaGetActiveDstAddress, .-CyDmaGetActiveDstAddress
 239              		.section	.text.CyDmaSetInterruptVector,"ax",%progbits
 240              		.align	2
 241              		.global	CyDmaSetInterruptVector
 242              		.code	16
 243              		.thumb_func
 244              		.type	CyDmaSetInterruptVector, %function
 245              	CyDmaSetInterruptVector:
 246              	.LFB7:
 201:.\Generated_Source\PSoC4/CyDMA.c **** 
 202:.\Generated_Source\PSoC4/CyDMA.c **** 
 203:.\Generated_Source\PSoC4/CyDMA.c **** /*******************************************************************************
 204:.\Generated_Source\PSoC4/CyDMA.c **** * Function Name: CyDmaSetInterruptVector
 205:.\Generated_Source\PSoC4/CyDMA.c **** ********************************************************************************
 206:.\Generated_Source\PSoC4/CyDMA.c **** *
 207:.\Generated_Source\PSoC4/CyDMA.c **** * Summary:
 208:.\Generated_Source\PSoC4/CyDMA.c **** *  Sets the function that will be called by the DMA interrupt. Note, calling
 209:.\Generated_Source\PSoC4/CyDMA.c **** *  CyDmaEnable() for the first time overrides any effect this API could have.
 210:.\Generated_Source\PSoC4/CyDMA.c **** *  Call CyDmaSetInterruptVector() after calling CyDmaEnable() to change
ARM GAS  C:\Users\Matty\AppData\Local\Temp\ccXs7IQl.s 			page 9


 211:.\Generated_Source\PSoC4/CyDMA.c **** *  the default ISR.
 212:.\Generated_Source\PSoC4/CyDMA.c **** *
 213:.\Generated_Source\PSoC4/CyDMA.c **** * Parameters:
 214:.\Generated_Source\PSoC4/CyDMA.c **** *  interruptVector: Address of the function that will be called by the DMA
 215:.\Generated_Source\PSoC4/CyDMA.c **** *                   interrupt.
 216:.\Generated_Source\PSoC4/CyDMA.c **** * Return:
 217:.\Generated_Source\PSoC4/CyDMA.c **** *  None.
 218:.\Generated_Source\PSoC4/CyDMA.c **** *
 219:.\Generated_Source\PSoC4/CyDMA.c **** * Side effect:
 220:.\Generated_Source\PSoC4/CyDMA.c **** *  Other components that use DMA may register their callback functions to be
 221:.\Generated_Source\PSoC4/CyDMA.c **** *  called from the default DMA ISR. Therefore, changing the DMA ISR to a user
 222:.\Generated_Source\PSoC4/CyDMA.c **** *  defined ISR using this API may prevent these other components from
 223:.\Generated_Source\PSoC4/CyDMA.c **** *  functioning correctly.
 224:.\Generated_Source\PSoC4/CyDMA.c **** *
 225:.\Generated_Source\PSoC4/CyDMA.c **** *******************************************************************************/
 226:.\Generated_Source\PSoC4/CyDMA.c **** void CyDmaSetInterruptVector(cyisraddress interruptVector)
 227:.\Generated_Source\PSoC4/CyDMA.c **** {
 247              		.loc 1 227 0
 248              		.cfi_startproc
 249 0000 80B5     		push	{r7, lr}
 250              		.cfi_def_cfa_offset 8
 251              		.cfi_offset 7, -8
 252              		.cfi_offset 14, -4
 253 0002 82B0     		sub	sp, sp, #8
 254              		.cfi_def_cfa_offset 16
 255 0004 00AF     		add	r7, sp, #0
 256              		.cfi_def_cfa_register 7
 257 0006 7860     		str	r0, [r7, #4]
 228:.\Generated_Source\PSoC4/CyDMA.c ****     (void)CyIntSetVector(CYDMA_INTR_NUMBER, interruptVector);
 258              		.loc 1 228 0
 259 0008 7B68     		ldr	r3, [r7, #4]
 260 000a 0D20     		mov	r0, #13
 261 000c 191C     		mov	r1, r3
 262 000e FFF7FEFF 		bl	CyIntSetVector
 229:.\Generated_Source\PSoC4/CyDMA.c **** }
 263              		.loc 1 229 0
 264 0012 BD46     		mov	sp, r7
 265 0014 02B0     		add	sp, sp, #8
 266              		@ sp needed
 267 0016 80BD     		pop	{r7, pc}
 268              		.cfi_endproc
 269              	.LFE7:
 270              		.size	CyDmaSetInterruptVector, .-CyDmaSetInterruptVector
 271              		.section	.text.CyDmaGetInterruptSource,"ax",%progbits
 272              		.align	2
 273              		.global	CyDmaGetInterruptSource
 274              		.code	16
 275              		.thumb_func
 276              		.type	CyDmaGetInterruptSource, %function
 277              	CyDmaGetInterruptSource:
 278              	.LFB8:
 230:.\Generated_Source\PSoC4/CyDMA.c **** 
 231:.\Generated_Source\PSoC4/CyDMA.c **** 
 232:.\Generated_Source\PSoC4/CyDMA.c **** /*******************************************************************************
 233:.\Generated_Source\PSoC4/CyDMA.c **** * Function Name: CyDmaGetInterruptSource
 234:.\Generated_Source\PSoC4/CyDMA.c **** ********************************************************************************
 235:.\Generated_Source\PSoC4/CyDMA.c **** *
ARM GAS  C:\Users\Matty\AppData\Local\Temp\ccXs7IQl.s 			page 10


 236:.\Generated_Source\PSoC4/CyDMA.c **** * Summary:
 237:.\Generated_Source\PSoC4/CyDMA.c **** *  Returns the bit field of which channels generated an interrupt request.
 238:.\Generated_Source\PSoC4/CyDMA.c **** *
 239:.\Generated_Source\PSoC4/CyDMA.c **** * Parameters:
 240:.\Generated_Source\PSoC4/CyDMA.c **** *  None.
 241:.\Generated_Source\PSoC4/CyDMA.c **** *                   
 242:.\Generated_Source\PSoC4/CyDMA.c **** * Return:
 243:.\Generated_Source\PSoC4/CyDMA.c **** *  Bit filed of which channels generated an interrupt request.
 244:.\Generated_Source\PSoC4/CyDMA.c **** *
 245:.\Generated_Source\PSoC4/CyDMA.c **** *******************************************************************************/
 246:.\Generated_Source\PSoC4/CyDMA.c **** uint32 CyDmaGetInterruptSource(void)
 247:.\Generated_Source\PSoC4/CyDMA.c **** {
 279              		.loc 1 247 0
 280              		.cfi_startproc
 281 0000 80B5     		push	{r7, lr}
 282              		.cfi_def_cfa_offset 8
 283              		.cfi_offset 7, -8
 284              		.cfi_offset 14, -4
 285 0002 00AF     		add	r7, sp, #0
 286              		.cfi_def_cfa_register 7
 248:.\Generated_Source\PSoC4/CyDMA.c ****     return (CYDMA_INTR_REG);
 287              		.loc 1 248 0
 288 0004 024B     		ldr	r3, .L27
 289 0006 1B68     		ldr	r3, [r3]
 249:.\Generated_Source\PSoC4/CyDMA.c **** }
 290              		.loc 1 249 0
 291 0008 181C     		mov	r0, r3
 292 000a BD46     		mov	sp, r7
 293              		@ sp needed
 294 000c 80BD     		pop	{r7, pc}
 295              	.L28:
 296 000e C046     		.align	2
 297              	.L27:
 298 0010 F0171040 		.word	1074796528
 299              		.cfi_endproc
 300              	.LFE8:
 301              		.size	CyDmaGetInterruptSource, .-CyDmaGetInterruptSource
 302              		.section	.text.CyDmaClearInterruptSource,"ax",%progbits
 303              		.align	2
 304              		.global	CyDmaClearInterruptSource
 305              		.code	16
 306              		.thumb_func
 307              		.type	CyDmaClearInterruptSource, %function
 308              	CyDmaClearInterruptSource:
 309              	.LFB9:
 250:.\Generated_Source\PSoC4/CyDMA.c **** 
 251:.\Generated_Source\PSoC4/CyDMA.c **** 
 252:.\Generated_Source\PSoC4/CyDMA.c **** /*******************************************************************************
 253:.\Generated_Source\PSoC4/CyDMA.c **** * Function Name: CyDmaClearInterruptSource
 254:.\Generated_Source\PSoC4/CyDMA.c **** ********************************************************************************
 255:.\Generated_Source\PSoC4/CyDMA.c **** *
 256:.\Generated_Source\PSoC4/CyDMA.c **** * Summary:
 257:.\Generated_Source\PSoC4/CyDMA.c **** *  Clears the pending interrupts.
 258:.\Generated_Source\PSoC4/CyDMA.c **** *
 259:.\Generated_Source\PSoC4/CyDMA.c **** * Parameters:
 260:.\Generated_Source\PSoC4/CyDMA.c **** *  interruptMask: Bit field of interrupts to clear.
 261:.\Generated_Source\PSoC4/CyDMA.c **** *                   
ARM GAS  C:\Users\Matty\AppData\Local\Temp\ccXs7IQl.s 			page 11


 262:.\Generated_Source\PSoC4/CyDMA.c **** * Return:
 263:.\Generated_Source\PSoC4/CyDMA.c **** *  None.
 264:.\Generated_Source\PSoC4/CyDMA.c **** *
 265:.\Generated_Source\PSoC4/CyDMA.c **** *******************************************************************************/
 266:.\Generated_Source\PSoC4/CyDMA.c **** void CyDmaClearInterruptSource(uint32 interruptMask)
 267:.\Generated_Source\PSoC4/CyDMA.c **** {
 310              		.loc 1 267 0
 311              		.cfi_startproc
 312 0000 80B5     		push	{r7, lr}
 313              		.cfi_def_cfa_offset 8
 314              		.cfi_offset 7, -8
 315              		.cfi_offset 14, -4
 316 0002 82B0     		sub	sp, sp, #8
 317              		.cfi_def_cfa_offset 16
 318 0004 00AF     		add	r7, sp, #0
 319              		.cfi_def_cfa_register 7
 320 0006 7860     		str	r0, [r7, #4]
 268:.\Generated_Source\PSoC4/CyDMA.c ****     CYDMA_INTR_REG = interruptMask;
 321              		.loc 1 268 0
 322 0008 024B     		ldr	r3, .L30
 323 000a 7A68     		ldr	r2, [r7, #4]
 324 000c 1A60     		str	r2, [r3]
 269:.\Generated_Source\PSoC4/CyDMA.c **** }
 325              		.loc 1 269 0
 326 000e BD46     		mov	sp, r7
 327 0010 02B0     		add	sp, sp, #8
 328              		@ sp needed
 329 0012 80BD     		pop	{r7, pc}
 330              	.L31:
 331              		.align	2
 332              	.L30:
 333 0014 F0171040 		.word	1074796528
 334              		.cfi_endproc
 335              	.LFE9:
 336              		.size	CyDmaClearInterruptSource, .-CyDmaClearInterruptSource
 337              		.section	.text.CyDmaSetInterruptSourceMask,"ax",%progbits
 338              		.align	2
 339              		.global	CyDmaSetInterruptSourceMask
 340              		.code	16
 341              		.thumb_func
 342              		.type	CyDmaSetInterruptSourceMask, %function
 343              	CyDmaSetInterruptSourceMask:
 344              	.LFB10:
 270:.\Generated_Source\PSoC4/CyDMA.c **** 
 271:.\Generated_Source\PSoC4/CyDMA.c **** 
 272:.\Generated_Source\PSoC4/CyDMA.c **** /*******************************************************************************
 273:.\Generated_Source\PSoC4/CyDMA.c **** * Function Name: CyDmaSetInterruptSourceMask
 274:.\Generated_Source\PSoC4/CyDMA.c **** ********************************************************************************
 275:.\Generated_Source\PSoC4/CyDMA.c **** *
 276:.\Generated_Source\PSoC4/CyDMA.c **** * Summary:
 277:.\Generated_Source\PSoC4/CyDMA.c **** *  Sets mask for interrupt source.
 278:.\Generated_Source\PSoC4/CyDMA.c **** *
 279:.\Generated_Source\PSoC4/CyDMA.c **** * Parameters:
 280:.\Generated_Source\PSoC4/CyDMA.c **** *  interruptmask: Mask corresponding to interrupt bit field.
 281:.\Generated_Source\PSoC4/CyDMA.c **** *                   
 282:.\Generated_Source\PSoC4/CyDMA.c **** * Return:
 283:.\Generated_Source\PSoC4/CyDMA.c **** *  None.
ARM GAS  C:\Users\Matty\AppData\Local\Temp\ccXs7IQl.s 			page 12


 284:.\Generated_Source\PSoC4/CyDMA.c **** *
 285:.\Generated_Source\PSoC4/CyDMA.c **** *******************************************************************************/
 286:.\Generated_Source\PSoC4/CyDMA.c **** void CyDmaSetInterruptSourceMask(uint32 interruptMask)
 287:.\Generated_Source\PSoC4/CyDMA.c **** {
 345              		.loc 1 287 0
 346              		.cfi_startproc
 347 0000 80B5     		push	{r7, lr}
 348              		.cfi_def_cfa_offset 8
 349              		.cfi_offset 7, -8
 350              		.cfi_offset 14, -4
 351 0002 82B0     		sub	sp, sp, #8
 352              		.cfi_def_cfa_offset 16
 353 0004 00AF     		add	r7, sp, #0
 354              		.cfi_def_cfa_register 7
 355 0006 7860     		str	r0, [r7, #4]
 288:.\Generated_Source\PSoC4/CyDMA.c ****     CYDMA_INTR_MASK_REG = interruptMask;
 356              		.loc 1 288 0
 357 0008 024B     		ldr	r3, .L33
 358 000a 7A68     		ldr	r2, [r7, #4]
 359 000c 1A60     		str	r2, [r3]
 289:.\Generated_Source\PSoC4/CyDMA.c **** }
 360              		.loc 1 289 0
 361 000e BD46     		mov	sp, r7
 362 0010 02B0     		add	sp, sp, #8
 363              		@ sp needed
 364 0012 80BD     		pop	{r7, pc}
 365              	.L34:
 366              		.align	2
 367              	.L33:
 368 0014 F8171040 		.word	1074796536
 369              		.cfi_endproc
 370              	.LFE10:
 371              		.size	CyDmaSetInterruptSourceMask, .-CyDmaSetInterruptSourceMask
 372              		.section	.text.CyDmaGetInterruptSourceMask,"ax",%progbits
 373              		.align	2
 374              		.global	CyDmaGetInterruptSourceMask
 375              		.code	16
 376              		.thumb_func
 377              		.type	CyDmaGetInterruptSourceMask, %function
 378              	CyDmaGetInterruptSourceMask:
 379              	.LFB11:
 290:.\Generated_Source\PSoC4/CyDMA.c **** 
 291:.\Generated_Source\PSoC4/CyDMA.c **** 
 292:.\Generated_Source\PSoC4/CyDMA.c **** /*******************************************************************************
 293:.\Generated_Source\PSoC4/CyDMA.c **** * Function Name: CyDmaGetInterruptSourceMask
 294:.\Generated_Source\PSoC4/CyDMA.c **** ********************************************************************************
 295:.\Generated_Source\PSoC4/CyDMA.c **** *
 296:.\Generated_Source\PSoC4/CyDMA.c **** * Summary:
 297:.\Generated_Source\PSoC4/CyDMA.c **** *  Returns mask for interrupt source.
 298:.\Generated_Source\PSoC4/CyDMA.c **** *
 299:.\Generated_Source\PSoC4/CyDMA.c **** * Parameters:
 300:.\Generated_Source\PSoC4/CyDMA.c **** *  None.
 301:.\Generated_Source\PSoC4/CyDMA.c **** *                   
 302:.\Generated_Source\PSoC4/CyDMA.c **** * Return:
 303:.\Generated_Source\PSoC4/CyDMA.c **** *  Mask corresponding to interrupt bit field.
 304:.\Generated_Source\PSoC4/CyDMA.c **** *
 305:.\Generated_Source\PSoC4/CyDMA.c **** *******************************************************************************/
ARM GAS  C:\Users\Matty\AppData\Local\Temp\ccXs7IQl.s 			page 13


 306:.\Generated_Source\PSoC4/CyDMA.c **** uint32 CyDmaGetInterruptSourceMask(void)
 307:.\Generated_Source\PSoC4/CyDMA.c **** {
 380              		.loc 1 307 0
 381              		.cfi_startproc
 382 0000 80B5     		push	{r7, lr}
 383              		.cfi_def_cfa_offset 8
 384              		.cfi_offset 7, -8
 385              		.cfi_offset 14, -4
 386 0002 00AF     		add	r7, sp, #0
 387              		.cfi_def_cfa_register 7
 308:.\Generated_Source\PSoC4/CyDMA.c ****     return (CYDMA_INTR_MASK_REG);
 388              		.loc 1 308 0
 389 0004 024B     		ldr	r3, .L37
 390 0006 1B68     		ldr	r3, [r3]
 309:.\Generated_Source\PSoC4/CyDMA.c **** }
 391              		.loc 1 309 0
 392 0008 181C     		mov	r0, r3
 393 000a BD46     		mov	sp, r7
 394              		@ sp needed
 395 000c 80BD     		pop	{r7, pc}
 396              	.L38:
 397 000e C046     		.align	2
 398              	.L37:
 399 0010 F8171040 		.word	1074796536
 400              		.cfi_endproc
 401              	.LFE11:
 402              		.size	CyDmaGetInterruptSourceMask, .-CyDmaGetInterruptSourceMask
 403              		.section	.text.CyDmaGetInterruptSourceMasked,"ax",%progbits
 404              		.align	2
 405              		.global	CyDmaGetInterruptSourceMasked
 406              		.code	16
 407              		.thumb_func
 408              		.type	CyDmaGetInterruptSourceMasked, %function
 409              	CyDmaGetInterruptSourceMasked:
 410              	.LFB12:
 310:.\Generated_Source\PSoC4/CyDMA.c **** 
 311:.\Generated_Source\PSoC4/CyDMA.c **** 
 312:.\Generated_Source\PSoC4/CyDMA.c **** /*******************************************************************************
 313:.\Generated_Source\PSoC4/CyDMA.c **** * Function Name: CyDmaGetInterruptSourceMasked
 314:.\Generated_Source\PSoC4/CyDMA.c **** ********************************************************************************
 315:.\Generated_Source\PSoC4/CyDMA.c **** *
 316:.\Generated_Source\PSoC4/CyDMA.c **** * Summary:
 317:.\Generated_Source\PSoC4/CyDMA.c **** *  Returns the bitwise AND of the interrupt source and the interrupt mask.
 318:.\Generated_Source\PSoC4/CyDMA.c **** *
 319:.\Generated_Source\PSoC4/CyDMA.c **** * Parameters:
 320:.\Generated_Source\PSoC4/CyDMA.c **** *  None.
 321:.\Generated_Source\PSoC4/CyDMA.c **** *                   
 322:.\Generated_Source\PSoC4/CyDMA.c **** * Return:
 323:.\Generated_Source\PSoC4/CyDMA.c **** *  Bitwise AND of the interrupt source and the interrupt mask.
 324:.\Generated_Source\PSoC4/CyDMA.c **** *
 325:.\Generated_Source\PSoC4/CyDMA.c **** *******************************************************************************/
 326:.\Generated_Source\PSoC4/CyDMA.c **** uint32 CyDmaGetInterruptSourceMasked(void)
 327:.\Generated_Source\PSoC4/CyDMA.c **** {
 411              		.loc 1 327 0
 412              		.cfi_startproc
 413 0000 80B5     		push	{r7, lr}
 414              		.cfi_def_cfa_offset 8
ARM GAS  C:\Users\Matty\AppData\Local\Temp\ccXs7IQl.s 			page 14


 415              		.cfi_offset 7, -8
 416              		.cfi_offset 14, -4
 417 0002 00AF     		add	r7, sp, #0
 418              		.cfi_def_cfa_register 7
 328:.\Generated_Source\PSoC4/CyDMA.c ****     return (CYDMA_INTR_MASKED_REG);
 419              		.loc 1 328 0
 420 0004 024B     		ldr	r3, .L41
 421 0006 1B68     		ldr	r3, [r3]
 329:.\Generated_Source\PSoC4/CyDMA.c **** }
 422              		.loc 1 329 0
 423 0008 181C     		mov	r0, r3
 424 000a BD46     		mov	sp, r7
 425              		@ sp needed
 426 000c 80BD     		pop	{r7, pc}
 427              	.L42:
 428 000e C046     		.align	2
 429              	.L41:
 430 0010 FC171040 		.word	1074796540
 431              		.cfi_endproc
 432              	.LFE12:
 433              		.size	CyDmaGetInterruptSourceMasked, .-CyDmaGetInterruptSourceMasked
 434              		.section	.text.CyDmaSetInterruptCallback,"ax",%progbits
 435              		.align	2
 436              		.global	CyDmaSetInterruptCallback
 437              		.code	16
 438              		.thumb_func
 439              		.type	CyDmaSetInterruptCallback, %function
 440              	CyDmaSetInterruptCallback:
 441              	.LFB13:
 330:.\Generated_Source\PSoC4/CyDMA.c **** 
 331:.\Generated_Source\PSoC4/CyDMA.c **** 
 332:.\Generated_Source\PSoC4/CyDMA.c **** /*******************************************************************************
 333:.\Generated_Source\PSoC4/CyDMA.c **** * Function Name: CyDmaSetInterruptCallback
 334:.\Generated_Source\PSoC4/CyDMA.c **** ********************************************************************************
 335:.\Generated_Source\PSoC4/CyDMA.c **** *
 336:.\Generated_Source\PSoC4/CyDMA.c **** * Summary:
 337:.\Generated_Source\PSoC4/CyDMA.c **** *  Sets a user defined callback function to be called by the DMA interrupt. The
 338:.\Generated_Source\PSoC4/CyDMA.c **** *  function should contain code to process the interrupt request for the 
 339:.\Generated_Source\PSoC4/CyDMA.c **** *  associated DMA channel.
 340:.\Generated_Source\PSoC4/CyDMA.c **** *
 341:.\Generated_Source\PSoC4/CyDMA.c **** * Parameters:
 342:.\Generated_Source\PSoC4/CyDMA.c **** *  channel:  Channel used by this function.
 343:.\Generated_Source\PSoC4/CyDMA.c **** *  callback: Pointer to the user defined callback function.
 344:.\Generated_Source\PSoC4/CyDMA.c **** *
 345:.\Generated_Source\PSoC4/CyDMA.c **** * Return:
 346:.\Generated_Source\PSoC4/CyDMA.c **** *  Pointer to the function previously set for the specified channel. 
 347:.\Generated_Source\PSoC4/CyDMA.c **** *
 348:.\Generated_Source\PSoC4/CyDMA.c **** *******************************************************************************/
 349:.\Generated_Source\PSoC4/CyDMA.c **** cydma_callback_t CyDmaSetInterruptCallback(int32 channel, cydma_callback_t callback)
 350:.\Generated_Source\PSoC4/CyDMA.c **** {
 442              		.loc 1 350 0
 443              		.cfi_startproc
 444 0000 80B5     		push	{r7, lr}
 445              		.cfi_def_cfa_offset 8
 446              		.cfi_offset 7, -8
 447              		.cfi_offset 14, -4
 448 0002 84B0     		sub	sp, sp, #16
ARM GAS  C:\Users\Matty\AppData\Local\Temp\ccXs7IQl.s 			page 15


 449              		.cfi_def_cfa_offset 24
 450 0004 00AF     		add	r7, sp, #0
 451              		.cfi_def_cfa_register 7
 452 0006 7860     		str	r0, [r7, #4]
 453 0008 3960     		str	r1, [r7]
 351:.\Generated_Source\PSoC4/CyDMA.c ****     cydma_callback_t prevCallback;
 352:.\Generated_Source\PSoC4/CyDMA.c **** 
 353:.\Generated_Source\PSoC4/CyDMA.c ****     CYASSERT((channel >= 0) && (channel < CYDMA_CH_NR));
 454              		.loc 1 353 0
 455 000a 7B68     		ldr	r3, [r7, #4]
 456 000c 002B     		cmp	r3, #0
 457 000e 04DB     		blt	.L44
 458              		.loc 1 353 0 is_stmt 0 discriminator 1
 459 0010 7B68     		ldr	r3, [r7, #4]
 460 0012 072B     		cmp	r3, #7
 461 0014 01DC     		bgt	.L44
 462              		.loc 1 353 0 discriminator 3
 463 0016 0123     		mov	r3, #1
 464 0018 00E0     		b	.L45
 465              	.L44:
 466              		.loc 1 353 0 discriminator 2
 467 001a 0023     		mov	r3, #0
 468              	.L45:
 469              		.loc 1 353 0 discriminator 4
 470 001c 002B     		cmp	r3, #0
 471 001e 02D1     		bne	.L46
 472              		.loc 1 353 0 discriminator 1
 473 0020 0020     		mov	r0, #0
 474 0022 FFF7FEFF 		bl	CyHalt
 475              	.L46:
 354:.\Generated_Source\PSoC4/CyDMA.c **** 
 355:.\Generated_Source\PSoC4/CyDMA.c ****     prevCallback = CyDmaInterruptCallback[channel];
 476              		.loc 1 355 0 is_stmt 1
 477 0026 074B     		ldr	r3, .L48
 478 0028 7A68     		ldr	r2, [r7, #4]
 479 002a 9200     		lsl	r2, r2, #2
 480 002c D358     		ldr	r3, [r2, r3]
 481 002e FB60     		str	r3, [r7, #12]
 356:.\Generated_Source\PSoC4/CyDMA.c ****     CyDmaInterruptCallback[channel] = callback;
 482              		.loc 1 356 0
 483 0030 044B     		ldr	r3, .L48
 484 0032 7A68     		ldr	r2, [r7, #4]
 485 0034 9200     		lsl	r2, r2, #2
 486 0036 3968     		ldr	r1, [r7]
 487 0038 D150     		str	r1, [r2, r3]
 357:.\Generated_Source\PSoC4/CyDMA.c ****     return (prevCallback);
 488              		.loc 1 357 0
 489 003a FB68     		ldr	r3, [r7, #12]
 358:.\Generated_Source\PSoC4/CyDMA.c **** }
 490              		.loc 1 358 0
 491 003c 181C     		mov	r0, r3
 492 003e BD46     		mov	sp, r7
 493 0040 04B0     		add	sp, sp, #16
 494              		@ sp needed
 495 0042 80BD     		pop	{r7, pc}
 496              	.L49:
 497              		.align	2
ARM GAS  C:\Users\Matty\AppData\Local\Temp\ccXs7IQl.s 			page 16


 498              	.L48:
 499 0044 00000000 		.word	CyDmaInterruptCallback
 500              		.cfi_endproc
 501              	.LFE13:
 502              		.size	CyDmaSetInterruptCallback, .-CyDmaSetInterruptCallback
 503              		.section	.text.CyDmaGetInterruptCallback,"ax",%progbits
 504              		.align	2
 505              		.global	CyDmaGetInterruptCallback
 506              		.code	16
 507              		.thumb_func
 508              		.type	CyDmaGetInterruptCallback, %function
 509              	CyDmaGetInterruptCallback:
 510              	.LFB14:
 359:.\Generated_Source\PSoC4/CyDMA.c **** 
 360:.\Generated_Source\PSoC4/CyDMA.c **** 
 361:.\Generated_Source\PSoC4/CyDMA.c **** /*******************************************************************************
 362:.\Generated_Source\PSoC4/CyDMA.c **** * Function Name: CyDmaGetInterruptCallback
 363:.\Generated_Source\PSoC4/CyDMA.c **** ********************************************************************************
 364:.\Generated_Source\PSoC4/CyDMA.c **** *
 365:.\Generated_Source\PSoC4/CyDMA.c **** * Summary:
 366:.\Generated_Source\PSoC4/CyDMA.c **** *  Returns the pointer to the interrupt callback function for the specified DMA
 367:.\Generated_Source\PSoC4/CyDMA.c **** *  channel.
 368:.\Generated_Source\PSoC4/CyDMA.c **** *
 369:.\Generated_Source\PSoC4/CyDMA.c **** * Parameters:
 370:.\Generated_Source\PSoC4/CyDMA.c **** *  channel: Channel used by this function.
 371:.\Generated_Source\PSoC4/CyDMA.c **** *
 372:.\Generated_Source\PSoC4/CyDMA.c **** * Return:
 373:.\Generated_Source\PSoC4/CyDMA.c **** *  Callback function pointer for the specified channel.
 374:.\Generated_Source\PSoC4/CyDMA.c **** *
 375:.\Generated_Source\PSoC4/CyDMA.c **** *******************************************************************************/
 376:.\Generated_Source\PSoC4/CyDMA.c **** cydma_callback_t CyDmaGetInterruptCallback(int32 channel)
 377:.\Generated_Source\PSoC4/CyDMA.c **** {
 511              		.loc 1 377 0
 512              		.cfi_startproc
 513 0000 80B5     		push	{r7, lr}
 514              		.cfi_def_cfa_offset 8
 515              		.cfi_offset 7, -8
 516              		.cfi_offset 14, -4
 517 0002 82B0     		sub	sp, sp, #8
 518              		.cfi_def_cfa_offset 16
 519 0004 00AF     		add	r7, sp, #0
 520              		.cfi_def_cfa_register 7
 521 0006 7860     		str	r0, [r7, #4]
 378:.\Generated_Source\PSoC4/CyDMA.c ****     CYASSERT((channel >= 0) && (channel < CYDMA_CH_NR));
 522              		.loc 1 378 0
 523 0008 7B68     		ldr	r3, [r7, #4]
 524 000a 002B     		cmp	r3, #0
 525 000c 04DB     		blt	.L51
 526              		.loc 1 378 0 is_stmt 0 discriminator 1
 527 000e 7B68     		ldr	r3, [r7, #4]
 528 0010 072B     		cmp	r3, #7
 529 0012 01DC     		bgt	.L51
 530              		.loc 1 378 0 discriminator 3
 531 0014 0123     		mov	r3, #1
 532 0016 00E0     		b	.L52
 533              	.L51:
 534              		.loc 1 378 0 discriminator 2
ARM GAS  C:\Users\Matty\AppData\Local\Temp\ccXs7IQl.s 			page 17


 535 0018 0023     		mov	r3, #0
 536              	.L52:
 537              		.loc 1 378 0 discriminator 4
 538 001a 002B     		cmp	r3, #0
 539 001c 02D1     		bne	.L53
 540              		.loc 1 378 0 discriminator 1
 541 001e 0020     		mov	r0, #0
 542 0020 FFF7FEFF 		bl	CyHalt
 543              	.L53:
 379:.\Generated_Source\PSoC4/CyDMA.c ****     
 380:.\Generated_Source\PSoC4/CyDMA.c ****     return (CyDmaInterruptCallback[channel]);
 544              		.loc 1 380 0 is_stmt 1
 545 0024 034B     		ldr	r3, .L55
 546 0026 7A68     		ldr	r2, [r7, #4]
 547 0028 9200     		lsl	r2, r2, #2
 548 002a D358     		ldr	r3, [r2, r3]
 381:.\Generated_Source\PSoC4/CyDMA.c **** }
 549              		.loc 1 381 0
 550 002c 181C     		mov	r0, r3
 551 002e BD46     		mov	sp, r7
 552 0030 02B0     		add	sp, sp, #8
 553              		@ sp needed
 554 0032 80BD     		pop	{r7, pc}
 555              	.L56:
 556              		.align	2
 557              	.L55:
 558 0034 00000000 		.word	CyDmaInterruptCallback
 559              		.cfi_endproc
 560              	.LFE14:
 561              		.size	CyDmaGetInterruptCallback, .-CyDmaGetInterruptCallback
 562              		.section	.text.CyDmaInterrupt,"ax",%progbits
 563              		.align	2
 564              		.global	CyDmaInterrupt
 565              		.code	16
 566              		.thumb_func
 567              		.type	CyDmaInterrupt, %function
 568              	CyDmaInterrupt:
 569              	.LFB15:
 382:.\Generated_Source\PSoC4/CyDMA.c **** 
 383:.\Generated_Source\PSoC4/CyDMA.c **** 
 384:.\Generated_Source\PSoC4/CyDMA.c **** /*******************************************************************************
 385:.\Generated_Source\PSoC4/CyDMA.c **** * Function Name: CyDmaInterrupt
 386:.\Generated_Source\PSoC4/CyDMA.c **** ********************************************************************************
 387:.\Generated_Source\PSoC4/CyDMA.c **** *
 388:.\Generated_Source\PSoC4/CyDMA.c **** * Summary:
 389:.\Generated_Source\PSoC4/CyDMA.c **** *  The default ISR for DMA interrupts. The handler checks which DMA channel has
 390:.\Generated_Source\PSoC4/CyDMA.c **** *  triggered the interrupt and calls the user defined callback function.
 391:.\Generated_Source\PSoC4/CyDMA.c **** *  The callback function is set using CyDmaSetInteruptCallback() API.
 392:.\Generated_Source\PSoC4/CyDMA.c **** *
 393:.\Generated_Source\PSoC4/CyDMA.c **** * Parameters:
 394:.\Generated_Source\PSoC4/CyDMA.c **** *  None.
 395:.\Generated_Source\PSoC4/CyDMA.c **** *
 396:.\Generated_Source\PSoC4/CyDMA.c **** * Return:
 397:.\Generated_Source\PSoC4/CyDMA.c **** *  None.
 398:.\Generated_Source\PSoC4/CyDMA.c **** *
 399:.\Generated_Source\PSoC4/CyDMA.c **** * Side Effects:
 400:.\Generated_Source\PSoC4/CyDMA.c **** *  This function clears the pending interrupts.
ARM GAS  C:\Users\Matty\AppData\Local\Temp\ccXs7IQl.s 			page 18


 401:.\Generated_Source\PSoC4/CyDMA.c **** *
 402:.\Generated_Source\PSoC4/CyDMA.c **** *******************************************************************************/
 403:.\Generated_Source\PSoC4/CyDMA.c **** CY_ISR(CyDmaInterrupt)
 404:.\Generated_Source\PSoC4/CyDMA.c **** {
 570              		.loc 1 404 0
 571              		.cfi_startproc
 572 0000 80B5     		push	{r7, lr}
 573              		.cfi_def_cfa_offset 8
 574              		.cfi_offset 7, -8
 575              		.cfi_offset 14, -4
 576 0002 82B0     		sub	sp, sp, #8
 577              		.cfi_def_cfa_offset 16
 578 0004 00AF     		add	r7, sp, #0
 579              		.cfi_def_cfa_register 7
 405:.\Generated_Source\PSoC4/CyDMA.c ****     uint32 intr;
 406:.\Generated_Source\PSoC4/CyDMA.c ****     uint32 cbIdx = 0u;
 580              		.loc 1 406 0
 581 0006 0023     		mov	r3, #0
 582 0008 3B60     		str	r3, [r7]
 407:.\Generated_Source\PSoC4/CyDMA.c **** 
 408:.\Generated_Source\PSoC4/CyDMA.c ****     /* Get interrupt source. */
 409:.\Generated_Source\PSoC4/CyDMA.c ****     intr = CYDMA_INTR_MASKED_REG;
 583              		.loc 1 409 0
 584 000a 0E4B     		ldr	r3, .L61
 585 000c 1B68     		ldr	r3, [r3]
 586 000e 7B60     		str	r3, [r7, #4]
 410:.\Generated_Source\PSoC4/CyDMA.c **** 
 411:.\Generated_Source\PSoC4/CyDMA.c ****     /* Clear pending interrupts. */
 412:.\Generated_Source\PSoC4/CyDMA.c ****     CYDMA_INTR_REG = intr;
 587              		.loc 1 412 0
 588 0010 0D4B     		ldr	r3, .L61+4
 589 0012 7A68     		ldr	r2, [r7, #4]
 590 0014 1A60     		str	r2, [r3]
 413:.\Generated_Source\PSoC4/CyDMA.c **** 
 414:.\Generated_Source\PSoC4/CyDMA.c ****     /* Call user defined callback functions for triggered interrupt sources. */
 415:.\Generated_Source\PSoC4/CyDMA.c ****     while(0u != intr)
 591              		.loc 1 415 0
 592 0016 0EE0     		b	.L58
 593              	.L60:
 416:.\Generated_Source\PSoC4/CyDMA.c ****     {
 417:.\Generated_Source\PSoC4/CyDMA.c ****         if(0u != (intr & 0x1u))
 594              		.loc 1 417 0
 595 0018 7A68     		ldr	r2, [r7, #4]
 596 001a 0123     		mov	r3, #1
 597 001c 1340     		and	r3, r2
 598 001e 04D0     		beq	.L59
 418:.\Generated_Source\PSoC4/CyDMA.c ****         {
 419:.\Generated_Source\PSoC4/CyDMA.c ****             CyDmaInterruptCallback[cbIdx]();
 599              		.loc 1 419 0
 600 0020 0A4B     		ldr	r3, .L61+8
 601 0022 3A68     		ldr	r2, [r7]
 602 0024 9200     		lsl	r2, r2, #2
 603 0026 D358     		ldr	r3, [r2, r3]
 604 0028 9847     		blx	r3
 605              	.L59:
 420:.\Generated_Source\PSoC4/CyDMA.c ****         }
 421:.\Generated_Source\PSoC4/CyDMA.c ****         intr >>= 1;
ARM GAS  C:\Users\Matty\AppData\Local\Temp\ccXs7IQl.s 			page 19


 606              		.loc 1 421 0
 607 002a 7B68     		ldr	r3, [r7, #4]
 608 002c 5B08     		lsr	r3, r3, #1
 609 002e 7B60     		str	r3, [r7, #4]
 422:.\Generated_Source\PSoC4/CyDMA.c ****         ++cbIdx;
 610              		.loc 1 422 0
 611 0030 3B68     		ldr	r3, [r7]
 612 0032 0133     		add	r3, r3, #1
 613 0034 3B60     		str	r3, [r7]
 614              	.L58:
 415:.\Generated_Source\PSoC4/CyDMA.c ****     while(0u != intr)
 615              		.loc 1 415 0 discriminator 1
 616 0036 7B68     		ldr	r3, [r7, #4]
 617 0038 002B     		cmp	r3, #0
 618 003a EDD1     		bne	.L60
 423:.\Generated_Source\PSoC4/CyDMA.c ****     }
 424:.\Generated_Source\PSoC4/CyDMA.c **** }
 619              		.loc 1 424 0
 620 003c BD46     		mov	sp, r7
 621 003e 02B0     		add	sp, sp, #8
 622              		@ sp needed
 623 0040 80BD     		pop	{r7, pc}
 624              	.L62:
 625 0042 C046     		.align	2
 626              	.L61:
 627 0044 FC171040 		.word	1074796540
 628 0048 F0171040 		.word	1074796528
 629 004c 00000000 		.word	CyDmaInterruptCallback
 630              		.cfi_endproc
 631              	.LFE15:
 632              		.size	CyDmaInterrupt, .-CyDmaInterrupt
 633              		.section	.text.CyDmaDefaultInterruptCallback,"ax",%progbits
 634              		.align	2
 635              		.code	16
 636              		.thumb_func
 637              		.type	CyDmaDefaultInterruptCallback, %function
 638              	CyDmaDefaultInterruptCallback:
 639              	.LFB16:
 425:.\Generated_Source\PSoC4/CyDMA.c **** 
 426:.\Generated_Source\PSoC4/CyDMA.c **** 
 427:.\Generated_Source\PSoC4/CyDMA.c **** /*******************************************************************************
 428:.\Generated_Source\PSoC4/CyDMA.c **** * Function Name: CyDmaDefaultInterruptCallback
 429:.\Generated_Source\PSoC4/CyDMA.c **** ********************************************************************************
 430:.\Generated_Source\PSoC4/CyDMA.c **** *
 431:.\Generated_Source\PSoC4/CyDMA.c **** * Summary:
 432:.\Generated_Source\PSoC4/CyDMA.c **** *  This function is invoked when the user defined callback function is undefined
 433:.\Generated_Source\PSoC4/CyDMA.c **** *  for the interrupt source.
 434:.\Generated_Source\PSoC4/CyDMA.c **** *
 435:.\Generated_Source\PSoC4/CyDMA.c **** * Parameters:
 436:.\Generated_Source\PSoC4/CyDMA.c **** *  None.
 437:.\Generated_Source\PSoC4/CyDMA.c **** *
 438:.\Generated_Source\PSoC4/CyDMA.c **** * Return:
 439:.\Generated_Source\PSoC4/CyDMA.c **** *  None.
 440:.\Generated_Source\PSoC4/CyDMA.c **** *
 441:.\Generated_Source\PSoC4/CyDMA.c **** *******************************************************************************/
 442:.\Generated_Source\PSoC4/CyDMA.c **** static void CyDmaDefaultInterruptCallback(void)
 443:.\Generated_Source\PSoC4/CyDMA.c **** {
ARM GAS  C:\Users\Matty\AppData\Local\Temp\ccXs7IQl.s 			page 20


 640              		.loc 1 443 0
 641              		.cfi_startproc
 642 0000 80B5     		push	{r7, lr}
 643              		.cfi_def_cfa_offset 8
 644              		.cfi_offset 7, -8
 645              		.cfi_offset 14, -4
 646 0002 00AF     		add	r7, sp, #0
 647              		.cfi_def_cfa_register 7
 444:.\Generated_Source\PSoC4/CyDMA.c ****     /* Halt CPU in debug mode. We get here because there is no user defined
 445:.\Generated_Source\PSoC4/CyDMA.c ****     * callback function for the interrupt source. You should either set a
 446:.\Generated_Source\PSoC4/CyDMA.c ****     * callback function or disable generating an interrupt from this
 447:.\Generated_Source\PSoC4/CyDMA.c ****     * interrupt source.
 448:.\Generated_Source\PSoC4/CyDMA.c ****     * To set a callback, use the CyDmaSetInterruptCallback() API function.
 449:.\Generated_Source\PSoC4/CyDMA.c ****     * To disable interrupt generation, write '0' to the corresponding bit
 450:.\Generated_Source\PSoC4/CyDMA.c ****     * in the interrupt mask by calling CyDmaSetInterruptSourceMask().
 451:.\Generated_Source\PSoC4/CyDMA.c ****     */
 452:.\Generated_Source\PSoC4/CyDMA.c ****     CYASSERT(0 != 0);
 648              		.loc 1 452 0
 649 0004 0020     		mov	r0, #0
 650 0006 FFF7FEFF 		bl	CyHalt
 453:.\Generated_Source\PSoC4/CyDMA.c **** }
 651              		.loc 1 453 0
 652 000a BD46     		mov	sp, r7
 653              		@ sp needed
 654 000c 80BD     		pop	{r7, pc}
 655              		.cfi_endproc
 656              	.LFE16:
 657              		.size	CyDmaDefaultInterruptCallback, .-CyDmaDefaultInterruptCallback
 658              		.section	.text.CyDmaChAlloc,"ax",%progbits
 659              		.align	2
 660              		.global	CyDmaChAlloc
 661              		.code	16
 662              		.thumb_func
 663              		.type	CyDmaChAlloc, %function
 664              	CyDmaChAlloc:
 665              	.LFB17:
 454:.\Generated_Source\PSoC4/CyDMA.c **** 
 455:.\Generated_Source\PSoC4/CyDMA.c **** 
 456:.\Generated_Source\PSoC4/CyDMA.c **** /*******************************************************************************
 457:.\Generated_Source\PSoC4/CyDMA.c **** * Function Name: CyDmaChAlloc
 458:.\Generated_Source\PSoC4/CyDMA.c **** ********************************************************************************
 459:.\Generated_Source\PSoC4/CyDMA.c **** *
 460:.\Generated_Source\PSoC4/CyDMA.c **** * Summary:
 461:.\Generated_Source\PSoC4/CyDMA.c **** *  Allocates a channel number to use with later DMA functions.
 462:.\Generated_Source\PSoC4/CyDMA.c **** *
 463:.\Generated_Source\PSoC4/CyDMA.c **** * Parameters:
 464:.\Generated_Source\PSoC4/CyDMA.c **** *  None.
 465:.\Generated_Source\PSoC4/CyDMA.c **** *                   
 466:.\Generated_Source\PSoC4/CyDMA.c **** * Return:
 467:.\Generated_Source\PSoC4/CyDMA.c **** *  The allocated channel number. Zero is a valid channel number.
 468:.\Generated_Source\PSoC4/CyDMA.c **** *  CYDMA_INVALID_CHANNEL is returned if there are no channels available.
 469:.\Generated_Source\PSoC4/CyDMA.c **** *
 470:.\Generated_Source\PSoC4/CyDMA.c **** *******************************************************************************/
 471:.\Generated_Source\PSoC4/CyDMA.c **** int32 CyDmaChAlloc(void)
 472:.\Generated_Source\PSoC4/CyDMA.c **** {
 666              		.loc 1 472 0
 667              		.cfi_startproc
ARM GAS  C:\Users\Matty\AppData\Local\Temp\ccXs7IQl.s 			page 21


 668 0000 80B5     		push	{r7, lr}
 669              		.cfi_def_cfa_offset 8
 670              		.cfi_offset 7, -8
 671              		.cfi_offset 14, -4
 672 0002 82B0     		sub	sp, sp, #8
 673              		.cfi_def_cfa_offset 16
 674 0004 00AF     		add	r7, sp, #0
 675              		.cfi_def_cfa_register 7
 473:.\Generated_Source\PSoC4/CyDMA.c ****     int32  channel = CYDMA_CH_NR-1;
 676              		.loc 1 473 0
 677 0006 0723     		mov	r3, #7
 678 0008 7B60     		str	r3, [r7, #4]
 474:.\Generated_Source\PSoC4/CyDMA.c ****     uint32 channelMask = (uint32)(1UL << (CYDMA_CH_NR-1));
 679              		.loc 1 474 0
 680 000a 8023     		mov	r3, #128
 681 000c 3B60     		str	r3, [r7]
 475:.\Generated_Source\PSoC4/CyDMA.c ****     
 476:.\Generated_Source\PSoC4/CyDMA.c ****     while (channel >= 0)
 682              		.loc 1 476 0
 683 000e 11E0     		b	.L65
 684              	.L68:
 477:.\Generated_Source\PSoC4/CyDMA.c ****     {
 478:.\Generated_Source\PSoC4/CyDMA.c ****         if(0u == (CyDmaChannelUsedMask & channelMask))
 685              		.loc 1 478 0
 686 0010 0C4B     		ldr	r3, .L70
 687 0012 1B68     		ldr	r3, [r3]
 688 0014 3A68     		ldr	r2, [r7]
 689 0016 1340     		and	r3, r2
 690 0018 06D1     		bne	.L66
 479:.\Generated_Source\PSoC4/CyDMA.c ****         {
 480:.\Generated_Source\PSoC4/CyDMA.c ****             /* Mark channel as used and exit loop. */ 
 481:.\Generated_Source\PSoC4/CyDMA.c ****             CyDmaChannelUsedMask |= channelMask;
 691              		.loc 1 481 0
 692 001a 0A4B     		ldr	r3, .L70
 693 001c 1A68     		ldr	r2, [r3]
 694 001e 3B68     		ldr	r3, [r7]
 695 0020 1A43     		orr	r2, r3
 696 0022 084B     		ldr	r3, .L70
 697 0024 1A60     		str	r2, [r3]
 482:.\Generated_Source\PSoC4/CyDMA.c ****             break;
 698              		.loc 1 482 0
 699 0026 08E0     		b	.L67
 700              	.L66:
 483:.\Generated_Source\PSoC4/CyDMA.c ****         }
 484:.\Generated_Source\PSoC4/CyDMA.c ****         channelMask >>= 1;
 701              		.loc 1 484 0
 702 0028 3B68     		ldr	r3, [r7]
 703 002a 5B08     		lsr	r3, r3, #1
 704 002c 3B60     		str	r3, [r7]
 485:.\Generated_Source\PSoC4/CyDMA.c ****         --channel;
 705              		.loc 1 485 0
 706 002e 7B68     		ldr	r3, [r7, #4]
 707 0030 013B     		sub	r3, r3, #1
 708 0032 7B60     		str	r3, [r7, #4]
 709              	.L65:
 476:.\Generated_Source\PSoC4/CyDMA.c ****     while (channel >= 0)
 710              		.loc 1 476 0 discriminator 1
ARM GAS  C:\Users\Matty\AppData\Local\Temp\ccXs7IQl.s 			page 22


 711 0034 7B68     		ldr	r3, [r7, #4]
 712 0036 002B     		cmp	r3, #0
 713 0038 EADA     		bge	.L68
 714              	.L67:
 486:.\Generated_Source\PSoC4/CyDMA.c ****     }
 487:.\Generated_Source\PSoC4/CyDMA.c ****     return (channel);
 715              		.loc 1 487 0
 716 003a 7B68     		ldr	r3, [r7, #4]
 488:.\Generated_Source\PSoC4/CyDMA.c **** }
 717              		.loc 1 488 0
 718 003c 181C     		mov	r0, r3
 719 003e BD46     		mov	sp, r7
 720 0040 02B0     		add	sp, sp, #8
 721              		@ sp needed
 722 0042 80BD     		pop	{r7, pc}
 723              	.L71:
 724              		.align	2
 725              	.L70:
 726 0044 00000000 		.word	CyDmaChannelUsedMask
 727              		.cfi_endproc
 728              	.LFE17:
 729              		.size	CyDmaChAlloc, .-CyDmaChAlloc
 730              		.section	.text.CyDmaChFree,"ax",%progbits
 731              		.align	2
 732              		.global	CyDmaChFree
 733              		.code	16
 734              		.thumb_func
 735              		.type	CyDmaChFree, %function
 736              	CyDmaChFree:
 737              	.LFB18:
 489:.\Generated_Source\PSoC4/CyDMA.c **** 
 490:.\Generated_Source\PSoC4/CyDMA.c **** 
 491:.\Generated_Source\PSoC4/CyDMA.c **** /*******************************************************************************
 492:.\Generated_Source\PSoC4/CyDMA.c **** * Function Name: CyDmaChFree
 493:.\Generated_Source\PSoC4/CyDMA.c **** ********************************************************************************
 494:.\Generated_Source\PSoC4/CyDMA.c **** *
 495:.\Generated_Source\PSoC4/CyDMA.c **** * Summary:
 496:.\Generated_Source\PSoC4/CyDMA.c **** *  Frees a channel handle allocated by CyDmaChAlloc(). Channels allocated for
 497:.\Generated_Source\PSoC4/CyDMA.c **** *  DMA instances placed on a schematic cannot be freed.
 498:.\Generated_Source\PSoC4/CyDMA.c **** *
 499:.\Generated_Source\PSoC4/CyDMA.c **** * Parameters:
 500:.\Generated_Source\PSoC4/CyDMA.c **** *  channel: The handle previously returned by CyDmaChAlloc().
 501:.\Generated_Source\PSoC4/CyDMA.c **** *                   
 502:.\Generated_Source\PSoC4/CyDMA.c **** * Return:
 503:.\Generated_Source\PSoC4/CyDMA.c **** *  CYRET_SUCCESS if successful.
 504:.\Generated_Source\PSoC4/CyDMA.c **** *  CYRET_BAD_PARAM if channel is invalid.
 505:.\Generated_Source\PSoC4/CyDMA.c **** *
 506:.\Generated_Source\PSoC4/CyDMA.c **** *******************************************************************************/
 507:.\Generated_Source\PSoC4/CyDMA.c **** cystatus CyDmaChFree(int32 channel)
 508:.\Generated_Source\PSoC4/CyDMA.c **** {
 738              		.loc 1 508 0
 739              		.cfi_startproc
 740 0000 80B5     		push	{r7, lr}
 741              		.cfi_def_cfa_offset 8
 742              		.cfi_offset 7, -8
 743              		.cfi_offset 14, -4
 744 0002 84B0     		sub	sp, sp, #16
ARM GAS  C:\Users\Matty\AppData\Local\Temp\ccXs7IQl.s 			page 23


 745              		.cfi_def_cfa_offset 24
 746 0004 00AF     		add	r7, sp, #0
 747              		.cfi_def_cfa_register 7
 748 0006 7860     		str	r0, [r7, #4]
 509:.\Generated_Source\PSoC4/CyDMA.c ****     uint32   channelMask;
 510:.\Generated_Source\PSoC4/CyDMA.c ****     cystatus result = CYRET_BAD_PARAM;
 749              		.loc 1 510 0
 750 0008 0123     		mov	r3, #1
 751 000a FB60     		str	r3, [r7, #12]
 511:.\Generated_Source\PSoC4/CyDMA.c **** 
 512:.\Generated_Source\PSoC4/CyDMA.c ****     CYASSERT((channel >= 0) && (channel < CYDMA_CH_NR));
 752              		.loc 1 512 0
 753 000c 7B68     		ldr	r3, [r7, #4]
 754 000e 002B     		cmp	r3, #0
 755 0010 04DB     		blt	.L73
 756              		.loc 1 512 0 is_stmt 0 discriminator 1
 757 0012 7B68     		ldr	r3, [r7, #4]
 758 0014 072B     		cmp	r3, #7
 759 0016 01DC     		bgt	.L73
 760              		.loc 1 512 0 discriminator 3
 761 0018 0123     		mov	r3, #1
 762 001a 00E0     		b	.L74
 763              	.L73:
 764              		.loc 1 512 0 discriminator 2
 765 001c 0023     		mov	r3, #0
 766              	.L74:
 767              		.loc 1 512 0 discriminator 4
 768 001e 002B     		cmp	r3, #0
 769 0020 02D1     		bne	.L75
 770              		.loc 1 512 0 discriminator 1
 771 0022 0020     		mov	r0, #0
 772 0024 FFF7FEFF 		bl	CyHalt
 773              	.L75:
 513:.\Generated_Source\PSoC4/CyDMA.c ****     
 514:.\Generated_Source\PSoC4/CyDMA.c ****     channelMask = (uint32)(1UL << channel);
 774              		.loc 1 514 0 is_stmt 1
 775 0028 0122     		mov	r2, #1
 776 002a 7B68     		ldr	r3, [r7, #4]
 777 002c 111C     		mov	r1, r2
 778 002e 9940     		lsl	r1, r1, r3
 779 0030 0B1C     		mov	r3, r1
 780 0032 BB60     		str	r3, [r7, #8]
 515:.\Generated_Source\PSoC4/CyDMA.c **** 
 516:.\Generated_Source\PSoC4/CyDMA.c ****     /* Check against attempt to free channel allocated for DMA instance
 517:.\Generated_Source\PSoC4/CyDMA.c ****     * placed on schematic.
 518:.\Generated_Source\PSoC4/CyDMA.c ****     */
 519:.\Generated_Source\PSoC4/CyDMA.c ****     if(0u == (channelMask & DMA_CHANNELS_USED__MASK))
 520:.\Generated_Source\PSoC4/CyDMA.c ****     {
 521:.\Generated_Source\PSoC4/CyDMA.c ****         CyDmaChannelUsedMask &= (uint32)~channelMask;
 781              		.loc 1 521 0
 782 0034 BB68     		ldr	r3, [r7, #8]
 783 0036 DA43     		mvn	r2, r3
 784 0038 054B     		ldr	r3, .L77
 785 003a 1B68     		ldr	r3, [r3]
 786 003c 1A40     		and	r2, r3
 787 003e 044B     		ldr	r3, .L77
 788 0040 1A60     		str	r2, [r3]
ARM GAS  C:\Users\Matty\AppData\Local\Temp\ccXs7IQl.s 			page 24


 522:.\Generated_Source\PSoC4/CyDMA.c ****         result = CYRET_SUCCESS;
 789              		.loc 1 522 0
 790 0042 0023     		mov	r3, #0
 791 0044 FB60     		str	r3, [r7, #12]
 523:.\Generated_Source\PSoC4/CyDMA.c ****     }
 524:.\Generated_Source\PSoC4/CyDMA.c ****     
 525:.\Generated_Source\PSoC4/CyDMA.c ****     return (result);
 792              		.loc 1 525 0
 793 0046 FB68     		ldr	r3, [r7, #12]
 526:.\Generated_Source\PSoC4/CyDMA.c **** }
 794              		.loc 1 526 0
 795 0048 181C     		mov	r0, r3
 796 004a BD46     		mov	sp, r7
 797 004c 04B0     		add	sp, sp, #16
 798              		@ sp needed
 799 004e 80BD     		pop	{r7, pc}
 800              	.L78:
 801              		.align	2
 802              	.L77:
 803 0050 00000000 		.word	CyDmaChannelUsedMask
 804              		.cfi_endproc
 805              	.LFE18:
 806              		.size	CyDmaChFree, .-CyDmaChFree
 807              		.section	.text.CyDmaChEnable,"ax",%progbits
 808              		.align	2
 809              		.global	CyDmaChEnable
 810              		.code	16
 811              		.thumb_func
 812              		.type	CyDmaChEnable, %function
 813              	CyDmaChEnable:
 814              	.LFB19:
 527:.\Generated_Source\PSoC4/CyDMA.c **** 
 528:.\Generated_Source\PSoC4/CyDMA.c **** 
 529:.\Generated_Source\PSoC4/CyDMA.c **** /*******************************************************************************
 530:.\Generated_Source\PSoC4/CyDMA.c **** * Function Name: CyDmaChEnable
 531:.\Generated_Source\PSoC4/CyDMA.c **** ********************************************************************************
 532:.\Generated_Source\PSoC4/CyDMA.c **** *
 533:.\Generated_Source\PSoC4/CyDMA.c **** * Summary:
 534:.\Generated_Source\PSoC4/CyDMA.c **** *  Enables the DMA channel.
 535:.\Generated_Source\PSoC4/CyDMA.c **** *
 536:.\Generated_Source\PSoC4/CyDMA.c **** * Parameters:
 537:.\Generated_Source\PSoC4/CyDMA.c **** *  channel: Channel used by this function.
 538:.\Generated_Source\PSoC4/CyDMA.c **** *                   
 539:.\Generated_Source\PSoC4/CyDMA.c **** * Return:
 540:.\Generated_Source\PSoC4/CyDMA.c **** *  None.
 541:.\Generated_Source\PSoC4/CyDMA.c **** *
 542:.\Generated_Source\PSoC4/CyDMA.c **** * Side effect:
 543:.\Generated_Source\PSoC4/CyDMA.c **** *  If this function is called before CyDmaSetConfiguration(), and
 544:.\Generated_Source\PSoC4/CyDMA.c **** *  CyDmaSetSrcAddress() and CyDmaSetDstAddress(), the operation of
 545:.\Generated_Source\PSoC4/CyDMA.c **** *  the DMA is undefined and could result in system data corruption. 
 546:.\Generated_Source\PSoC4/CyDMA.c **** *
 547:.\Generated_Source\PSoC4/CyDMA.c **** *******************************************************************************/
 548:.\Generated_Source\PSoC4/CyDMA.c **** void CyDmaChEnable(int32 channel)
 549:.\Generated_Source\PSoC4/CyDMA.c **** {
 815              		.loc 1 549 0
 816              		.cfi_startproc
 817 0000 80B5     		push	{r7, lr}
ARM GAS  C:\Users\Matty\AppData\Local\Temp\ccXs7IQl.s 			page 25


 818              		.cfi_def_cfa_offset 8
 819              		.cfi_offset 7, -8
 820              		.cfi_offset 14, -4
 821 0002 82B0     		sub	sp, sp, #8
 822              		.cfi_def_cfa_offset 16
 823 0004 00AF     		add	r7, sp, #0
 824              		.cfi_def_cfa_register 7
 825 0006 7860     		str	r0, [r7, #4]
 550:.\Generated_Source\PSoC4/CyDMA.c ****     CYASSERT((channel >= 0) && (channel < CYDMA_CH_NR));
 826              		.loc 1 550 0
 827 0008 7B68     		ldr	r3, [r7, #4]
 828 000a 002B     		cmp	r3, #0
 829 000c 04DB     		blt	.L80
 830              		.loc 1 550 0 is_stmt 0 discriminator 1
 831 000e 7B68     		ldr	r3, [r7, #4]
 832 0010 072B     		cmp	r3, #7
 833 0012 01DC     		bgt	.L80
 834              		.loc 1 550 0 discriminator 3
 835 0014 0123     		mov	r3, #1
 836 0016 00E0     		b	.L81
 837              	.L80:
 838              		.loc 1 550 0 discriminator 2
 839 0018 0023     		mov	r3, #0
 840              	.L81:
 841              		.loc 1 550 0 discriminator 4
 842 001a 002B     		cmp	r3, #0
 843 001c 02D1     		bne	.L82
 844              		.loc 1 550 0 discriminator 1
 845 001e 0020     		mov	r0, #0
 846 0020 FFF7FEFF 		bl	CyHalt
 847              	.L82:
 551:.\Generated_Source\PSoC4/CyDMA.c **** 
 552:.\Generated_Source\PSoC4/CyDMA.c ****     CYDMA_CH_CTL_BASE.ctl[channel] |= CYDMA_ENABLED;
 848              		.loc 1 552 0 is_stmt 1
 849 0024 064B     		ldr	r3, .L83
 850 0026 064A     		ldr	r2, .L83
 851 0028 7968     		ldr	r1, [r7, #4]
 852 002a 8900     		lsl	r1, r1, #2
 853 002c 8A58     		ldr	r2, [r1, r2]
 854 002e 8021     		mov	r1, #128
 855 0030 0906     		lsl	r1, r1, #24
 856 0032 1143     		orr	r1, r2
 857 0034 7A68     		ldr	r2, [r7, #4]
 858 0036 9200     		lsl	r2, r2, #2
 859 0038 D150     		str	r1, [r2, r3]
 553:.\Generated_Source\PSoC4/CyDMA.c **** }
 860              		.loc 1 553 0
 861 003a BD46     		mov	sp, r7
 862 003c 02B0     		add	sp, sp, #8
 863              		@ sp needed
 864 003e 80BD     		pop	{r7, pc}
 865              	.L84:
 866              		.align	2
 867              	.L83:
 868 0040 80101040 		.word	1074794624
 869              		.cfi_endproc
 870              	.LFE19:
ARM GAS  C:\Users\Matty\AppData\Local\Temp\ccXs7IQl.s 			page 26


 871              		.size	CyDmaChEnable, .-CyDmaChEnable
 872              		.section	.text.CyDmaChDisable,"ax",%progbits
 873              		.align	2
 874              		.global	CyDmaChDisable
 875              		.code	16
 876              		.thumb_func
 877              		.type	CyDmaChDisable, %function
 878              	CyDmaChDisable:
 879              	.LFB20:
 554:.\Generated_Source\PSoC4/CyDMA.c **** 
 555:.\Generated_Source\PSoC4/CyDMA.c **** 
 556:.\Generated_Source\PSoC4/CyDMA.c **** /*******************************************************************************
 557:.\Generated_Source\PSoC4/CyDMA.c **** * Function Name: CyDmaChDisable
 558:.\Generated_Source\PSoC4/CyDMA.c **** ********************************************************************************
 559:.\Generated_Source\PSoC4/CyDMA.c **** *
 560:.\Generated_Source\PSoC4/CyDMA.c **** * Summary:
 561:.\Generated_Source\PSoC4/CyDMA.c **** *  Disables the DMA channel.
 562:.\Generated_Source\PSoC4/CyDMA.c **** *
 563:.\Generated_Source\PSoC4/CyDMA.c **** * Parameters:
 564:.\Generated_Source\PSoC4/CyDMA.c **** *  channel: Channel used by this function.
 565:.\Generated_Source\PSoC4/CyDMA.c **** *                   
 566:.\Generated_Source\PSoC4/CyDMA.c **** * Return:
 567:.\Generated_Source\PSoC4/CyDMA.c **** *  None.
 568:.\Generated_Source\PSoC4/CyDMA.c **** *
 569:.\Generated_Source\PSoC4/CyDMA.c **** * Side effect:
 570:.\Generated_Source\PSoC4/CyDMA.c **** *  If this function is called during a DMA transfer the transfer is aborted. 
 571:.\Generated_Source\PSoC4/CyDMA.c **** *
 572:.\Generated_Source\PSoC4/CyDMA.c **** *******************************************************************************/
 573:.\Generated_Source\PSoC4/CyDMA.c **** void CyDmaChDisable(int32 channel)
 574:.\Generated_Source\PSoC4/CyDMA.c **** {
 880              		.loc 1 574 0
 881              		.cfi_startproc
 882 0000 80B5     		push	{r7, lr}
 883              		.cfi_def_cfa_offset 8
 884              		.cfi_offset 7, -8
 885              		.cfi_offset 14, -4
 886 0002 82B0     		sub	sp, sp, #8
 887              		.cfi_def_cfa_offset 16
 888 0004 00AF     		add	r7, sp, #0
 889              		.cfi_def_cfa_register 7
 890 0006 7860     		str	r0, [r7, #4]
 575:.\Generated_Source\PSoC4/CyDMA.c ****     CYASSERT((channel >= 0) && (channel < CYDMA_CH_NR));
 891              		.loc 1 575 0
 892 0008 7B68     		ldr	r3, [r7, #4]
 893 000a 002B     		cmp	r3, #0
 894 000c 04DB     		blt	.L86
 895              		.loc 1 575 0 is_stmt 0 discriminator 1
 896 000e 7B68     		ldr	r3, [r7, #4]
 897 0010 072B     		cmp	r3, #7
 898 0012 01DC     		bgt	.L86
 899              		.loc 1 575 0 discriminator 3
 900 0014 0123     		mov	r3, #1
 901 0016 00E0     		b	.L87
 902              	.L86:
 903              		.loc 1 575 0 discriminator 2
 904 0018 0023     		mov	r3, #0
 905              	.L87:
ARM GAS  C:\Users\Matty\AppData\Local\Temp\ccXs7IQl.s 			page 27


 906              		.loc 1 575 0 discriminator 4
 907 001a 002B     		cmp	r3, #0
 908 001c 02D1     		bne	.L88
 909              		.loc 1 575 0 discriminator 1
 910 001e 0020     		mov	r0, #0
 911 0020 FFF7FEFF 		bl	CyHalt
 912              	.L88:
 576:.\Generated_Source\PSoC4/CyDMA.c **** 
 577:.\Generated_Source\PSoC4/CyDMA.c ****     CYDMA_CH_CTL_BASE.ctl[channel] &= (uint32)~CYDMA_ENABLED;
 913              		.loc 1 577 0 is_stmt 1
 914 0024 064B     		ldr	r3, .L89
 915 0026 064A     		ldr	r2, .L89
 916 0028 7968     		ldr	r1, [r7, #4]
 917 002a 8900     		lsl	r1, r1, #2
 918 002c 8A58     		ldr	r2, [r1, r2]
 919 002e 5200     		lsl	r2, r2, #1
 920 0030 5108     		lsr	r1, r2, #1
 921 0032 7A68     		ldr	r2, [r7, #4]
 922 0034 9200     		lsl	r2, r2, #2
 923 0036 D150     		str	r1, [r2, r3]
 578:.\Generated_Source\PSoC4/CyDMA.c **** }
 924              		.loc 1 578 0
 925 0038 BD46     		mov	sp, r7
 926 003a 02B0     		add	sp, sp, #8
 927              		@ sp needed
 928 003c 80BD     		pop	{r7, pc}
 929              	.L90:
 930 003e C046     		.align	2
 931              	.L89:
 932 0040 80101040 		.word	1074794624
 933              		.cfi_endproc
 934              	.LFE20:
 935              		.size	CyDmaChDisable, .-CyDmaChDisable
 936              		.section	.text.CyDmaTrigger,"ax",%progbits
 937              		.align	2
 938              		.global	CyDmaTrigger
 939              		.code	16
 940              		.thumb_func
 941              		.type	CyDmaTrigger, %function
 942              	CyDmaTrigger:
 943              	.LFB21:
 579:.\Generated_Source\PSoC4/CyDMA.c **** 
 580:.\Generated_Source\PSoC4/CyDMA.c **** 
 581:.\Generated_Source\PSoC4/CyDMA.c **** /*******************************************************************************
 582:.\Generated_Source\PSoC4/CyDMA.c **** * Function Name: CyDmaTrigger
 583:.\Generated_Source\PSoC4/CyDMA.c **** ********************************************************************************
 584:.\Generated_Source\PSoC4/CyDMA.c **** *
 585:.\Generated_Source\PSoC4/CyDMA.c **** * Summary:
 586:.\Generated_Source\PSoC4/CyDMA.c **** *  Triggers the DMA channel, this is useful only for software triggers. This is
 587:.\Generated_Source\PSoC4/CyDMA.c **** *  not needed when hardware triggers are used.
 588:.\Generated_Source\PSoC4/CyDMA.c **** *
 589:.\Generated_Source\PSoC4/CyDMA.c **** * Parameters:
 590:.\Generated_Source\PSoC4/CyDMA.c **** *  channel: Channel used by this function.
 591:.\Generated_Source\PSoC4/CyDMA.c **** *                   
 592:.\Generated_Source\PSoC4/CyDMA.c **** * Return:
 593:.\Generated_Source\PSoC4/CyDMA.c **** *  None. 
 594:.\Generated_Source\PSoC4/CyDMA.c **** *
ARM GAS  C:\Users\Matty\AppData\Local\Temp\ccXs7IQl.s 			page 28


 595:.\Generated_Source\PSoC4/CyDMA.c **** *******************************************************************************/
 596:.\Generated_Source\PSoC4/CyDMA.c **** void CyDmaTrigger(int32 channel)
 597:.\Generated_Source\PSoC4/CyDMA.c **** {
 944              		.loc 1 597 0
 945              		.cfi_startproc
 946 0000 80B5     		push	{r7, lr}
 947              		.cfi_def_cfa_offset 8
 948              		.cfi_offset 7, -8
 949              		.cfi_offset 14, -4
 950 0002 82B0     		sub	sp, sp, #8
 951              		.cfi_def_cfa_offset 16
 952 0004 00AF     		add	r7, sp, #0
 953              		.cfi_def_cfa_register 7
 954 0006 7860     		str	r0, [r7, #4]
 598:.\Generated_Source\PSoC4/CyDMA.c ****     CYASSERT((channel >= 0) && (channel < CYDMA_CH_NR));
 955              		.loc 1 598 0
 956 0008 7B68     		ldr	r3, [r7, #4]
 957 000a 002B     		cmp	r3, #0
 958 000c 04DB     		blt	.L92
 959              		.loc 1 598 0 is_stmt 0 discriminator 1
 960 000e 7B68     		ldr	r3, [r7, #4]
 961 0010 072B     		cmp	r3, #7
 962 0012 01DC     		bgt	.L92
 963              		.loc 1 598 0 discriminator 3
 964 0014 0123     		mov	r3, #1
 965 0016 00E0     		b	.L93
 966              	.L92:
 967              		.loc 1 598 0 discriminator 2
 968 0018 0023     		mov	r3, #0
 969              	.L93:
 970              		.loc 1 598 0 discriminator 4
 971 001a 002B     		cmp	r3, #0
 972 001c 02D1     		bne	.L94
 973              		.loc 1 598 0 discriminator 1
 974 001e 0020     		mov	r0, #0
 975 0020 FFF7FEFF 		bl	CyHalt
 976              	.L94:
 599:.\Generated_Source\PSoC4/CyDMA.c **** 
 600:.\Generated_Source\PSoC4/CyDMA.c ****     CYDMA_TR_CTL_REG = CYDMA_TRIGGER_MASK | (uint32)(channel);
 977              		.loc 1 600 0 is_stmt 1
 978 0024 034B     		ldr	r3, .L95
 979 0026 7A68     		ldr	r2, [r7, #4]
 980 0028 0349     		ldr	r1, .L95+4
 981 002a 0A43     		orr	r2, r1
 982 002c 1A60     		str	r2, [r3]
 601:.\Generated_Source\PSoC4/CyDMA.c **** }
 983              		.loc 1 601 0
 984 002e BD46     		mov	sp, r7
 985 0030 02B0     		add	sp, sp, #8
 986              		@ sp needed
 987 0032 80BD     		pop	{r7, pc}
 988              	.L96:
 989              		.align	2
 990              	.L95:
 991 0034 00060140 		.word	1073808896
 992 0038 000002C0 		.word	-1073610752
 993              		.cfi_endproc
ARM GAS  C:\Users\Matty\AppData\Local\Temp\ccXs7IQl.s 			page 29


 994              	.LFE21:
 995              		.size	CyDmaTrigger, .-CyDmaTrigger
 996              		.section	.text.CyDmaSetPriority,"ax",%progbits
 997              		.align	2
 998              		.global	CyDmaSetPriority
 999              		.code	16
 1000              		.thumb_func
 1001              		.type	CyDmaSetPriority, %function
 1002              	CyDmaSetPriority:
 1003              	.LFB22:
 602:.\Generated_Source\PSoC4/CyDMA.c **** 
 603:.\Generated_Source\PSoC4/CyDMA.c **** 
 604:.\Generated_Source\PSoC4/CyDMA.c **** /*******************************************************************************
 605:.\Generated_Source\PSoC4/CyDMA.c **** * Function Name: CyDmaSetPriority
 606:.\Generated_Source\PSoC4/CyDMA.c **** ********************************************************************************
 607:.\Generated_Source\PSoC4/CyDMA.c **** *
 608:.\Generated_Source\PSoC4/CyDMA.c **** * Summary:
 609:.\Generated_Source\PSoC4/CyDMA.c **** *  Sets the priority for the channel.
 610:.\Generated_Source\PSoC4/CyDMA.c **** *
 611:.\Generated_Source\PSoC4/CyDMA.c **** * Parameters:
 612:.\Generated_Source\PSoC4/CyDMA.c **** *  channel:  Channel used by this function
 613:.\Generated_Source\PSoC4/CyDMA.c **** *  priority: Priority for channel. Priority can be 0,1,2, or 3.
 614:.\Generated_Source\PSoC4/CyDMA.c **** *            0 is the highest priority.
 615:.\Generated_Source\PSoC4/CyDMA.c **** *                   
 616:.\Generated_Source\PSoC4/CyDMA.c **** * Return:
 617:.\Generated_Source\PSoC4/CyDMA.c **** *  None.
 618:.\Generated_Source\PSoC4/CyDMA.c **** *
 619:.\Generated_Source\PSoC4/CyDMA.c **** * Side effect:
 620:.\Generated_Source\PSoC4/CyDMA.c **** *  This function should not be called while the channel is enabled.
 621:.\Generated_Source\PSoC4/CyDMA.c **** *
 622:.\Generated_Source\PSoC4/CyDMA.c **** *******************************************************************************/
 623:.\Generated_Source\PSoC4/CyDMA.c **** void CyDmaSetPriority(int32 channel, int32 priority)
 624:.\Generated_Source\PSoC4/CyDMA.c **** {
 1004              		.loc 1 624 0
 1005              		.cfi_startproc
 1006 0000 80B5     		push	{r7, lr}
 1007              		.cfi_def_cfa_offset 8
 1008              		.cfi_offset 7, -8
 1009              		.cfi_offset 14, -4
 1010 0002 84B0     		sub	sp, sp, #16
 1011              		.cfi_def_cfa_offset 24
 1012 0004 00AF     		add	r7, sp, #0
 1013              		.cfi_def_cfa_register 7
 1014 0006 7860     		str	r0, [r7, #4]
 1015 0008 3960     		str	r1, [r7]
 625:.\Generated_Source\PSoC4/CyDMA.c ****     uint32 regValue;
 626:.\Generated_Source\PSoC4/CyDMA.c **** 
 627:.\Generated_Source\PSoC4/CyDMA.c ****     CYASSERT((channel  >= 0) && (channel  <  CYDMA_CH_NR));
 1016              		.loc 1 627 0
 1017 000a 7B68     		ldr	r3, [r7, #4]
 1018 000c 002B     		cmp	r3, #0
 1019 000e 04DB     		blt	.L98
 1020              		.loc 1 627 0 is_stmt 0 discriminator 1
 1021 0010 7B68     		ldr	r3, [r7, #4]
 1022 0012 072B     		cmp	r3, #7
 1023 0014 01DC     		bgt	.L98
 1024              		.loc 1 627 0 discriminator 3
ARM GAS  C:\Users\Matty\AppData\Local\Temp\ccXs7IQl.s 			page 30


 1025 0016 0123     		mov	r3, #1
 1026 0018 00E0     		b	.L99
 1027              	.L98:
 1028              		.loc 1 627 0 discriminator 2
 1029 001a 0023     		mov	r3, #0
 1030              	.L99:
 1031              		.loc 1 627 0 discriminator 4
 1032 001c 002B     		cmp	r3, #0
 1033 001e 02D1     		bne	.L100
 1034              		.loc 1 627 0 discriminator 1
 1035 0020 0020     		mov	r0, #0
 1036 0022 FFF7FEFF 		bl	CyHalt
 1037              	.L100:
 628:.\Generated_Source\PSoC4/CyDMA.c ****     CYASSERT((priority >= 0) && (priority <= CY_DMA_MAX_PRIO));
 1038              		.loc 1 628 0 is_stmt 1
 1039 0026 3B68     		ldr	r3, [r7]
 1040 0028 002B     		cmp	r3, #0
 1041 002a 04DB     		blt	.L101
 1042              		.loc 1 628 0 is_stmt 0 discriminator 1
 1043 002c 3B68     		ldr	r3, [r7]
 1044 002e 032B     		cmp	r3, #3
 1045 0030 01DC     		bgt	.L101
 1046              		.loc 1 628 0 discriminator 3
 1047 0032 0123     		mov	r3, #1
 1048 0034 00E0     		b	.L102
 1049              	.L101:
 1050              		.loc 1 628 0 discriminator 2
 1051 0036 0023     		mov	r3, #0
 1052              	.L102:
 1053              		.loc 1 628 0 discriminator 4
 1054 0038 002B     		cmp	r3, #0
 1055 003a 02D1     		bne	.L103
 1056              		.loc 1 628 0 discriminator 1
 1057 003c 0020     		mov	r0, #0
 1058 003e FFF7FEFF 		bl	CyHalt
 1059              	.L103:
 629:.\Generated_Source\PSoC4/CyDMA.c **** 
 630:.\Generated_Source\PSoC4/CyDMA.c ****     regValue = CYDMA_CH_CTL_BASE.ctl[channel] & (uint32)~CYDMA_PRIO;
 1060              		.loc 1 630 0 is_stmt 1
 1061 0042 094B     		ldr	r3, .L104
 1062 0044 7A68     		ldr	r2, [r7, #4]
 1063 0046 9200     		lsl	r2, r2, #2
 1064 0048 D258     		ldr	r2, [r2, r3]
 1065 004a 084B     		ldr	r3, .L104+4
 1066 004c 1340     		and	r3, r2
 1067 004e FB60     		str	r3, [r7, #12]
 631:.\Generated_Source\PSoC4/CyDMA.c ****     CYDMA_CH_CTL_BASE.ctl[channel] = regValue | (uint32)((uint32)priority << CYDMA_PRIO_POS);
 1068              		.loc 1 631 0
 1069 0050 054B     		ldr	r3, .L104
 1070 0052 3A68     		ldr	r2, [r7]
 1071 0054 1107     		lsl	r1, r2, #28
 1072 0056 FA68     		ldr	r2, [r7, #12]
 1073 0058 1143     		orr	r1, r2
 1074 005a 7A68     		ldr	r2, [r7, #4]
 1075 005c 9200     		lsl	r2, r2, #2
 1076 005e D150     		str	r1, [r2, r3]
 632:.\Generated_Source\PSoC4/CyDMA.c **** }
ARM GAS  C:\Users\Matty\AppData\Local\Temp\ccXs7IQl.s 			page 31


 1077              		.loc 1 632 0
 1078 0060 BD46     		mov	sp, r7
 1079 0062 04B0     		add	sp, sp, #16
 1080              		@ sp needed
 1081 0064 80BD     		pop	{r7, pc}
 1082              	.L105:
 1083 0066 C046     		.align	2
 1084              	.L104:
 1085 0068 80101040 		.word	1074794624
 1086 006c FFFFFFCF 		.word	-805306369
 1087              		.cfi_endproc
 1088              	.LFE22:
 1089              		.size	CyDmaSetPriority, .-CyDmaSetPriority
 1090              		.section	.text.CyDmaGetPriority,"ax",%progbits
 1091              		.align	2
 1092              		.global	CyDmaGetPriority
 1093              		.code	16
 1094              		.thumb_func
 1095              		.type	CyDmaGetPriority, %function
 1096              	CyDmaGetPriority:
 1097              	.LFB23:
 633:.\Generated_Source\PSoC4/CyDMA.c **** 
 634:.\Generated_Source\PSoC4/CyDMA.c **** 
 635:.\Generated_Source\PSoC4/CyDMA.c **** /*******************************************************************************
 636:.\Generated_Source\PSoC4/CyDMA.c **** * Function Name: CyDmaGetPriority
 637:.\Generated_Source\PSoC4/CyDMA.c **** ********************************************************************************
 638:.\Generated_Source\PSoC4/CyDMA.c **** *
 639:.\Generated_Source\PSoC4/CyDMA.c **** * Summary:
 640:.\Generated_Source\PSoC4/CyDMA.c **** *  Gets the priority for the channel.
 641:.\Generated_Source\PSoC4/CyDMA.c **** *
 642:.\Generated_Source\PSoC4/CyDMA.c **** * Parameters:
 643:.\Generated_Source\PSoC4/CyDMA.c **** *  channel: Channel used by this function.
 644:.\Generated_Source\PSoC4/CyDMA.c **** *                   
 645:.\Generated_Source\PSoC4/CyDMA.c **** * Return:
 646:.\Generated_Source\PSoC4/CyDMA.c **** *  Priority for channel. Priority can be 0,1,2, or 3. 0 is the highest priority.
 647:.\Generated_Source\PSoC4/CyDMA.c **** *
 648:.\Generated_Source\PSoC4/CyDMA.c **** *******************************************************************************/
 649:.\Generated_Source\PSoC4/CyDMA.c **** int32 CyDmaGetPriority(int32 channel)
 650:.\Generated_Source\PSoC4/CyDMA.c **** {
 1098              		.loc 1 650 0
 1099              		.cfi_startproc
 1100 0000 80B5     		push	{r7, lr}
 1101              		.cfi_def_cfa_offset 8
 1102              		.cfi_offset 7, -8
 1103              		.cfi_offset 14, -4
 1104 0002 84B0     		sub	sp, sp, #16
 1105              		.cfi_def_cfa_offset 24
 1106 0004 00AF     		add	r7, sp, #0
 1107              		.cfi_def_cfa_register 7
 1108 0006 7860     		str	r0, [r7, #4]
 651:.\Generated_Source\PSoC4/CyDMA.c ****     uint32 priority;
 652:.\Generated_Source\PSoC4/CyDMA.c **** 
 653:.\Generated_Source\PSoC4/CyDMA.c ****     CYASSERT((channel >= 0) && (channel < CYDMA_CH_NR));
 1109              		.loc 1 653 0
 1110 0008 7B68     		ldr	r3, [r7, #4]
 1111 000a 002B     		cmp	r3, #0
 1112 000c 04DB     		blt	.L107
ARM GAS  C:\Users\Matty\AppData\Local\Temp\ccXs7IQl.s 			page 32


 1113              		.loc 1 653 0 is_stmt 0 discriminator 1
 1114 000e 7B68     		ldr	r3, [r7, #4]
 1115 0010 072B     		cmp	r3, #7
 1116 0012 01DC     		bgt	.L107
 1117              		.loc 1 653 0 discriminator 3
 1118 0014 0123     		mov	r3, #1
 1119 0016 00E0     		b	.L108
 1120              	.L107:
 1121              		.loc 1 653 0 discriminator 2
 1122 0018 0023     		mov	r3, #0
 1123              	.L108:
 1124              		.loc 1 653 0 discriminator 4
 1125 001a 002B     		cmp	r3, #0
 1126 001c 02D1     		bne	.L109
 1127              		.loc 1 653 0 discriminator 1
 1128 001e 0020     		mov	r0, #0
 1129 0020 FFF7FEFF 		bl	CyHalt
 1130              	.L109:
 654:.\Generated_Source\PSoC4/CyDMA.c **** 
 655:.\Generated_Source\PSoC4/CyDMA.c ****     priority = (CYDMA_CH_CTL_BASE.ctl[channel] & CYDMA_PRIO) >> CYDMA_PRIO_POS;
 1131              		.loc 1 655 0 is_stmt 1
 1132 0024 064B     		ldr	r3, .L111
 1133 0026 7A68     		ldr	r2, [r7, #4]
 1134 0028 9200     		lsl	r2, r2, #2
 1135 002a D258     		ldr	r2, [r2, r3]
 1136 002c C023     		mov	r3, #192
 1137 002e 9B05     		lsl	r3, r3, #22
 1138 0030 1340     		and	r3, r2
 1139 0032 1B0F     		lsr	r3, r3, #28
 1140 0034 FB60     		str	r3, [r7, #12]
 656:.\Generated_Source\PSoC4/CyDMA.c ****     return ((int32)priority);
 1141              		.loc 1 656 0
 1142 0036 FB68     		ldr	r3, [r7, #12]
 657:.\Generated_Source\PSoC4/CyDMA.c **** }
 1143              		.loc 1 657 0
 1144 0038 181C     		mov	r0, r3
 1145 003a BD46     		mov	sp, r7
 1146 003c 04B0     		add	sp, sp, #16
 1147              		@ sp needed
 1148 003e 80BD     		pop	{r7, pc}
 1149              	.L112:
 1150              		.align	2
 1151              	.L111:
 1152 0040 80101040 		.word	1074794624
 1153              		.cfi_endproc
 1154              	.LFE23:
 1155              		.size	CyDmaGetPriority, .-CyDmaGetPriority
 1156              		.section	.text.CyDmaSetNextDescriptor,"ax",%progbits
 1157              		.align	2
 1158              		.global	CyDmaSetNextDescriptor
 1159              		.code	16
 1160              		.thumb_func
 1161              		.type	CyDmaSetNextDescriptor, %function
 1162              	CyDmaSetNextDescriptor:
 1163              	.LFB24:
 658:.\Generated_Source\PSoC4/CyDMA.c **** 
 659:.\Generated_Source\PSoC4/CyDMA.c **** 
ARM GAS  C:\Users\Matty\AppData\Local\Temp\ccXs7IQl.s 			page 33


 660:.\Generated_Source\PSoC4/CyDMA.c **** /*******************************************************************************
 661:.\Generated_Source\PSoC4/CyDMA.c **** * Function Name: CyDmaSetNextDescriptor
 662:.\Generated_Source\PSoC4/CyDMA.c **** ********************************************************************************
 663:.\Generated_Source\PSoC4/CyDMA.c **** *
 664:.\Generated_Source\PSoC4/CyDMA.c **** * Summary:
 665:.\Generated_Source\PSoC4/CyDMA.c **** *  Sets the descriptor that should be run the next time the channel is
 666:.\Generated_Source\PSoC4/CyDMA.c **** *  triggered.
 667:.\Generated_Source\PSoC4/CyDMA.c **** *
 668:.\Generated_Source\PSoC4/CyDMA.c **** * Parameters:
 669:.\Generated_Source\PSoC4/CyDMA.c **** *  channel:    Channel used by this function.
 670:.\Generated_Source\PSoC4/CyDMA.c **** *  descriptor: Next Descriptor to run (0 or 1).
 671:.\Generated_Source\PSoC4/CyDMA.c **** *
 672:.\Generated_Source\PSoC4/CyDMA.c **** * Return:
 673:.\Generated_Source\PSoC4/CyDMA.c **** *  None.
 674:.\Generated_Source\PSoC4/CyDMA.c **** *                   
 675:.\Generated_Source\PSoC4/CyDMA.c **** * Side effect:
 676:.\Generated_Source\PSoC4/CyDMA.c **** *  This function should not be called while the channel is enabled.
 677:.\Generated_Source\PSoC4/CyDMA.c **** *
 678:.\Generated_Source\PSoC4/CyDMA.c **** *******************************************************************************/
 679:.\Generated_Source\PSoC4/CyDMA.c **** void CyDmaSetNextDescriptor(int32 channel, int32 descriptor)
 680:.\Generated_Source\PSoC4/CyDMA.c **** {
 1164              		.loc 1 680 0
 1165              		.cfi_startproc
 1166 0000 80B5     		push	{r7, lr}
 1167              		.cfi_def_cfa_offset 8
 1168              		.cfi_offset 7, -8
 1169              		.cfi_offset 14, -4
 1170 0002 84B0     		sub	sp, sp, #16
 1171              		.cfi_def_cfa_offset 24
 1172 0004 00AF     		add	r7, sp, #0
 1173              		.cfi_def_cfa_register 7
 1174 0006 7860     		str	r0, [r7, #4]
 1175 0008 3960     		str	r1, [r7]
 681:.\Generated_Source\PSoC4/CyDMA.c ****     uint32 regValue;
 682:.\Generated_Source\PSoC4/CyDMA.c **** 
 683:.\Generated_Source\PSoC4/CyDMA.c ****     CYASSERT((channel    >= 0) && (channel    < CYDMA_CH_NR));
 1176              		.loc 1 683 0
 1177 000a 7B68     		ldr	r3, [r7, #4]
 1178 000c 002B     		cmp	r3, #0
 1179 000e 04DB     		blt	.L114
 1180              		.loc 1 683 0 is_stmt 0 discriminator 1
 1181 0010 7B68     		ldr	r3, [r7, #4]
 1182 0012 072B     		cmp	r3, #7
 1183 0014 01DC     		bgt	.L114
 1184              		.loc 1 683 0 discriminator 3
 1185 0016 0123     		mov	r3, #1
 1186 0018 00E0     		b	.L115
 1187              	.L114:
 1188              		.loc 1 683 0 discriminator 2
 1189 001a 0023     		mov	r3, #0
 1190              	.L115:
 1191              		.loc 1 683 0 discriminator 4
 1192 001c 002B     		cmp	r3, #0
 1193 001e 02D1     		bne	.L116
 1194              		.loc 1 683 0 discriminator 1
 1195 0020 0020     		mov	r0, #0
 1196 0022 FFF7FEFF 		bl	CyHalt
ARM GAS  C:\Users\Matty\AppData\Local\Temp\ccXs7IQl.s 			page 34


 1197              	.L116:
 684:.\Generated_Source\PSoC4/CyDMA.c ****     CYASSERT((descriptor >= 0) && (descriptor < CYDMA_DESCR_NR));
 1198              		.loc 1 684 0 is_stmt 1
 1199 0026 3B68     		ldr	r3, [r7]
 1200 0028 002B     		cmp	r3, #0
 1201 002a 04DB     		blt	.L117
 1202              		.loc 1 684 0 is_stmt 0 discriminator 1
 1203 002c 3B68     		ldr	r3, [r7]
 1204 002e 012B     		cmp	r3, #1
 1205 0030 01DC     		bgt	.L117
 1206              		.loc 1 684 0 discriminator 3
 1207 0032 0123     		mov	r3, #1
 1208 0034 00E0     		b	.L118
 1209              	.L117:
 1210              		.loc 1 684 0 discriminator 2
 1211 0036 0023     		mov	r3, #0
 1212              	.L118:
 1213              		.loc 1 684 0 discriminator 4
 1214 0038 002B     		cmp	r3, #0
 1215 003a 02D1     		bne	.L119
 1216              		.loc 1 684 0 discriminator 1
 1217 003c 0020     		mov	r0, #0
 1218 003e FFF7FEFF 		bl	CyHalt
 1219              	.L119:
 685:.\Generated_Source\PSoC4/CyDMA.c **** 
 686:.\Generated_Source\PSoC4/CyDMA.c ****     regValue = CYDMA_CH_CTL_BASE.ctl[channel] & (uint32)~CYDMA_DESCRIPTOR;
 1220              		.loc 1 686 0 is_stmt 1
 1221 0042 094B     		ldr	r3, .L120
 1222 0044 7A68     		ldr	r2, [r7, #4]
 1223 0046 9200     		lsl	r2, r2, #2
 1224 0048 D258     		ldr	r2, [r2, r3]
 1225 004a 084B     		ldr	r3, .L120+4
 1226 004c 1340     		and	r3, r2
 1227 004e FB60     		str	r3, [r7, #12]
 687:.\Generated_Source\PSoC4/CyDMA.c ****     CYDMA_CH_CTL_BASE.ctl[channel] = regValue | (uint32)((uint32)descriptor << CYDMA_DESCRIPTOR_POS
 1228              		.loc 1 687 0
 1229 0050 054B     		ldr	r3, .L120
 1230 0052 3A68     		ldr	r2, [r7]
 1231 0054 9107     		lsl	r1, r2, #30
 1232 0056 FA68     		ldr	r2, [r7, #12]
 1233 0058 1143     		orr	r1, r2
 1234 005a 7A68     		ldr	r2, [r7, #4]
 1235 005c 9200     		lsl	r2, r2, #2
 1236 005e D150     		str	r1, [r2, r3]
 688:.\Generated_Source\PSoC4/CyDMA.c **** }
 1237              		.loc 1 688 0
 1238 0060 BD46     		mov	sp, r7
 1239 0062 04B0     		add	sp, sp, #16
 1240              		@ sp needed
 1241 0064 80BD     		pop	{r7, pc}
 1242              	.L121:
 1243 0066 C046     		.align	2
 1244              	.L120:
 1245 0068 80101040 		.word	1074794624
 1246 006c FFFFFFBF 		.word	-1073741825
 1247              		.cfi_endproc
 1248              	.LFE24:
ARM GAS  C:\Users\Matty\AppData\Local\Temp\ccXs7IQl.s 			page 35


 1249              		.size	CyDmaSetNextDescriptor, .-CyDmaSetNextDescriptor
 1250              		.section	.text.CyDmaGetNextDescriptor,"ax",%progbits
 1251              		.align	2
 1252              		.global	CyDmaGetNextDescriptor
 1253              		.code	16
 1254              		.thumb_func
 1255              		.type	CyDmaGetNextDescriptor, %function
 1256              	CyDmaGetNextDescriptor:
 1257              	.LFB25:
 689:.\Generated_Source\PSoC4/CyDMA.c **** 
 690:.\Generated_Source\PSoC4/CyDMA.c **** 
 691:.\Generated_Source\PSoC4/CyDMA.c **** /*******************************************************************************
 692:.\Generated_Source\PSoC4/CyDMA.c **** * Function Name: CyDmaGetNextDescriptor
 693:.\Generated_Source\PSoC4/CyDMA.c **** ********************************************************************************
 694:.\Generated_Source\PSoC4/CyDMA.c **** *
 695:.\Generated_Source\PSoC4/CyDMA.c **** * Summary:
 696:.\Generated_Source\PSoC4/CyDMA.c **** *  Returns the next descriptor that should be run, as set by 
 697:.\Generated_Source\PSoC4/CyDMA.c **** *  CyDmaSetNextDescriptor().
 698:.\Generated_Source\PSoC4/CyDMA.c **** *
 699:.\Generated_Source\PSoC4/CyDMA.c **** * Parameters:
 700:.\Generated_Source\PSoC4/CyDMA.c **** *  channel: channel used by this function.
 701:.\Generated_Source\PSoC4/CyDMA.c **** *                   
 702:.\Generated_Source\PSoC4/CyDMA.c **** * Return:
 703:.\Generated_Source\PSoC4/CyDMA.c **** *  Next Descriptor to run (0 or 1).
 704:.\Generated_Source\PSoC4/CyDMA.c **** *
 705:.\Generated_Source\PSoC4/CyDMA.c **** *******************************************************************************/
 706:.\Generated_Source\PSoC4/CyDMA.c **** int32 CyDmaGetNextDescriptor(int32 channel)
 707:.\Generated_Source\PSoC4/CyDMA.c **** {
 1258              		.loc 1 707 0
 1259              		.cfi_startproc
 1260 0000 80B5     		push	{r7, lr}
 1261              		.cfi_def_cfa_offset 8
 1262              		.cfi_offset 7, -8
 1263              		.cfi_offset 14, -4
 1264 0002 84B0     		sub	sp, sp, #16
 1265              		.cfi_def_cfa_offset 24
 1266 0004 00AF     		add	r7, sp, #0
 1267              		.cfi_def_cfa_register 7
 1268 0006 7860     		str	r0, [r7, #4]
 708:.\Generated_Source\PSoC4/CyDMA.c ****     uint32 nextDescriptor;
 709:.\Generated_Source\PSoC4/CyDMA.c **** 
 710:.\Generated_Source\PSoC4/CyDMA.c ****     CYASSERT((channel >= 0) && (channel < CYDMA_CH_NR));
 1269              		.loc 1 710 0
 1270 0008 7B68     		ldr	r3, [r7, #4]
 1271 000a 002B     		cmp	r3, #0
 1272 000c 04DB     		blt	.L123
 1273              		.loc 1 710 0 is_stmt 0 discriminator 1
 1274 000e 7B68     		ldr	r3, [r7, #4]
 1275 0010 072B     		cmp	r3, #7
 1276 0012 01DC     		bgt	.L123
 1277              		.loc 1 710 0 discriminator 3
 1278 0014 0123     		mov	r3, #1
 1279 0016 00E0     		b	.L124
 1280              	.L123:
 1281              		.loc 1 710 0 discriminator 2
 1282 0018 0023     		mov	r3, #0
 1283              	.L124:
ARM GAS  C:\Users\Matty\AppData\Local\Temp\ccXs7IQl.s 			page 36


 1284              		.loc 1 710 0 discriminator 4
 1285 001a 002B     		cmp	r3, #0
 1286 001c 02D1     		bne	.L125
 1287              		.loc 1 710 0 discriminator 1
 1288 001e 0020     		mov	r0, #0
 1289 0020 FFF7FEFF 		bl	CyHalt
 1290              	.L125:
 711:.\Generated_Source\PSoC4/CyDMA.c **** 
 712:.\Generated_Source\PSoC4/CyDMA.c ****     nextDescriptor = (CYDMA_CH_CTL_BASE.ctl[channel] & CYDMA_DESCRIPTOR) >> CYDMA_DESCRIPTOR_POS;
 1291              		.loc 1 712 0 is_stmt 1
 1292 0024 064B     		ldr	r3, .L127
 1293 0026 7A68     		ldr	r2, [r7, #4]
 1294 0028 9200     		lsl	r2, r2, #2
 1295 002a D258     		ldr	r2, [r2, r3]
 1296 002c 8023     		mov	r3, #128
 1297 002e DB05     		lsl	r3, r3, #23
 1298 0030 1340     		and	r3, r2
 1299 0032 9B0F     		lsr	r3, r3, #30
 1300 0034 FB60     		str	r3, [r7, #12]
 713:.\Generated_Source\PSoC4/CyDMA.c ****     return ((int32)nextDescriptor);
 1301              		.loc 1 713 0
 1302 0036 FB68     		ldr	r3, [r7, #12]
 714:.\Generated_Source\PSoC4/CyDMA.c **** }
 1303              		.loc 1 714 0
 1304 0038 181C     		mov	r0, r3
 1305 003a BD46     		mov	sp, r7
 1306 003c 04B0     		add	sp, sp, #16
 1307              		@ sp needed
 1308 003e 80BD     		pop	{r7, pc}
 1309              	.L128:
 1310              		.align	2
 1311              	.L127:
 1312 0040 80101040 		.word	1074794624
 1313              		.cfi_endproc
 1314              	.LFE25:
 1315              		.size	CyDmaGetNextDescriptor, .-CyDmaGetNextDescriptor
 1316              		.section	.text.CyDmaSetConfiguration,"ax",%progbits
 1317              		.align	2
 1318              		.global	CyDmaSetConfiguration
 1319              		.code	16
 1320              		.thumb_func
 1321              		.type	CyDmaSetConfiguration, %function
 1322              	CyDmaSetConfiguration:
 1323              	.LFB26:
 715:.\Generated_Source\PSoC4/CyDMA.c **** 
 716:.\Generated_Source\PSoC4/CyDMA.c **** 
 717:.\Generated_Source\PSoC4/CyDMA.c **** /*******************************************************************************
 718:.\Generated_Source\PSoC4/CyDMA.c **** * Function Name: CyDmaSetConfiguration
 719:.\Generated_Source\PSoC4/CyDMA.c **** ********************************************************************************
 720:.\Generated_Source\PSoC4/CyDMA.c **** *
 721:.\Generated_Source\PSoC4/CyDMA.c **** * Summary:
 722:.\Generated_Source\PSoC4/CyDMA.c **** *  Sets configuration information for the specified descriptor.
 723:.\Generated_Source\PSoC4/CyDMA.c **** *
 724:.\Generated_Source\PSoC4/CyDMA.c **** * Parameters:
 725:.\Generated_Source\PSoC4/CyDMA.c **** *  channel:    DMA channel modified by this function.
 726:.\Generated_Source\PSoC4/CyDMA.c **** *  descriptor: Descriptor (0 or 1) modified by this function.
 727:.\Generated_Source\PSoC4/CyDMA.c **** *  config:     Pointer to a configuration structure. Refer to cydma_init_struct
ARM GAS  C:\Users\Matty\AppData\Local\Temp\ccXs7IQl.s 			page 37


 728:.\Generated_Source\PSoC4/CyDMA.c **** *              structure definition in CyDMA_P4.h and/or DMA channel datasheet
 729:.\Generated_Source\PSoC4/CyDMA.c **** *              for more information.
 730:.\Generated_Source\PSoC4/CyDMA.c **** *                   
 731:.\Generated_Source\PSoC4/CyDMA.c **** * Return:
 732:.\Generated_Source\PSoC4/CyDMA.c **** *  None.
 733:.\Generated_Source\PSoC4/CyDMA.c **** *
 734:.\Generated_Source\PSoC4/CyDMA.c **** * Side effect:
 735:.\Generated_Source\PSoC4/CyDMA.c **** *  The status register associated with the specified descriptor is reset to
 736:.\Generated_Source\PSoC4/CyDMA.c **** *  zero after this function call. This function also validates the descriptor.
 737:.\Generated_Source\PSoC4/CyDMA.c **** *  This function should not be called while the descriptor is active.
 738:.\Generated_Source\PSoC4/CyDMA.c **** *  This can be checked by calling CyDmaGetStatus().
 739:.\Generated_Source\PSoC4/CyDMA.c **** *
 740:.\Generated_Source\PSoC4/CyDMA.c **** *******************************************************************************/
 741:.\Generated_Source\PSoC4/CyDMA.c **** void CyDmaSetConfiguration(int32 channel, int32 descriptor, const cydma_init_struct * config)
 742:.\Generated_Source\PSoC4/CyDMA.c **** {  
 1324              		.loc 1 742 0
 1325              		.cfi_startproc
 1326 0000 80B5     		push	{r7, lr}
 1327              		.cfi_def_cfa_offset 8
 1328              		.cfi_offset 7, -8
 1329              		.cfi_offset 14, -4
 1330 0002 84B0     		sub	sp, sp, #16
 1331              		.cfi_def_cfa_offset 24
 1332 0004 00AF     		add	r7, sp, #0
 1333              		.cfi_def_cfa_register 7
 1334 0006 F860     		str	r0, [r7, #12]
 1335 0008 B960     		str	r1, [r7, #8]
 1336 000a 7A60     		str	r2, [r7, #4]
 743:.\Generated_Source\PSoC4/CyDMA.c ****     CYASSERT((channel        >= 0) && (channel         < CYDMA_CH_NR));
 1337              		.loc 1 743 0
 1338 000c FB68     		ldr	r3, [r7, #12]
 1339 000e 002B     		cmp	r3, #0
 1340 0010 04DB     		blt	.L130
 1341              		.loc 1 743 0 is_stmt 0 discriminator 1
 1342 0012 FB68     		ldr	r3, [r7, #12]
 1343 0014 072B     		cmp	r3, #7
 1344 0016 01DC     		bgt	.L130
 1345              		.loc 1 743 0 discriminator 3
 1346 0018 0123     		mov	r3, #1
 1347 001a 00E0     		b	.L131
 1348              	.L130:
 1349              		.loc 1 743 0 discriminator 2
 1350 001c 0023     		mov	r3, #0
 1351              	.L131:
 1352              		.loc 1 743 0 discriminator 4
 1353 001e 002B     		cmp	r3, #0
 1354 0020 02D1     		bne	.L132
 1355              		.loc 1 743 0 discriminator 1
 1356 0022 0020     		mov	r0, #0
 1357 0024 FFF7FEFF 		bl	CyHalt
 1358              	.L132:
 744:.\Generated_Source\PSoC4/CyDMA.c ****     CYASSERT((descriptor     >= 0) && (descriptor      < CYDMA_DESCR_NR));
 1359              		.loc 1 744 0 is_stmt 1
 1360 0028 BB68     		ldr	r3, [r7, #8]
 1361 002a 002B     		cmp	r3, #0
 1362 002c 04DB     		blt	.L133
 1363              		.loc 1 744 0 is_stmt 0 discriminator 1
ARM GAS  C:\Users\Matty\AppData\Local\Temp\ccXs7IQl.s 			page 38


 1364 002e BB68     		ldr	r3, [r7, #8]
 1365 0030 012B     		cmp	r3, #1
 1366 0032 01DC     		bgt	.L133
 1367              		.loc 1 744 0 discriminator 3
 1368 0034 0123     		mov	r3, #1
 1369 0036 00E0     		b	.L134
 1370              	.L133:
 1371              		.loc 1 744 0 discriminator 2
 1372 0038 0023     		mov	r3, #0
 1373              	.L134:
 1374              		.loc 1 744 0 discriminator 4
 1375 003a 002B     		cmp	r3, #0
 1376 003c 02D1     		bne	.L135
 1377              		.loc 1 744 0 discriminator 1
 1378 003e 0020     		mov	r0, #0
 1379 0040 FFF7FEFF 		bl	CyHalt
 1380              	.L135:
 745:.\Generated_Source\PSoC4/CyDMA.c **** 
 746:.\Generated_Source\PSoC4/CyDMA.c ****     CYASSERT(0u == (config->dataElementSize     & (uint32)~CYDMA_DATA_SIZE));   
 1381              		.loc 1 746 0 is_stmt 1
 1382 0044 7B68     		ldr	r3, [r7, #4]
 1383 0046 1A68     		ldr	r2, [r3]
 1384 0048 3B4B     		ldr	r3, .L146
 1385 004a 1340     		and	r3, r2
 1386 004c 02D0     		beq	.L136
 1387              		.loc 1 746 0 is_stmt 0 discriminator 1
 1388 004e 0020     		mov	r0, #0
 1389 0050 FFF7FEFF 		bl	CyHalt
 1390              	.L136:
 747:.\Generated_Source\PSoC4/CyDMA.c ****     CYASSERT((config->numDataElements > 0)     && (config->numDataElements <= CYDMA_MAX_DATA_NR));
 1391              		.loc 1 747 0 is_stmt 1
 1392 0054 7B68     		ldr	r3, [r7, #4]
 1393 0056 5B68     		ldr	r3, [r3, #4]
 1394 0058 002B     		cmp	r3, #0
 1395 005a 07DD     		ble	.L137
 1396              		.loc 1 747 0 is_stmt 0 discriminator 1
 1397 005c 7B68     		ldr	r3, [r7, #4]
 1398 005e 5A68     		ldr	r2, [r3, #4]
 1399 0060 8023     		mov	r3, #128
 1400 0062 5B02     		lsl	r3, r3, #9
 1401 0064 9A42     		cmp	r2, r3
 1402 0066 01DC     		bgt	.L137
 1403              		.loc 1 747 0 discriminator 3
 1404 0068 0123     		mov	r3, #1
 1405 006a 00E0     		b	.L138
 1406              	.L137:
 1407              		.loc 1 747 0 discriminator 2
 1408 006c 0023     		mov	r3, #0
 1409              	.L138:
 1410              		.loc 1 747 0 discriminator 4
 1411 006e 002B     		cmp	r3, #0
 1412 0070 02D1     		bne	.L139
 1413              		.loc 1 747 0 discriminator 1
 1414 0072 0020     		mov	r0, #0
 1415 0074 FFF7FEFF 		bl	CyHalt
 1416              	.L139:
 748:.\Generated_Source\PSoC4/CyDMA.c ****     CYASSERT(0u == (config->srcDstTransferWidth & (uint32)~CYDMA_TRANSFER_WIDTH));
ARM GAS  C:\Users\Matty\AppData\Local\Temp\ccXs7IQl.s 			page 39


 1417              		.loc 1 748 0 is_stmt 1
 1418 0078 7B68     		ldr	r3, [r7, #4]
 1419 007a 9A68     		ldr	r2, [r3, #8]
 1420 007c 2F4B     		ldr	r3, .L146+4
 1421 007e 1340     		and	r3, r2
 1422 0080 02D0     		beq	.L140
 1423              		.loc 1 748 0 is_stmt 0 discriminator 1
 1424 0082 0020     		mov	r0, #0
 1425 0084 FFF7FEFF 		bl	CyHalt
 1426              	.L140:
 749:.\Generated_Source\PSoC4/CyDMA.c ****     CYASSERT(0u == (config->addressIncrement    & (uint32)~CYDMA_ADDR_INCR));
 1427              		.loc 1 749 0 is_stmt 1
 1428 0088 7B68     		ldr	r3, [r7, #4]
 1429 008a DA68     		ldr	r2, [r3, #12]
 1430 008c 2C4B     		ldr	r3, .L146+8
 1431 008e 1340     		and	r3, r2
 1432 0090 02D0     		beq	.L141
 1433              		.loc 1 749 0 is_stmt 0 discriminator 1
 1434 0092 0020     		mov	r0, #0
 1435 0094 FFF7FEFF 		bl	CyHalt
 1436              	.L141:
 750:.\Generated_Source\PSoC4/CyDMA.c ****     CYASSERT(0u == (config->triggerType         & (uint32)~CYDMA_TRIGGER_TYPE));
 1437              		.loc 1 750 0 is_stmt 1
 1438 0098 7B68     		ldr	r3, [r7, #4]
 1439 009a 1A69     		ldr	r2, [r3, #16]
 1440 009c 294B     		ldr	r3, .L146+12
 1441 009e 1340     		and	r3, r2
 1442 00a0 02D0     		beq	.L142
 1443              		.loc 1 750 0 is_stmt 0 discriminator 1
 1444 00a2 0020     		mov	r0, #0
 1445 00a4 FFF7FEFF 		bl	CyHalt
 1446              	.L142:
 751:.\Generated_Source\PSoC4/CyDMA.c ****     CYASSERT(0u == (config->transferMode        & (uint32)~CYDMA_TRANSFER_MODE));
 1447              		.loc 1 751 0 is_stmt 1
 1448 00a8 7B68     		ldr	r3, [r7, #4]
 1449 00aa 5B69     		ldr	r3, [r3, #20]
 1450 00ac 9B00     		lsl	r3, r3, #2
 1451 00ae 9B08     		lsr	r3, r3, #2
 1452 00b0 02D0     		beq	.L143
 1453              		.loc 1 751 0 is_stmt 0 discriminator 1
 1454 00b2 0020     		mov	r0, #0
 1455 00b4 FFF7FEFF 		bl	CyHalt
 1456              	.L143:
 752:.\Generated_Source\PSoC4/CyDMA.c ****     CYASSERT(0u == (config->preemptable         & (uint32)~CYDMA_PREEMPTABLE));
 1457              		.loc 1 752 0 is_stmt 1
 1458 00b8 7B68     		ldr	r3, [r7, #4]
 1459 00ba 9A69     		ldr	r2, [r3, #24]
 1460 00bc 224B     		ldr	r3, .L146+16
 1461 00be 1340     		and	r3, r2
 1462 00c0 02D0     		beq	.L144
 1463              		.loc 1 752 0 is_stmt 0 discriminator 1
 1464 00c2 0020     		mov	r0, #0
 1465 00c4 FFF7FEFF 		bl	CyHalt
 1466              	.L144:
 753:.\Generated_Source\PSoC4/CyDMA.c ****     CYASSERT(0u == (config->actions             & (uint32)~CYDMA_POST_COMPLETE_ACTIONS));
 1467              		.loc 1 753 0 is_stmt 1
 1468 00c8 7B68     		ldr	r3, [r7, #4]
ARM GAS  C:\Users\Matty\AppData\Local\Temp\ccXs7IQl.s 			page 40


 1469 00ca DA69     		ldr	r2, [r3, #28]
 1470 00cc 1F4B     		ldr	r3, .L146+20
 1471 00ce 1340     		and	r3, r2
 1472 00d0 02D0     		beq	.L145
 1473              		.loc 1 753 0 is_stmt 0 discriminator 1
 1474 00d2 0020     		mov	r0, #0
 1475 00d4 FFF7FEFF 		bl	CyHalt
 1476              	.L145:
 754:.\Generated_Source\PSoC4/CyDMA.c ****     
 755:.\Generated_Source\PSoC4/CyDMA.c ****     CYDMA_DESCR_BASE.descriptor[channel][descriptor].ctl = config->dataElementSize     |
 1477              		.loc 1 755 0 is_stmt 1
 1478 00d8 1D49     		ldr	r1, .L146+24
 1479 00da 7B68     		ldr	r3, [r7, #4]
 1480 00dc 1A68     		ldr	r2, [r3]
 756:.\Generated_Source\PSoC4/CyDMA.c ****                                                   ((uint32)config->numDataElements-1u) |
 1481              		.loc 1 756 0
 1482 00de 7B68     		ldr	r3, [r7, #4]
 1483 00e0 5B68     		ldr	r3, [r3, #4]
 1484 00e2 013B     		sub	r3, r3, #1
 755:.\Generated_Source\PSoC4/CyDMA.c ****     CYDMA_DESCR_BASE.descriptor[channel][descriptor].ctl = config->dataElementSize     |
 1485              		.loc 1 755 0
 1486 00e4 1A43     		orr	r2, r3
 757:.\Generated_Source\PSoC4/CyDMA.c ****                                                            config->srcDstTransferWidth |
 1487              		.loc 1 757 0
 1488 00e6 7B68     		ldr	r3, [r7, #4]
 1489 00e8 9B68     		ldr	r3, [r3, #8]
 756:.\Generated_Source\PSoC4/CyDMA.c ****                                                   ((uint32)config->numDataElements-1u) |
 1490              		.loc 1 756 0
 1491 00ea 1A43     		orr	r2, r3
 758:.\Generated_Source\PSoC4/CyDMA.c ****                                                            config->addressIncrement    |
 1492              		.loc 1 758 0
 1493 00ec 7B68     		ldr	r3, [r7, #4]
 1494 00ee DB68     		ldr	r3, [r3, #12]
 757:.\Generated_Source\PSoC4/CyDMA.c ****                                                            config->srcDstTransferWidth |
 1495              		.loc 1 757 0
 1496 00f0 1A43     		orr	r2, r3
 759:.\Generated_Source\PSoC4/CyDMA.c ****                                                            config->triggerType         |
 1497              		.loc 1 759 0
 1498 00f2 7B68     		ldr	r3, [r7, #4]
 1499 00f4 1B69     		ldr	r3, [r3, #16]
 758:.\Generated_Source\PSoC4/CyDMA.c ****                                                            config->addressIncrement    |
 1500              		.loc 1 758 0
 1501 00f6 1A43     		orr	r2, r3
 760:.\Generated_Source\PSoC4/CyDMA.c ****                                                            config->transferMode        |
 1502              		.loc 1 760 0
 1503 00f8 7B68     		ldr	r3, [r7, #4]
 1504 00fa 5B69     		ldr	r3, [r3, #20]
 759:.\Generated_Source\PSoC4/CyDMA.c ****                                                            config->triggerType         |
 1505              		.loc 1 759 0
 1506 00fc 1A43     		orr	r2, r3
 761:.\Generated_Source\PSoC4/CyDMA.c ****                                                            config->preemptable         |
 1507              		.loc 1 761 0
 1508 00fe 7B68     		ldr	r3, [r7, #4]
 1509 0100 9B69     		ldr	r3, [r3, #24]
 760:.\Generated_Source\PSoC4/CyDMA.c ****                                                            config->transferMode        |
 1510              		.loc 1 760 0
 1511 0102 1A43     		orr	r2, r3
ARM GAS  C:\Users\Matty\AppData\Local\Temp\ccXs7IQl.s 			page 41


 762:.\Generated_Source\PSoC4/CyDMA.c ****                                                            config->actions;
 1512              		.loc 1 762 0
 1513 0104 7B68     		ldr	r3, [r7, #4]
 1514 0106 DB69     		ldr	r3, [r3, #28]
 761:.\Generated_Source\PSoC4/CyDMA.c ****                                                            config->preemptable         |
 1515              		.loc 1 761 0
 1516 0108 1A43     		orr	r2, r3
 755:.\Generated_Source\PSoC4/CyDMA.c ****     CYDMA_DESCR_BASE.descriptor[channel][descriptor].ctl = config->dataElementSize     |
 1517              		.loc 1 755 0
 1518 010a FB68     		ldr	r3, [r7, #12]
 1519 010c 5800     		lsl	r0, r3, #1
 1520 010e BB68     		ldr	r3, [r7, #8]
 1521 0110 C318     		add	r3, r0, r3
 1522 0112 1B01     		lsl	r3, r3, #4
 1523 0114 CB18     		add	r3, r1, r3
 1524 0116 0833     		add	r3, r3, #8
 1525 0118 1A60     		str	r2, [r3]
 763:.\Generated_Source\PSoC4/CyDMA.c **** 
 764:.\Generated_Source\PSoC4/CyDMA.c ****     CYDMA_DESCR_BASE.descriptor[channel][descriptor].status = CYDMA_VALID;
 1526              		.loc 1 764 0
 1527 011a 0D4A     		ldr	r2, .L146+24
 1528 011c FB68     		ldr	r3, [r7, #12]
 1529 011e 5900     		lsl	r1, r3, #1
 1530 0120 BB68     		ldr	r3, [r7, #8]
 1531 0122 CB18     		add	r3, r1, r3
 1532 0124 1B01     		lsl	r3, r3, #4
 1533 0126 D318     		add	r3, r2, r3
 1534 0128 0833     		add	r3, r3, #8
 1535 012a 8022     		mov	r2, #128
 1536 012c 1206     		lsl	r2, r2, #24
 1537 012e 5A60     		str	r2, [r3, #4]
 765:.\Generated_Source\PSoC4/CyDMA.c **** }
 1538              		.loc 1 765 0
 1539 0130 BD46     		mov	sp, r7
 1540 0132 04B0     		add	sp, sp, #16
 1541              		@ sp needed
 1542 0134 80BD     		pop	{r7, pc}
 1543              	.L147:
 1544 0136 C046     		.align	2
 1545              	.L146:
 1546 0138 FFFFFCFF 		.word	-196609
 1547 013c FFFFAFFF 		.word	-5242881
 1548 0140 FFFF5FFF 		.word	-10485761
 1549 0144 FFFFFFFC 		.word	-50331649
 1550 0148 FFFFFFEF 		.word	-268435457
 1551 014c FFFFFFD3 		.word	-738197505
 1552 0150 00181040 		.word	1074796544
 1553              		.cfi_endproc
 1554              	.LFE26:
 1555              		.size	CyDmaSetConfiguration, .-CyDmaSetConfiguration
 1556              		.section	.text.CyDmaValidateDescriptor,"ax",%progbits
 1557              		.align	2
 1558              		.global	CyDmaValidateDescriptor
 1559              		.code	16
 1560              		.thumb_func
 1561              		.type	CyDmaValidateDescriptor, %function
 1562              	CyDmaValidateDescriptor:
ARM GAS  C:\Users\Matty\AppData\Local\Temp\ccXs7IQl.s 			page 42


 1563              	.LFB27:
 766:.\Generated_Source\PSoC4/CyDMA.c **** 
 767:.\Generated_Source\PSoC4/CyDMA.c **** 
 768:.\Generated_Source\PSoC4/CyDMA.c **** /*******************************************************************************
 769:.\Generated_Source\PSoC4/CyDMA.c **** * Function Name: CyDmaValidateDescriptor
 770:.\Generated_Source\PSoC4/CyDMA.c **** ********************************************************************************
 771:.\Generated_Source\PSoC4/CyDMA.c **** *
 772:.\Generated_Source\PSoC4/CyDMA.c **** * Summary:
 773:.\Generated_Source\PSoC4/CyDMA.c **** *  Validates the specified descriptor after it has been invalidated.
 774:.\Generated_Source\PSoC4/CyDMA.c **** *
 775:.\Generated_Source\PSoC4/CyDMA.c **** * Parameters:
 776:.\Generated_Source\PSoC4/CyDMA.c **** *  channel:    Channel used by this function.
 777:.\Generated_Source\PSoC4/CyDMA.c **** *  descriptor: Descriptor (0 or 1) modified by this function.
 778:.\Generated_Source\PSoC4/CyDMA.c **** *                   
 779:.\Generated_Source\PSoC4/CyDMA.c **** * Return:
 780:.\Generated_Source\PSoC4/CyDMA.c **** *  None. 
 781:.\Generated_Source\PSoC4/CyDMA.c **** *
 782:.\Generated_Source\PSoC4/CyDMA.c **** * Side effect:
 783:.\Generated_Source\PSoC4/CyDMA.c **** *  The status register associated with the specified descriptor is reset to
 784:.\Generated_Source\PSoC4/CyDMA.c **** *  zero after this function call.
 785:.\Generated_Source\PSoC4/CyDMA.c **** *  This function should not be called when the specified descriptor is active
 786:.\Generated_Source\PSoC4/CyDMA.c **** *  in the DMA transfer engine. This can be checked by calling CyDmaGetStatus().
 787:.\Generated_Source\PSoC4/CyDMA.c **** *
 788:.\Generated_Source\PSoC4/CyDMA.c **** *******************************************************************************/
 789:.\Generated_Source\PSoC4/CyDMA.c **** void CyDmaValidateDescriptor(int32 channel, int32 descriptor)
 790:.\Generated_Source\PSoC4/CyDMA.c **** {
 1564              		.loc 1 790 0
 1565              		.cfi_startproc
 1566 0000 80B5     		push	{r7, lr}
 1567              		.cfi_def_cfa_offset 8
 1568              		.cfi_offset 7, -8
 1569              		.cfi_offset 14, -4
 1570 0002 82B0     		sub	sp, sp, #8
 1571              		.cfi_def_cfa_offset 16
 1572 0004 00AF     		add	r7, sp, #0
 1573              		.cfi_def_cfa_register 7
 1574 0006 7860     		str	r0, [r7, #4]
 1575 0008 3960     		str	r1, [r7]
 791:.\Generated_Source\PSoC4/CyDMA.c ****     CYASSERT((channel    >= 0) && (channel    < CYDMA_CH_NR));
 1576              		.loc 1 791 0
 1577 000a 7B68     		ldr	r3, [r7, #4]
 1578 000c 002B     		cmp	r3, #0
 1579 000e 04DB     		blt	.L149
 1580              		.loc 1 791 0 is_stmt 0 discriminator 1
 1581 0010 7B68     		ldr	r3, [r7, #4]
 1582 0012 072B     		cmp	r3, #7
 1583 0014 01DC     		bgt	.L149
 1584              		.loc 1 791 0 discriminator 3
 1585 0016 0123     		mov	r3, #1
 1586 0018 00E0     		b	.L150
 1587              	.L149:
 1588              		.loc 1 791 0 discriminator 2
 1589 001a 0023     		mov	r3, #0
 1590              	.L150:
 1591              		.loc 1 791 0 discriminator 4
 1592 001c 002B     		cmp	r3, #0
 1593 001e 02D1     		bne	.L151
ARM GAS  C:\Users\Matty\AppData\Local\Temp\ccXs7IQl.s 			page 43


 1594              		.loc 1 791 0 discriminator 1
 1595 0020 0020     		mov	r0, #0
 1596 0022 FFF7FEFF 		bl	CyHalt
 1597              	.L151:
 792:.\Generated_Source\PSoC4/CyDMA.c ****     CYASSERT((descriptor >= 0) && (descriptor < CYDMA_DESCR_NR));
 1598              		.loc 1 792 0 is_stmt 1
 1599 0026 3B68     		ldr	r3, [r7]
 1600 0028 002B     		cmp	r3, #0
 1601 002a 04DB     		blt	.L152
 1602              		.loc 1 792 0 is_stmt 0 discriminator 1
 1603 002c 3B68     		ldr	r3, [r7]
 1604 002e 012B     		cmp	r3, #1
 1605 0030 01DC     		bgt	.L152
 1606              		.loc 1 792 0 discriminator 3
 1607 0032 0123     		mov	r3, #1
 1608 0034 00E0     		b	.L153
 1609              	.L152:
 1610              		.loc 1 792 0 discriminator 2
 1611 0036 0023     		mov	r3, #0
 1612              	.L153:
 1613              		.loc 1 792 0 discriminator 4
 1614 0038 002B     		cmp	r3, #0
 1615 003a 02D1     		bne	.L154
 1616              		.loc 1 792 0 discriminator 1
 1617 003c 0020     		mov	r0, #0
 1618 003e FFF7FEFF 		bl	CyHalt
 1619              	.L154:
 793:.\Generated_Source\PSoC4/CyDMA.c **** 
 794:.\Generated_Source\PSoC4/CyDMA.c ****     CYDMA_DESCR_BASE.descriptor[channel][descriptor].status = CYDMA_VALID;
 1620              		.loc 1 794 0 is_stmt 1
 1621 0042 074A     		ldr	r2, .L155
 1622 0044 7B68     		ldr	r3, [r7, #4]
 1623 0046 5900     		lsl	r1, r3, #1
 1624 0048 3B68     		ldr	r3, [r7]
 1625 004a CB18     		add	r3, r1, r3
 1626 004c 1B01     		lsl	r3, r3, #4
 1627 004e D318     		add	r3, r2, r3
 1628 0050 0833     		add	r3, r3, #8
 1629 0052 8022     		mov	r2, #128
 1630 0054 1206     		lsl	r2, r2, #24
 1631 0056 5A60     		str	r2, [r3, #4]
 795:.\Generated_Source\PSoC4/CyDMA.c **** }
 1632              		.loc 1 795 0
 1633 0058 BD46     		mov	sp, r7
 1634 005a 02B0     		add	sp, sp, #8
 1635              		@ sp needed
 1636 005c 80BD     		pop	{r7, pc}
 1637              	.L156:
 1638 005e C046     		.align	2
 1639              	.L155:
 1640 0060 00181040 		.word	1074796544
 1641              		.cfi_endproc
 1642              	.LFE27:
 1643              		.size	CyDmaValidateDescriptor, .-CyDmaValidateDescriptor
 1644              		.section	.text.CyDmaGetDescriptorStatus,"ax",%progbits
 1645              		.align	2
 1646              		.global	CyDmaGetDescriptorStatus
ARM GAS  C:\Users\Matty\AppData\Local\Temp\ccXs7IQl.s 			page 44


 1647              		.code	16
 1648              		.thumb_func
 1649              		.type	CyDmaGetDescriptorStatus, %function
 1650              	CyDmaGetDescriptorStatus:
 1651              	.LFB28:
 796:.\Generated_Source\PSoC4/CyDMA.c **** 
 797:.\Generated_Source\PSoC4/CyDMA.c **** 
 798:.\Generated_Source\PSoC4/CyDMA.c **** /*******************************************************************************
 799:.\Generated_Source\PSoC4/CyDMA.c **** * Function Name: CyDmaGetDescriptorStatus
 800:.\Generated_Source\PSoC4/CyDMA.c **** ********************************************************************************
 801:.\Generated_Source\PSoC4/CyDMA.c **** *
 802:.\Generated_Source\PSoC4/CyDMA.c **** * Summary:
 803:.\Generated_Source\PSoC4/CyDMA.c **** *  Returns the status of the specified descriptor.
 804:.\Generated_Source\PSoC4/CyDMA.c **** *
 805:.\Generated_Source\PSoC4/CyDMA.c **** * Parameters:
 806:.\Generated_Source\PSoC4/CyDMA.c **** *  channel:    Channel used by this function.
 807:.\Generated_Source\PSoC4/CyDMA.c **** *  descriptor: Descriptor (0 or 1) modified by this function.
 808:.\Generated_Source\PSoC4/CyDMA.c **** *                   
 809:.\Generated_Source\PSoC4/CyDMA.c **** * Return:
 810:.\Generated_Source\PSoC4/CyDMA.c **** *  Returns the contents of the specified descriptors status register. Refer to 
 811:.\Generated_Source\PSoC4/CyDMA.c **** *  descriptor status register bit definitions in CyDMA_P4.h or the API
 812:.\Generated_Source\PSoC4/CyDMA.c **** *  description in the DMA channel datasheet for more information.
 813:.\Generated_Source\PSoC4/CyDMA.c **** *
 814:.\Generated_Source\PSoC4/CyDMA.c **** *******************************************************************************/
 815:.\Generated_Source\PSoC4/CyDMA.c **** uint32 CyDmaGetDescriptorStatus(int32 channel, int32 descriptor)
 816:.\Generated_Source\PSoC4/CyDMA.c **** {
 1652              		.loc 1 816 0
 1653              		.cfi_startproc
 1654 0000 80B5     		push	{r7, lr}
 1655              		.cfi_def_cfa_offset 8
 1656              		.cfi_offset 7, -8
 1657              		.cfi_offset 14, -4
 1658 0002 82B0     		sub	sp, sp, #8
 1659              		.cfi_def_cfa_offset 16
 1660 0004 00AF     		add	r7, sp, #0
 1661              		.cfi_def_cfa_register 7
 1662 0006 7860     		str	r0, [r7, #4]
 1663 0008 3960     		str	r1, [r7]
 817:.\Generated_Source\PSoC4/CyDMA.c ****     CYASSERT((channel    >= 0) && (channel    < CYDMA_CH_NR));
 1664              		.loc 1 817 0
 1665 000a 7B68     		ldr	r3, [r7, #4]
 1666 000c 002B     		cmp	r3, #0
 1667 000e 04DB     		blt	.L158
 1668              		.loc 1 817 0 is_stmt 0 discriminator 1
 1669 0010 7B68     		ldr	r3, [r7, #4]
 1670 0012 072B     		cmp	r3, #7
 1671 0014 01DC     		bgt	.L158
 1672              		.loc 1 817 0 discriminator 3
 1673 0016 0123     		mov	r3, #1
 1674 0018 00E0     		b	.L159
 1675              	.L158:
 1676              		.loc 1 817 0 discriminator 2
 1677 001a 0023     		mov	r3, #0
 1678              	.L159:
 1679              		.loc 1 817 0 discriminator 4
 1680 001c 002B     		cmp	r3, #0
 1681 001e 02D1     		bne	.L160
ARM GAS  C:\Users\Matty\AppData\Local\Temp\ccXs7IQl.s 			page 45


 1682              		.loc 1 817 0 discriminator 1
 1683 0020 0020     		mov	r0, #0
 1684 0022 FFF7FEFF 		bl	CyHalt
 1685              	.L160:
 818:.\Generated_Source\PSoC4/CyDMA.c ****     CYASSERT((descriptor >= 0) && (descriptor < CYDMA_DESCR_NR));
 1686              		.loc 1 818 0 is_stmt 1
 1687 0026 3B68     		ldr	r3, [r7]
 1688 0028 002B     		cmp	r3, #0
 1689 002a 04DB     		blt	.L161
 1690              		.loc 1 818 0 is_stmt 0 discriminator 1
 1691 002c 3B68     		ldr	r3, [r7]
 1692 002e 012B     		cmp	r3, #1
 1693 0030 01DC     		bgt	.L161
 1694              		.loc 1 818 0 discriminator 3
 1695 0032 0123     		mov	r3, #1
 1696 0034 00E0     		b	.L162
 1697              	.L161:
 1698              		.loc 1 818 0 discriminator 2
 1699 0036 0023     		mov	r3, #0
 1700              	.L162:
 1701              		.loc 1 818 0 discriminator 4
 1702 0038 002B     		cmp	r3, #0
 1703 003a 02D1     		bne	.L163
 1704              		.loc 1 818 0 discriminator 1
 1705 003c 0020     		mov	r0, #0
 1706 003e FFF7FEFF 		bl	CyHalt
 1707              	.L163:
 819:.\Generated_Source\PSoC4/CyDMA.c **** 
 820:.\Generated_Source\PSoC4/CyDMA.c ****     return (CYDMA_DESCR_BASE.descriptor[channel][descriptor].status);
 1708              		.loc 1 820 0 is_stmt 1
 1709 0042 064A     		ldr	r2, .L165
 1710 0044 7B68     		ldr	r3, [r7, #4]
 1711 0046 5900     		lsl	r1, r3, #1
 1712 0048 3B68     		ldr	r3, [r7]
 1713 004a CB18     		add	r3, r1, r3
 1714 004c 1B01     		lsl	r3, r3, #4
 1715 004e D318     		add	r3, r2, r3
 1716 0050 0833     		add	r3, r3, #8
 1717 0052 5B68     		ldr	r3, [r3, #4]
 821:.\Generated_Source\PSoC4/CyDMA.c **** }
 1718              		.loc 1 821 0
 1719 0054 181C     		mov	r0, r3
 1720 0056 BD46     		mov	sp, r7
 1721 0058 02B0     		add	sp, sp, #8
 1722              		@ sp needed
 1723 005a 80BD     		pop	{r7, pc}
 1724              	.L166:
 1725              		.align	2
 1726              	.L165:
 1727 005c 00181040 		.word	1074796544
 1728              		.cfi_endproc
 1729              	.LFE28:
 1730              		.size	CyDmaGetDescriptorStatus, .-CyDmaGetDescriptorStatus
 1731              		.section	.text.CyDmaSetSrcAddress,"ax",%progbits
 1732              		.align	2
 1733              		.global	CyDmaSetSrcAddress
 1734              		.code	16
ARM GAS  C:\Users\Matty\AppData\Local\Temp\ccXs7IQl.s 			page 46


 1735              		.thumb_func
 1736              		.type	CyDmaSetSrcAddress, %function
 1737              	CyDmaSetSrcAddress:
 1738              	.LFB29:
 822:.\Generated_Source\PSoC4/CyDMA.c **** 
 823:.\Generated_Source\PSoC4/CyDMA.c **** 
 824:.\Generated_Source\PSoC4/CyDMA.c **** /*******************************************************************************
 825:.\Generated_Source\PSoC4/CyDMA.c **** * Function Name: CyDmaSetSrcAddress
 826:.\Generated_Source\PSoC4/CyDMA.c **** ********************************************************************************
 827:.\Generated_Source\PSoC4/CyDMA.c **** *
 828:.\Generated_Source\PSoC4/CyDMA.c **** * Summary:
 829:.\Generated_Source\PSoC4/CyDMA.c **** *  Configures the source address for the specified descriptor.
 830:.\Generated_Source\PSoC4/CyDMA.c **** *
 831:.\Generated_Source\PSoC4/CyDMA.c **** * Parameters:
 832:.\Generated_Source\PSoC4/CyDMA.c **** *  channel:    Channel used by this function.
 833:.\Generated_Source\PSoC4/CyDMA.c **** *  descriptor: Descriptor (0 or 1) modified by this function.
 834:.\Generated_Source\PSoC4/CyDMA.c **** *  srcAddress: Address of DMA transfer source.
 835:.\Generated_Source\PSoC4/CyDMA.c **** *                   
 836:.\Generated_Source\PSoC4/CyDMA.c **** * Return:
 837:.\Generated_Source\PSoC4/CyDMA.c **** *  None.
 838:.\Generated_Source\PSoC4/CyDMA.c **** *
 839:.\Generated_Source\PSoC4/CyDMA.c **** * Side effect:
 840:.\Generated_Source\PSoC4/CyDMA.c **** *  This function should not be called when the specified descriptor is active
 841:.\Generated_Source\PSoC4/CyDMA.c **** *  in the DMA transfer engine. This can be checked by calling CyDmaGetStatus(). 
 842:.\Generated_Source\PSoC4/CyDMA.c **** *
 843:.\Generated_Source\PSoC4/CyDMA.c **** *******************************************************************************/
 844:.\Generated_Source\PSoC4/CyDMA.c **** void CyDmaSetSrcAddress(int32 channel, int32 descriptor, void * srcAddress)
 845:.\Generated_Source\PSoC4/CyDMA.c **** {
 1739              		.loc 1 845 0
 1740              		.cfi_startproc
 1741 0000 80B5     		push	{r7, lr}
 1742              		.cfi_def_cfa_offset 8
 1743              		.cfi_offset 7, -8
 1744              		.cfi_offset 14, -4
 1745 0002 84B0     		sub	sp, sp, #16
 1746              		.cfi_def_cfa_offset 24
 1747 0004 00AF     		add	r7, sp, #0
 1748              		.cfi_def_cfa_register 7
 1749 0006 F860     		str	r0, [r7, #12]
 1750 0008 B960     		str	r1, [r7, #8]
 1751 000a 7A60     		str	r2, [r7, #4]
 846:.\Generated_Source\PSoC4/CyDMA.c ****     CYASSERT((channel    >= 0) && (channel    < CYDMA_CH_NR));
 1752              		.loc 1 846 0
 1753 000c FB68     		ldr	r3, [r7, #12]
 1754 000e 002B     		cmp	r3, #0
 1755 0010 04DB     		blt	.L168
 1756              		.loc 1 846 0 is_stmt 0 discriminator 1
 1757 0012 FB68     		ldr	r3, [r7, #12]
 1758 0014 072B     		cmp	r3, #7
 1759 0016 01DC     		bgt	.L168
 1760              		.loc 1 846 0 discriminator 3
 1761 0018 0123     		mov	r3, #1
 1762 001a 00E0     		b	.L169
 1763              	.L168:
 1764              		.loc 1 846 0 discriminator 2
 1765 001c 0023     		mov	r3, #0
 1766              	.L169:
ARM GAS  C:\Users\Matty\AppData\Local\Temp\ccXs7IQl.s 			page 47


 1767              		.loc 1 846 0 discriminator 4
 1768 001e 002B     		cmp	r3, #0
 1769 0020 02D1     		bne	.L170
 1770              		.loc 1 846 0 discriminator 1
 1771 0022 0020     		mov	r0, #0
 1772 0024 FFF7FEFF 		bl	CyHalt
 1773              	.L170:
 847:.\Generated_Source\PSoC4/CyDMA.c ****     CYASSERT((descriptor >= 0) && (descriptor < CYDMA_DESCR_NR));
 1774              		.loc 1 847 0 is_stmt 1
 1775 0028 BB68     		ldr	r3, [r7, #8]
 1776 002a 002B     		cmp	r3, #0
 1777 002c 04DB     		blt	.L171
 1778              		.loc 1 847 0 is_stmt 0 discriminator 1
 1779 002e BB68     		ldr	r3, [r7, #8]
 1780 0030 012B     		cmp	r3, #1
 1781 0032 01DC     		bgt	.L171
 1782              		.loc 1 847 0 discriminator 3
 1783 0034 0123     		mov	r3, #1
 1784 0036 00E0     		b	.L172
 1785              	.L171:
 1786              		.loc 1 847 0 discriminator 2
 1787 0038 0023     		mov	r3, #0
 1788              	.L172:
 1789              		.loc 1 847 0 discriminator 4
 1790 003a 002B     		cmp	r3, #0
 1791 003c 02D1     		bne	.L173
 1792              		.loc 1 847 0 discriminator 1
 1793 003e 0020     		mov	r0, #0
 1794 0040 FFF7FEFF 		bl	CyHalt
 1795              	.L173:
 848:.\Generated_Source\PSoC4/CyDMA.c **** 
 849:.\Generated_Source\PSoC4/CyDMA.c ****     CYDMA_DESCR_BASE.descriptor[channel][descriptor].src = srcAddress;
 1796              		.loc 1 849 0 is_stmt 1
 1797 0044 054B     		ldr	r3, .L174
 1798 0046 FA68     		ldr	r2, [r7, #12]
 1799 0048 5100     		lsl	r1, r2, #1
 1800 004a BA68     		ldr	r2, [r7, #8]
 1801 004c 8A18     		add	r2, r1, r2
 1802 004e 1201     		lsl	r2, r2, #4
 1803 0050 7968     		ldr	r1, [r7, #4]
 1804 0052 D150     		str	r1, [r2, r3]
 850:.\Generated_Source\PSoC4/CyDMA.c **** }
 1805              		.loc 1 850 0
 1806 0054 BD46     		mov	sp, r7
 1807 0056 04B0     		add	sp, sp, #16
 1808              		@ sp needed
 1809 0058 80BD     		pop	{r7, pc}
 1810              	.L175:
 1811 005a C046     		.align	2
 1812              	.L174:
 1813 005c 00181040 		.word	1074796544
 1814              		.cfi_endproc
 1815              	.LFE29:
 1816              		.size	CyDmaSetSrcAddress, .-CyDmaSetSrcAddress
 1817              		.section	.text.CyDmaGetSrcAddress,"ax",%progbits
 1818              		.align	2
 1819              		.global	CyDmaGetSrcAddress
ARM GAS  C:\Users\Matty\AppData\Local\Temp\ccXs7IQl.s 			page 48


 1820              		.code	16
 1821              		.thumb_func
 1822              		.type	CyDmaGetSrcAddress, %function
 1823              	CyDmaGetSrcAddress:
 1824              	.LFB30:
 851:.\Generated_Source\PSoC4/CyDMA.c **** 
 852:.\Generated_Source\PSoC4/CyDMA.c **** 
 853:.\Generated_Source\PSoC4/CyDMA.c **** /*******************************************************************************
 854:.\Generated_Source\PSoC4/CyDMA.c **** * Function Name: CyDmaGetSrcAddress
 855:.\Generated_Source\PSoC4/CyDMA.c **** ********************************************************************************
 856:.\Generated_Source\PSoC4/CyDMA.c **** *
 857:.\Generated_Source\PSoC4/CyDMA.c **** * Summary:
 858:.\Generated_Source\PSoC4/CyDMA.c **** *  Returns the source address for the specified descriptor, set by 
 859:.\Generated_Source\PSoC4/CyDMA.c **** *  CyDmaSetSrcAddress().
 860:.\Generated_Source\PSoC4/CyDMA.c **** *
 861:.\Generated_Source\PSoC4/CyDMA.c **** * Parameters:
 862:.\Generated_Source\PSoC4/CyDMA.c **** *  channel:    Channel used by this function.
 863:.\Generated_Source\PSoC4/CyDMA.c **** *  descriptor: Specifies descriptor (0 or 1) used by this function.
 864:.\Generated_Source\PSoC4/CyDMA.c **** *                   
 865:.\Generated_Source\PSoC4/CyDMA.c **** * Return:
 866:.\Generated_Source\PSoC4/CyDMA.c **** *  Source address written to specified descriptor.
 867:.\Generated_Source\PSoC4/CyDMA.c **** *
 868:.\Generated_Source\PSoC4/CyDMA.c **** *******************************************************************************/
 869:.\Generated_Source\PSoC4/CyDMA.c **** void * CyDmaGetSrcAddress(int32 channel, int32 descriptor)
 870:.\Generated_Source\PSoC4/CyDMA.c **** {
 1825              		.loc 1 870 0
 1826              		.cfi_startproc
 1827 0000 80B5     		push	{r7, lr}
 1828              		.cfi_def_cfa_offset 8
 1829              		.cfi_offset 7, -8
 1830              		.cfi_offset 14, -4
 1831 0002 82B0     		sub	sp, sp, #8
 1832              		.cfi_def_cfa_offset 16
 1833 0004 00AF     		add	r7, sp, #0
 1834              		.cfi_def_cfa_register 7
 1835 0006 7860     		str	r0, [r7, #4]
 1836 0008 3960     		str	r1, [r7]
 871:.\Generated_Source\PSoC4/CyDMA.c ****     CYASSERT((channel    >= 0) && (channel    < CYDMA_CH_NR));
 1837              		.loc 1 871 0
 1838 000a 7B68     		ldr	r3, [r7, #4]
 1839 000c 002B     		cmp	r3, #0
 1840 000e 04DB     		blt	.L177
 1841              		.loc 1 871 0 is_stmt 0 discriminator 1
 1842 0010 7B68     		ldr	r3, [r7, #4]
 1843 0012 072B     		cmp	r3, #7
 1844 0014 01DC     		bgt	.L177
 1845              		.loc 1 871 0 discriminator 3
 1846 0016 0123     		mov	r3, #1
 1847 0018 00E0     		b	.L178
 1848              	.L177:
 1849              		.loc 1 871 0 discriminator 2
 1850 001a 0023     		mov	r3, #0
 1851              	.L178:
 1852              		.loc 1 871 0 discriminator 4
 1853 001c 002B     		cmp	r3, #0
 1854 001e 02D1     		bne	.L179
 1855              		.loc 1 871 0 discriminator 1
ARM GAS  C:\Users\Matty\AppData\Local\Temp\ccXs7IQl.s 			page 49


 1856 0020 0020     		mov	r0, #0
 1857 0022 FFF7FEFF 		bl	CyHalt
 1858              	.L179:
 872:.\Generated_Source\PSoC4/CyDMA.c ****     CYASSERT((descriptor >= 0) && (descriptor < CYDMA_DESCR_NR));
 1859              		.loc 1 872 0 is_stmt 1
 1860 0026 3B68     		ldr	r3, [r7]
 1861 0028 002B     		cmp	r3, #0
 1862 002a 04DB     		blt	.L180
 1863              		.loc 1 872 0 is_stmt 0 discriminator 1
 1864 002c 3B68     		ldr	r3, [r7]
 1865 002e 012B     		cmp	r3, #1
 1866 0030 01DC     		bgt	.L180
 1867              		.loc 1 872 0 discriminator 3
 1868 0032 0123     		mov	r3, #1
 1869 0034 00E0     		b	.L181
 1870              	.L180:
 1871              		.loc 1 872 0 discriminator 2
 1872 0036 0023     		mov	r3, #0
 1873              	.L181:
 1874              		.loc 1 872 0 discriminator 4
 1875 0038 002B     		cmp	r3, #0
 1876 003a 02D1     		bne	.L182
 1877              		.loc 1 872 0 discriminator 1
 1878 003c 0020     		mov	r0, #0
 1879 003e FFF7FEFF 		bl	CyHalt
 1880              	.L182:
 873:.\Generated_Source\PSoC4/CyDMA.c **** 
 874:.\Generated_Source\PSoC4/CyDMA.c ****     return (CYDMA_DESCR_BASE.descriptor[channel][descriptor].src);
 1881              		.loc 1 874 0 is_stmt 1
 1882 0042 054B     		ldr	r3, .L184
 1883 0044 7A68     		ldr	r2, [r7, #4]
 1884 0046 5100     		lsl	r1, r2, #1
 1885 0048 3A68     		ldr	r2, [r7]
 1886 004a 8A18     		add	r2, r1, r2
 1887 004c 1201     		lsl	r2, r2, #4
 1888 004e D358     		ldr	r3, [r2, r3]
 875:.\Generated_Source\PSoC4/CyDMA.c **** }
 1889              		.loc 1 875 0
 1890 0050 181C     		mov	r0, r3
 1891 0052 BD46     		mov	sp, r7
 1892 0054 02B0     		add	sp, sp, #8
 1893              		@ sp needed
 1894 0056 80BD     		pop	{r7, pc}
 1895              	.L185:
 1896              		.align	2
 1897              	.L184:
 1898 0058 00181040 		.word	1074796544
 1899              		.cfi_endproc
 1900              	.LFE30:
 1901              		.size	CyDmaGetSrcAddress, .-CyDmaGetSrcAddress
 1902              		.section	.text.CyDmaSetDstAddress,"ax",%progbits
 1903              		.align	2
 1904              		.global	CyDmaSetDstAddress
 1905              		.code	16
 1906              		.thumb_func
 1907              		.type	CyDmaSetDstAddress, %function
 1908              	CyDmaSetDstAddress:
ARM GAS  C:\Users\Matty\AppData\Local\Temp\ccXs7IQl.s 			page 50


 1909              	.LFB31:
 876:.\Generated_Source\PSoC4/CyDMA.c **** 
 877:.\Generated_Source\PSoC4/CyDMA.c **** 
 878:.\Generated_Source\PSoC4/CyDMA.c **** /*******************************************************************************
 879:.\Generated_Source\PSoC4/CyDMA.c **** * Function Name: CyDmaSetDstAddress
 880:.\Generated_Source\PSoC4/CyDMA.c **** ********************************************************************************
 881:.\Generated_Source\PSoC4/CyDMA.c **** *
 882:.\Generated_Source\PSoC4/CyDMA.c **** * Summary:
 883:.\Generated_Source\PSoC4/CyDMA.c **** *  Configures the destination address for the specified descriptor.
 884:.\Generated_Source\PSoC4/CyDMA.c **** *
 885:.\Generated_Source\PSoC4/CyDMA.c **** * Parameters:
 886:.\Generated_Source\PSoC4/CyDMA.c **** *  channel:    Channel used by this function.
 887:.\Generated_Source\PSoC4/CyDMA.c **** *  descriptor: Descriptor (0 or 1) modified by this function.
 888:.\Generated_Source\PSoC4/CyDMA.c **** *  dstAddress: Address of DMA transfer destination.
 889:.\Generated_Source\PSoC4/CyDMA.c **** *                   
 890:.\Generated_Source\PSoC4/CyDMA.c **** * Return:
 891:.\Generated_Source\PSoC4/CyDMA.c **** *  None.
 892:.\Generated_Source\PSoC4/CyDMA.c **** *
 893:.\Generated_Source\PSoC4/CyDMA.c **** * Side effect:
 894:.\Generated_Source\PSoC4/CyDMA.c **** *  This function should not be called when the specified descriptor is active
 895:.\Generated_Source\PSoC4/CyDMA.c **** *  in the DMA transfer engine. This can be checked by calling CyDmaGetStatus(). 
 896:.\Generated_Source\PSoC4/CyDMA.c **** *
 897:.\Generated_Source\PSoC4/CyDMA.c **** *******************************************************************************/
 898:.\Generated_Source\PSoC4/CyDMA.c **** void CyDmaSetDstAddress(int32 channel, int32 descriptor, void * dstAddress)
 899:.\Generated_Source\PSoC4/CyDMA.c **** {
 1910              		.loc 1 899 0
 1911              		.cfi_startproc
 1912 0000 80B5     		push	{r7, lr}
 1913              		.cfi_def_cfa_offset 8
 1914              		.cfi_offset 7, -8
 1915              		.cfi_offset 14, -4
 1916 0002 84B0     		sub	sp, sp, #16
 1917              		.cfi_def_cfa_offset 24
 1918 0004 00AF     		add	r7, sp, #0
 1919              		.cfi_def_cfa_register 7
 1920 0006 F860     		str	r0, [r7, #12]
 1921 0008 B960     		str	r1, [r7, #8]
 1922 000a 7A60     		str	r2, [r7, #4]
 900:.\Generated_Source\PSoC4/CyDMA.c ****     CYASSERT((channel    >= 0) && (channel    < CYDMA_CH_NR));
 1923              		.loc 1 900 0
 1924 000c FB68     		ldr	r3, [r7, #12]
 1925 000e 002B     		cmp	r3, #0
 1926 0010 04DB     		blt	.L187
 1927              		.loc 1 900 0 is_stmt 0 discriminator 1
 1928 0012 FB68     		ldr	r3, [r7, #12]
 1929 0014 072B     		cmp	r3, #7
 1930 0016 01DC     		bgt	.L187
 1931              		.loc 1 900 0 discriminator 3
 1932 0018 0123     		mov	r3, #1
 1933 001a 00E0     		b	.L188
 1934              	.L187:
 1935              		.loc 1 900 0 discriminator 2
 1936 001c 0023     		mov	r3, #0
 1937              	.L188:
 1938              		.loc 1 900 0 discriminator 4
 1939 001e 002B     		cmp	r3, #0
 1940 0020 02D1     		bne	.L189
ARM GAS  C:\Users\Matty\AppData\Local\Temp\ccXs7IQl.s 			page 51


 1941              		.loc 1 900 0 discriminator 1
 1942 0022 0020     		mov	r0, #0
 1943 0024 FFF7FEFF 		bl	CyHalt
 1944              	.L189:
 901:.\Generated_Source\PSoC4/CyDMA.c ****     CYASSERT((descriptor >= 0) && (descriptor < CYDMA_DESCR_NR));
 1945              		.loc 1 901 0 is_stmt 1
 1946 0028 BB68     		ldr	r3, [r7, #8]
 1947 002a 002B     		cmp	r3, #0
 1948 002c 04DB     		blt	.L190
 1949              		.loc 1 901 0 is_stmt 0 discriminator 1
 1950 002e BB68     		ldr	r3, [r7, #8]
 1951 0030 012B     		cmp	r3, #1
 1952 0032 01DC     		bgt	.L190
 1953              		.loc 1 901 0 discriminator 3
 1954 0034 0123     		mov	r3, #1
 1955 0036 00E0     		b	.L191
 1956              	.L190:
 1957              		.loc 1 901 0 discriminator 2
 1958 0038 0023     		mov	r3, #0
 1959              	.L191:
 1960              		.loc 1 901 0 discriminator 4
 1961 003a 002B     		cmp	r3, #0
 1962 003c 02D1     		bne	.L192
 1963              		.loc 1 901 0 discriminator 1
 1964 003e 0020     		mov	r0, #0
 1965 0040 FFF7FEFF 		bl	CyHalt
 1966              	.L192:
 902:.\Generated_Source\PSoC4/CyDMA.c **** 
 903:.\Generated_Source\PSoC4/CyDMA.c ****     CYDMA_DESCR_BASE.descriptor[channel][descriptor].dst = dstAddress;
 1967              		.loc 1 903 0 is_stmt 1
 1968 0044 054A     		ldr	r2, .L193
 1969 0046 FB68     		ldr	r3, [r7, #12]
 1970 0048 5900     		lsl	r1, r3, #1
 1971 004a BB68     		ldr	r3, [r7, #8]
 1972 004c CB18     		add	r3, r1, r3
 1973 004e 1B01     		lsl	r3, r3, #4
 1974 0050 D318     		add	r3, r2, r3
 1975 0052 7A68     		ldr	r2, [r7, #4]
 1976 0054 5A60     		str	r2, [r3, #4]
 904:.\Generated_Source\PSoC4/CyDMA.c **** }
 1977              		.loc 1 904 0
 1978 0056 BD46     		mov	sp, r7
 1979 0058 04B0     		add	sp, sp, #16
 1980              		@ sp needed
 1981 005a 80BD     		pop	{r7, pc}
 1982              	.L194:
 1983              		.align	2
 1984              	.L193:
 1985 005c 00181040 		.word	1074796544
 1986              		.cfi_endproc
 1987              	.LFE31:
 1988              		.size	CyDmaSetDstAddress, .-CyDmaSetDstAddress
 1989              		.section	.text.CyDmaGetDstAddress,"ax",%progbits
 1990              		.align	2
 1991              		.global	CyDmaGetDstAddress
 1992              		.code	16
 1993              		.thumb_func
ARM GAS  C:\Users\Matty\AppData\Local\Temp\ccXs7IQl.s 			page 52


 1994              		.type	CyDmaGetDstAddress, %function
 1995              	CyDmaGetDstAddress:
 1996              	.LFB32:
 905:.\Generated_Source\PSoC4/CyDMA.c **** 
 906:.\Generated_Source\PSoC4/CyDMA.c **** 
 907:.\Generated_Source\PSoC4/CyDMA.c **** /*******************************************************************************
 908:.\Generated_Source\PSoC4/CyDMA.c **** * Function Name: CyDmaGetDstAddress
 909:.\Generated_Source\PSoC4/CyDMA.c **** ********************************************************************************
 910:.\Generated_Source\PSoC4/CyDMA.c **** *
 911:.\Generated_Source\PSoC4/CyDMA.c **** * Summary:
 912:.\Generated_Source\PSoC4/CyDMA.c **** *  Returns the destination address for the specified descriptor, set by 
 913:.\Generated_Source\PSoC4/CyDMA.c **** *  CyDmaSetDstAddress().
 914:.\Generated_Source\PSoC4/CyDMA.c **** *
 915:.\Generated_Source\PSoC4/CyDMA.c **** * Parameters:
 916:.\Generated_Source\PSoC4/CyDMA.c **** *  channel:    Channel used by this function.
 917:.\Generated_Source\PSoC4/CyDMA.c **** *  descriptor: Specifies descriptor (0 or 1) used by this function.
 918:.\Generated_Source\PSoC4/CyDMA.c **** *                   
 919:.\Generated_Source\PSoC4/CyDMA.c **** * Return:
 920:.\Generated_Source\PSoC4/CyDMA.c **** *  Destination address written to specified descriptor.
 921:.\Generated_Source\PSoC4/CyDMA.c **** *
 922:.\Generated_Source\PSoC4/CyDMA.c **** *******************************************************************************/
 923:.\Generated_Source\PSoC4/CyDMA.c **** void * CyDmaGetDstAddress(int32 channel, int32 descriptor)
 924:.\Generated_Source\PSoC4/CyDMA.c **** {
 1997              		.loc 1 924 0
 1998              		.cfi_startproc
 1999 0000 80B5     		push	{r7, lr}
 2000              		.cfi_def_cfa_offset 8
 2001              		.cfi_offset 7, -8
 2002              		.cfi_offset 14, -4
 2003 0002 82B0     		sub	sp, sp, #8
 2004              		.cfi_def_cfa_offset 16
 2005 0004 00AF     		add	r7, sp, #0
 2006              		.cfi_def_cfa_register 7
 2007 0006 7860     		str	r0, [r7, #4]
 2008 0008 3960     		str	r1, [r7]
 925:.\Generated_Source\PSoC4/CyDMA.c ****     CYASSERT((channel    >= 0) && (channel    < CYDMA_CH_NR));
 2009              		.loc 1 925 0
 2010 000a 7B68     		ldr	r3, [r7, #4]
 2011 000c 002B     		cmp	r3, #0
 2012 000e 04DB     		blt	.L196
 2013              		.loc 1 925 0 is_stmt 0 discriminator 1
 2014 0010 7B68     		ldr	r3, [r7, #4]
 2015 0012 072B     		cmp	r3, #7
 2016 0014 01DC     		bgt	.L196
 2017              		.loc 1 925 0 discriminator 3
 2018 0016 0123     		mov	r3, #1
 2019 0018 00E0     		b	.L197
 2020              	.L196:
 2021              		.loc 1 925 0 discriminator 2
 2022 001a 0023     		mov	r3, #0
 2023              	.L197:
 2024              		.loc 1 925 0 discriminator 4
 2025 001c 002B     		cmp	r3, #0
 2026 001e 02D1     		bne	.L198
 2027              		.loc 1 925 0 discriminator 1
 2028 0020 0020     		mov	r0, #0
 2029 0022 FFF7FEFF 		bl	CyHalt
ARM GAS  C:\Users\Matty\AppData\Local\Temp\ccXs7IQl.s 			page 53


 2030              	.L198:
 926:.\Generated_Source\PSoC4/CyDMA.c ****     CYASSERT((descriptor >= 0) && (descriptor < CYDMA_DESCR_NR));
 2031              		.loc 1 926 0 is_stmt 1
 2032 0026 3B68     		ldr	r3, [r7]
 2033 0028 002B     		cmp	r3, #0
 2034 002a 04DB     		blt	.L199
 2035              		.loc 1 926 0 is_stmt 0 discriminator 1
 2036 002c 3B68     		ldr	r3, [r7]
 2037 002e 012B     		cmp	r3, #1
 2038 0030 01DC     		bgt	.L199
 2039              		.loc 1 926 0 discriminator 3
 2040 0032 0123     		mov	r3, #1
 2041 0034 00E0     		b	.L200
 2042              	.L199:
 2043              		.loc 1 926 0 discriminator 2
 2044 0036 0023     		mov	r3, #0
 2045              	.L200:
 2046              		.loc 1 926 0 discriminator 4
 2047 0038 002B     		cmp	r3, #0
 2048 003a 02D1     		bne	.L201
 2049              		.loc 1 926 0 discriminator 1
 2050 003c 0020     		mov	r0, #0
 2051 003e FFF7FEFF 		bl	CyHalt
 2052              	.L201:
 927:.\Generated_Source\PSoC4/CyDMA.c **** 
 928:.\Generated_Source\PSoC4/CyDMA.c ****     return (CYDMA_DESCR_BASE.descriptor[channel][descriptor].dst);
 2053              		.loc 1 928 0 is_stmt 1
 2054 0042 064A     		ldr	r2, .L203
 2055 0044 7B68     		ldr	r3, [r7, #4]
 2056 0046 5900     		lsl	r1, r3, #1
 2057 0048 3B68     		ldr	r3, [r7]
 2058 004a CB18     		add	r3, r1, r3
 2059 004c 1B01     		lsl	r3, r3, #4
 2060 004e D318     		add	r3, r2, r3
 2061 0050 5B68     		ldr	r3, [r3, #4]
 929:.\Generated_Source\PSoC4/CyDMA.c **** }
 2062              		.loc 1 929 0
 2063 0052 181C     		mov	r0, r3
 2064 0054 BD46     		mov	sp, r7
 2065 0056 02B0     		add	sp, sp, #8
 2066              		@ sp needed
 2067 0058 80BD     		pop	{r7, pc}
 2068              	.L204:
 2069 005a C046     		.align	2
 2070              	.L203:
 2071 005c 00181040 		.word	1074796544
 2072              		.cfi_endproc
 2073              	.LFE32:
 2074              		.size	CyDmaGetDstAddress, .-CyDmaGetDstAddress
 2075              		.section	.text.CyDmaSetDataElementSize,"ax",%progbits
 2076              		.align	2
 2077              		.global	CyDmaSetDataElementSize
 2078              		.code	16
 2079              		.thumb_func
 2080              		.type	CyDmaSetDataElementSize, %function
 2081              	CyDmaSetDataElementSize:
 2082              	.LFB33:
ARM GAS  C:\Users\Matty\AppData\Local\Temp\ccXs7IQl.s 			page 54


 930:.\Generated_Source\PSoC4/CyDMA.c **** 
 931:.\Generated_Source\PSoC4/CyDMA.c **** /*******************************************************************************
 932:.\Generated_Source\PSoC4/CyDMA.c **** * Function Name: CyDmaSetDataElementSize
 933:.\Generated_Source\PSoC4/CyDMA.c **** ********************************************************************************
 934:.\Generated_Source\PSoC4/CyDMA.c **** *
 935:.\Generated_Source\PSoC4/CyDMA.c **** * Summary:
 936:.\Generated_Source\PSoC4/CyDMA.c **** *  Sets the data element size for the specified descriptor.
 937:.\Generated_Source\PSoC4/CyDMA.c **** *
 938:.\Generated_Source\PSoC4/CyDMA.c **** * Parameters:
 939:.\Generated_Source\PSoC4/CyDMA.c **** *  channel:         Channel used by this function.
 940:.\Generated_Source\PSoC4/CyDMA.c **** *  descriptor:      Descriptor (0 or 1) modified by this function.
 941:.\Generated_Source\PSoC4/CyDMA.c **** *  dataElementSize: Specifies the size of the data element. The DMA transfer
 942:.\Generated_Source\PSoC4/CyDMA.c **** *                   engine transfers one data element at a time. How these
 943:.\Generated_Source\PSoC4/CyDMA.c **** *                   transfers occur is controlled by the transfer mode.
 944:.\Generated_Source\PSoC4/CyDMA.c **** *                   Refer to the API bit field definitions in CyDMA_P4.h
 945:.\Generated_Source\PSoC4/CyDMA.c **** *                   or API description in the DMA channel datasheet for the 
 946:.\Generated_Source\PSoC4/CyDMA.c **** *                   parameter options.
 947:.\Generated_Source\PSoC4/CyDMA.c **** *
 948:.\Generated_Source\PSoC4/CyDMA.c **** * Return:
 949:.\Generated_Source\PSoC4/CyDMA.c **** *  None.
 950:.\Generated_Source\PSoC4/CyDMA.c **** *
 951:.\Generated_Source\PSoC4/CyDMA.c **** * Side effect:
 952:.\Generated_Source\PSoC4/CyDMA.c **** *  This function should not be called when the specified descriptor is active
 953:.\Generated_Source\PSoC4/CyDMA.c **** *  in the DMA transfer engine. This can be checked by calling CyDmaGetStatus(). 
 954:.\Generated_Source\PSoC4/CyDMA.c **** *
 955:.\Generated_Source\PSoC4/CyDMA.c **** *******************************************************************************/
 956:.\Generated_Source\PSoC4/CyDMA.c **** void CyDmaSetDataElementSize(int32 channel, int32 descriptor, uint32 dataElementSize)
 957:.\Generated_Source\PSoC4/CyDMA.c **** {
 2083              		.loc 1 957 0
 2084              		.cfi_startproc
 2085 0000 80B5     		push	{r7, lr}
 2086              		.cfi_def_cfa_offset 8
 2087              		.cfi_offset 7, -8
 2088              		.cfi_offset 14, -4
 2089 0002 86B0     		sub	sp, sp, #24
 2090              		.cfi_def_cfa_offset 32
 2091 0004 00AF     		add	r7, sp, #0
 2092              		.cfi_def_cfa_register 7
 2093 0006 F860     		str	r0, [r7, #12]
 2094 0008 B960     		str	r1, [r7, #8]
 2095 000a 7A60     		str	r2, [r7, #4]
 958:.\Generated_Source\PSoC4/CyDMA.c ****     uint32 regValue;
 959:.\Generated_Source\PSoC4/CyDMA.c ****     
 960:.\Generated_Source\PSoC4/CyDMA.c ****     CYASSERT((channel    >= 0) && (channel    < CYDMA_CH_NR));
 2096              		.loc 1 960 0
 2097 000c FB68     		ldr	r3, [r7, #12]
 2098 000e 002B     		cmp	r3, #0
 2099 0010 04DB     		blt	.L206
 2100              		.loc 1 960 0 is_stmt 0 discriminator 1
 2101 0012 FB68     		ldr	r3, [r7, #12]
 2102 0014 072B     		cmp	r3, #7
 2103 0016 01DC     		bgt	.L206
 2104              		.loc 1 960 0 discriminator 3
 2105 0018 0123     		mov	r3, #1
 2106 001a 00E0     		b	.L207
 2107              	.L206:
 2108              		.loc 1 960 0 discriminator 2
ARM GAS  C:\Users\Matty\AppData\Local\Temp\ccXs7IQl.s 			page 55


 2109 001c 0023     		mov	r3, #0
 2110              	.L207:
 2111              		.loc 1 960 0 discriminator 4
 2112 001e 002B     		cmp	r3, #0
 2113 0020 02D1     		bne	.L208
 2114              		.loc 1 960 0 discriminator 1
 2115 0022 0020     		mov	r0, #0
 2116 0024 FFF7FEFF 		bl	CyHalt
 2117              	.L208:
 961:.\Generated_Source\PSoC4/CyDMA.c ****     CYASSERT((descriptor >= 0) && (descriptor < CYDMA_DESCR_NR));
 2118              		.loc 1 961 0 is_stmt 1
 2119 0028 BB68     		ldr	r3, [r7, #8]
 2120 002a 002B     		cmp	r3, #0
 2121 002c 04DB     		blt	.L209
 2122              		.loc 1 961 0 is_stmt 0 discriminator 1
 2123 002e BB68     		ldr	r3, [r7, #8]
 2124 0030 012B     		cmp	r3, #1
 2125 0032 01DC     		bgt	.L209
 2126              		.loc 1 961 0 discriminator 3
 2127 0034 0123     		mov	r3, #1
 2128 0036 00E0     		b	.L210
 2129              	.L209:
 2130              		.loc 1 961 0 discriminator 2
 2131 0038 0023     		mov	r3, #0
 2132              	.L210:
 2133              		.loc 1 961 0 discriminator 4
 2134 003a 002B     		cmp	r3, #0
 2135 003c 02D1     		bne	.L211
 2136              		.loc 1 961 0 discriminator 1
 2137 003e 0020     		mov	r0, #0
 2138 0040 FFF7FEFF 		bl	CyHalt
 2139              	.L211:
 962:.\Generated_Source\PSoC4/CyDMA.c ****     CYASSERT(0u == (dataElementSize & (uint32)~CYDMA_DATA_SIZE));
 2140              		.loc 1 962 0 is_stmt 1
 2141 0044 7A68     		ldr	r2, [r7, #4]
 2142 0046 104B     		ldr	r3, .L213
 2143 0048 1340     		and	r3, r2
 2144 004a 02D0     		beq	.L212
 2145              		.loc 1 962 0 is_stmt 0 discriminator 1
 2146 004c 0020     		mov	r0, #0
 2147 004e FFF7FEFF 		bl	CyHalt
 2148              	.L212:
 963:.\Generated_Source\PSoC4/CyDMA.c **** 
 964:.\Generated_Source\PSoC4/CyDMA.c ****     regValue = CYDMA_DESCR_BASE.descriptor[channel][descriptor].ctl & (uint32)~CYDMA_DATA_SIZE;
 2149              		.loc 1 964 0 is_stmt 1
 2150 0052 0E4A     		ldr	r2, .L213+4
 2151 0054 FB68     		ldr	r3, [r7, #12]
 2152 0056 5900     		lsl	r1, r3, #1
 2153 0058 BB68     		ldr	r3, [r7, #8]
 2154 005a CB18     		add	r3, r1, r3
 2155 005c 1B01     		lsl	r3, r3, #4
 2156 005e D318     		add	r3, r2, r3
 2157 0060 0833     		add	r3, r3, #8
 2158 0062 1A68     		ldr	r2, [r3]
 2159 0064 084B     		ldr	r3, .L213
 2160 0066 1340     		and	r3, r2
 2161 0068 7B61     		str	r3, [r7, #20]
ARM GAS  C:\Users\Matty\AppData\Local\Temp\ccXs7IQl.s 			page 56


 965:.\Generated_Source\PSoC4/CyDMA.c ****     CYDMA_DESCR_BASE.descriptor[channel][descriptor].ctl = regValue | dataElementSize;
 2162              		.loc 1 965 0
 2163 006a 0849     		ldr	r1, .L213+4
 2164 006c 7A69     		ldr	r2, [r7, #20]
 2165 006e 7B68     		ldr	r3, [r7, #4]
 2166 0070 1A43     		orr	r2, r3
 2167 0072 FB68     		ldr	r3, [r7, #12]
 2168 0074 5800     		lsl	r0, r3, #1
 2169 0076 BB68     		ldr	r3, [r7, #8]
 2170 0078 C318     		add	r3, r0, r3
 2171 007a 1B01     		lsl	r3, r3, #4
 2172 007c CB18     		add	r3, r1, r3
 2173 007e 0833     		add	r3, r3, #8
 2174 0080 1A60     		str	r2, [r3]
 966:.\Generated_Source\PSoC4/CyDMA.c **** }
 2175              		.loc 1 966 0
 2176 0082 BD46     		mov	sp, r7
 2177 0084 06B0     		add	sp, sp, #24
 2178              		@ sp needed
 2179 0086 80BD     		pop	{r7, pc}
 2180              	.L214:
 2181              		.align	2
 2182              	.L213:
 2183 0088 FFFFFCFF 		.word	-196609
 2184 008c 00181040 		.word	1074796544
 2185              		.cfi_endproc
 2186              	.LFE33:
 2187              		.size	CyDmaSetDataElementSize, .-CyDmaSetDataElementSize
 2188              		.section	.text.CyDmaGetDataElementSize,"ax",%progbits
 2189              		.align	2
 2190              		.global	CyDmaGetDataElementSize
 2191              		.code	16
 2192              		.thumb_func
 2193              		.type	CyDmaGetDataElementSize, %function
 2194              	CyDmaGetDataElementSize:
 2195              	.LFB34:
 967:.\Generated_Source\PSoC4/CyDMA.c **** 
 968:.\Generated_Source\PSoC4/CyDMA.c **** 
 969:.\Generated_Source\PSoC4/CyDMA.c **** /*******************************************************************************
 970:.\Generated_Source\PSoC4/CyDMA.c **** * Function Name: CyDmaGetDataElementSize
 971:.\Generated_Source\PSoC4/CyDMA.c **** ********************************************************************************
 972:.\Generated_Source\PSoC4/CyDMA.c **** *
 973:.\Generated_Source\PSoC4/CyDMA.c **** * Summary:
 974:.\Generated_Source\PSoC4/CyDMA.c **** *  Returns the data element size configured for the specified descriptor, set by
 975:.\Generated_Source\PSoC4/CyDMA.c **** *  CyDmaSetDataElementSize() or CyDmaSetConfiguration.
 976:.\Generated_Source\PSoC4/CyDMA.c **** *
 977:.\Generated_Source\PSoC4/CyDMA.c **** * Parameters:
 978:.\Generated_Source\PSoC4/CyDMA.c **** *  channel:    Channel used by this function.
 979:.\Generated_Source\PSoC4/CyDMA.c **** *  descriptor: Descriptor (0 or 1) modified by this function.
 980:.\Generated_Source\PSoC4/CyDMA.c **** *                   
 981:.\Generated_Source\PSoC4/CyDMA.c **** * Return:
 982:.\Generated_Source\PSoC4/CyDMA.c **** *  The size of the data element. The DMA transfer engine transfers one data
 983:.\Generated_Source\PSoC4/CyDMA.c **** *  element at a time. How these transfers occur is controlled by the transfer
 984:.\Generated_Source\PSoC4/CyDMA.c **** *  mode. Refer to the API bit field definitions in CyDMA_P4.h or the API 
 985:.\Generated_Source\PSoC4/CyDMA.c **** *  description in the DMA channel datasheet for more information.
 986:.\Generated_Source\PSoC4/CyDMA.c **** *
 987:.\Generated_Source\PSoC4/CyDMA.c **** * Note:
ARM GAS  C:\Users\Matty\AppData\Local\Temp\ccXs7IQl.s 			page 57


 988:.\Generated_Source\PSoC4/CyDMA.c **** *  The size of the source and destination can be configured to use the
 989:.\Generated_Source\PSoC4/CyDMA.c **** *  data element size, or a Word, this is set in CyDmaSetSrcDstTransferWidth().
 990:.\Generated_Source\PSoC4/CyDMA.c **** *
 991:.\Generated_Source\PSoC4/CyDMA.c **** *******************************************************************************/
 992:.\Generated_Source\PSoC4/CyDMA.c **** uint32 CyDmaGetDataElementSize(int32 channel, int32 descriptor)
 993:.\Generated_Source\PSoC4/CyDMA.c **** {
 2196              		.loc 1 993 0
 2197              		.cfi_startproc
 2198 0000 80B5     		push	{r7, lr}
 2199              		.cfi_def_cfa_offset 8
 2200              		.cfi_offset 7, -8
 2201              		.cfi_offset 14, -4
 2202 0002 82B0     		sub	sp, sp, #8
 2203              		.cfi_def_cfa_offset 16
 2204 0004 00AF     		add	r7, sp, #0
 2205              		.cfi_def_cfa_register 7
 2206 0006 7860     		str	r0, [r7, #4]
 2207 0008 3960     		str	r1, [r7]
 994:.\Generated_Source\PSoC4/CyDMA.c ****     CYASSERT((channel    >= 0) && (channel    < CYDMA_CH_NR));
 2208              		.loc 1 994 0
 2209 000a 7B68     		ldr	r3, [r7, #4]
 2210 000c 002B     		cmp	r3, #0
 2211 000e 04DB     		blt	.L216
 2212              		.loc 1 994 0 is_stmt 0 discriminator 1
 2213 0010 7B68     		ldr	r3, [r7, #4]
 2214 0012 072B     		cmp	r3, #7
 2215 0014 01DC     		bgt	.L216
 2216              		.loc 1 994 0 discriminator 3
 2217 0016 0123     		mov	r3, #1
 2218 0018 00E0     		b	.L217
 2219              	.L216:
 2220              		.loc 1 994 0 discriminator 2
 2221 001a 0023     		mov	r3, #0
 2222              	.L217:
 2223              		.loc 1 994 0 discriminator 4
 2224 001c 002B     		cmp	r3, #0
 2225 001e 02D1     		bne	.L218
 2226              		.loc 1 994 0 discriminator 1
 2227 0020 0020     		mov	r0, #0
 2228 0022 FFF7FEFF 		bl	CyHalt
 2229              	.L218:
 995:.\Generated_Source\PSoC4/CyDMA.c ****     CYASSERT((descriptor >= 0) && (descriptor < CYDMA_DESCR_NR));
 2230              		.loc 1 995 0 is_stmt 1
 2231 0026 3B68     		ldr	r3, [r7]
 2232 0028 002B     		cmp	r3, #0
 2233 002a 04DB     		blt	.L219
 2234              		.loc 1 995 0 is_stmt 0 discriminator 1
 2235 002c 3B68     		ldr	r3, [r7]
 2236 002e 012B     		cmp	r3, #1
 2237 0030 01DC     		bgt	.L219
 2238              		.loc 1 995 0 discriminator 3
 2239 0032 0123     		mov	r3, #1
 2240 0034 00E0     		b	.L220
 2241              	.L219:
 2242              		.loc 1 995 0 discriminator 2
 2243 0036 0023     		mov	r3, #0
 2244              	.L220:
ARM GAS  C:\Users\Matty\AppData\Local\Temp\ccXs7IQl.s 			page 58


 2245              		.loc 1 995 0 discriminator 4
 2246 0038 002B     		cmp	r3, #0
 2247 003a 02D1     		bne	.L221
 2248              		.loc 1 995 0 discriminator 1
 2249 003c 0020     		mov	r0, #0
 2250 003e FFF7FEFF 		bl	CyHalt
 2251              	.L221:
 996:.\Generated_Source\PSoC4/CyDMA.c **** 
 997:.\Generated_Source\PSoC4/CyDMA.c ****     return (CYDMA_DESCR_BASE.descriptor[channel][descriptor].ctl & CYDMA_DATA_SIZE);
 2252              		.loc 1 997 0 is_stmt 1
 2253 0042 084A     		ldr	r2, .L223
 2254 0044 7B68     		ldr	r3, [r7, #4]
 2255 0046 5900     		lsl	r1, r3, #1
 2256 0048 3B68     		ldr	r3, [r7]
 2257 004a CB18     		add	r3, r1, r3
 2258 004c 1B01     		lsl	r3, r3, #4
 2259 004e D318     		add	r3, r2, r3
 2260 0050 0833     		add	r3, r3, #8
 2261 0052 1A68     		ldr	r2, [r3]
 2262 0054 C023     		mov	r3, #192
 2263 0056 9B02     		lsl	r3, r3, #10
 2264 0058 1340     		and	r3, r2
 998:.\Generated_Source\PSoC4/CyDMA.c **** }
 2265              		.loc 1 998 0
 2266 005a 181C     		mov	r0, r3
 2267 005c BD46     		mov	sp, r7
 2268 005e 02B0     		add	sp, sp, #8
 2269              		@ sp needed
 2270 0060 80BD     		pop	{r7, pc}
 2271              	.L224:
 2272 0062 C046     		.align	2
 2273              	.L223:
 2274 0064 00181040 		.word	1074796544
 2275              		.cfi_endproc
 2276              	.LFE34:
 2277              		.size	CyDmaGetDataElementSize, .-CyDmaGetDataElementSize
 2278              		.section	.text.CyDmaSetNumDataElements,"ax",%progbits
 2279              		.align	2
 2280              		.global	CyDmaSetNumDataElements
 2281              		.code	16
 2282              		.thumb_func
 2283              		.type	CyDmaSetNumDataElements, %function
 2284              	CyDmaSetNumDataElements:
 2285              	.LFB35:
 999:.\Generated_Source\PSoC4/CyDMA.c **** 
1000:.\Generated_Source\PSoC4/CyDMA.c **** 
1001:.\Generated_Source\PSoC4/CyDMA.c **** /*******************************************************************************
1002:.\Generated_Source\PSoC4/CyDMA.c **** * Function Name: CyDmaSetNumDataElements
1003:.\Generated_Source\PSoC4/CyDMA.c **** ********************************************************************************
1004:.\Generated_Source\PSoC4/CyDMA.c **** *
1005:.\Generated_Source\PSoC4/CyDMA.c **** * Summary:
1006:.\Generated_Source\PSoC4/CyDMA.c **** *  Sets the number of data elements to transfer for specified descriptor.
1007:.\Generated_Source\PSoC4/CyDMA.c **** *
1008:.\Generated_Source\PSoC4/CyDMA.c **** * Parameters:
1009:.\Generated_Source\PSoC4/CyDMA.c **** *  channel:         Channel used by this function.
1010:.\Generated_Source\PSoC4/CyDMA.c **** *  descriptor:      Descriptor (0 or 1) modified by this function.
1011:.\Generated_Source\PSoC4/CyDMA.c **** *  numDataElements: Total number of data elements this descriptor transfers.
ARM GAS  C:\Users\Matty\AppData\Local\Temp\ccXs7IQl.s 			page 59


1012:.\Generated_Source\PSoC4/CyDMA.c **** *                   Valid ranges are 1 to 65536.
1013:.\Generated_Source\PSoC4/CyDMA.c **** *                   
1014:.\Generated_Source\PSoC4/CyDMA.c **** * Return:
1015:.\Generated_Source\PSoC4/CyDMA.c **** *  None.
1016:.\Generated_Source\PSoC4/CyDMA.c **** *
1017:.\Generated_Source\PSoC4/CyDMA.c **** * Side effect:
1018:.\Generated_Source\PSoC4/CyDMA.c **** *  This function should not be called when the specified descriptor is active
1019:.\Generated_Source\PSoC4/CyDMA.c **** *  in the DMA transfer engine. This can be checked by calling CyDmaGetStatus(). 
1020:.\Generated_Source\PSoC4/CyDMA.c **** *
1021:.\Generated_Source\PSoC4/CyDMA.c **** *******************************************************************************/
1022:.\Generated_Source\PSoC4/CyDMA.c **** void CyDmaSetNumDataElements(int32 channel, int32 descriptor, int32 numDataElements)
1023:.\Generated_Source\PSoC4/CyDMA.c **** {
 2286              		.loc 1 1023 0
 2287              		.cfi_startproc
 2288 0000 80B5     		push	{r7, lr}
 2289              		.cfi_def_cfa_offset 8
 2290              		.cfi_offset 7, -8
 2291              		.cfi_offset 14, -4
 2292 0002 86B0     		sub	sp, sp, #24
 2293              		.cfi_def_cfa_offset 32
 2294 0004 00AF     		add	r7, sp, #0
 2295              		.cfi_def_cfa_register 7
 2296 0006 F860     		str	r0, [r7, #12]
 2297 0008 B960     		str	r1, [r7, #8]
 2298 000a 7A60     		str	r2, [r7, #4]
1024:.\Generated_Source\PSoC4/CyDMA.c ****     uint32 regValue;
1025:.\Generated_Source\PSoC4/CyDMA.c ****     
1026:.\Generated_Source\PSoC4/CyDMA.c ****     CYASSERT((channel        >= 0) && (channel         <  CYDMA_CH_NR));
 2299              		.loc 1 1026 0
 2300 000c FB68     		ldr	r3, [r7, #12]
 2301 000e 002B     		cmp	r3, #0
 2302 0010 04DB     		blt	.L226
 2303              		.loc 1 1026 0 is_stmt 0 discriminator 1
 2304 0012 FB68     		ldr	r3, [r7, #12]
 2305 0014 072B     		cmp	r3, #7
 2306 0016 01DC     		bgt	.L226
 2307              		.loc 1 1026 0 discriminator 3
 2308 0018 0123     		mov	r3, #1
 2309 001a 00E0     		b	.L227
 2310              	.L226:
 2311              		.loc 1 1026 0 discriminator 2
 2312 001c 0023     		mov	r3, #0
 2313              	.L227:
 2314              		.loc 1 1026 0 discriminator 4
 2315 001e 002B     		cmp	r3, #0
 2316 0020 02D1     		bne	.L228
 2317              		.loc 1 1026 0 discriminator 1
 2318 0022 0020     		mov	r0, #0
 2319 0024 FFF7FEFF 		bl	CyHalt
 2320              	.L228:
1027:.\Generated_Source\PSoC4/CyDMA.c ****     CYASSERT((descriptor     >= 0) && (descriptor      <  CYDMA_DESCR_NR));
 2321              		.loc 1 1027 0 is_stmt 1
 2322 0028 BB68     		ldr	r3, [r7, #8]
 2323 002a 002B     		cmp	r3, #0
 2324 002c 04DB     		blt	.L229
 2325              		.loc 1 1027 0 is_stmt 0 discriminator 1
 2326 002e BB68     		ldr	r3, [r7, #8]
ARM GAS  C:\Users\Matty\AppData\Local\Temp\ccXs7IQl.s 			page 60


 2327 0030 012B     		cmp	r3, #1
 2328 0032 01DC     		bgt	.L229
 2329              		.loc 1 1027 0 discriminator 3
 2330 0034 0123     		mov	r3, #1
 2331 0036 00E0     		b	.L230
 2332              	.L229:
 2333              		.loc 1 1027 0 discriminator 2
 2334 0038 0023     		mov	r3, #0
 2335              	.L230:
 2336              		.loc 1 1027 0 discriminator 4
 2337 003a 002B     		cmp	r3, #0
 2338 003c 02D1     		bne	.L231
 2339              		.loc 1 1027 0 discriminator 1
 2340 003e 0020     		mov	r0, #0
 2341 0040 FFF7FEFF 		bl	CyHalt
 2342              	.L231:
1028:.\Generated_Source\PSoC4/CyDMA.c ****     CYASSERT((numDataElements > 0) && (numDataElements <= CYDMA_MAX_DATA_NR));
 2343              		.loc 1 1028 0 is_stmt 1
 2344 0044 7B68     		ldr	r3, [r7, #4]
 2345 0046 002B     		cmp	r3, #0
 2346 0048 06DD     		ble	.L232
 2347              		.loc 1 1028 0 is_stmt 0 discriminator 1
 2348 004a 7A68     		ldr	r2, [r7, #4]
 2349 004c 8023     		mov	r3, #128
 2350 004e 5B02     		lsl	r3, r3, #9
 2351 0050 9A42     		cmp	r2, r3
 2352 0052 01DC     		bgt	.L232
 2353              		.loc 1 1028 0 discriminator 3
 2354 0054 0123     		mov	r3, #1
 2355 0056 00E0     		b	.L233
 2356              	.L232:
 2357              		.loc 1 1028 0 discriminator 2
 2358 0058 0023     		mov	r3, #0
 2359              	.L233:
 2360              		.loc 1 1028 0 discriminator 4
 2361 005a 002B     		cmp	r3, #0
 2362 005c 02D1     		bne	.L234
 2363              		.loc 1 1028 0 discriminator 1
 2364 005e 0020     		mov	r0, #0
 2365 0060 FFF7FEFF 		bl	CyHalt
 2366              	.L234:
1029:.\Generated_Source\PSoC4/CyDMA.c ****     
1030:.\Generated_Source\PSoC4/CyDMA.c ****     --numDataElements;
 2367              		.loc 1 1030 0 is_stmt 1
 2368 0064 7B68     		ldr	r3, [r7, #4]
 2369 0066 013B     		sub	r3, r3, #1
 2370 0068 7B60     		str	r3, [r7, #4]
1031:.\Generated_Source\PSoC4/CyDMA.c ****     regValue = CYDMA_DESCR_BASE.descriptor[channel][descriptor].ctl & (uint32)~CYDMA_DATA_NR;
 2371              		.loc 1 1031 0
 2372 006a 0D4A     		ldr	r2, .L235
 2373 006c FB68     		ldr	r3, [r7, #12]
 2374 006e 5900     		lsl	r1, r3, #1
 2375 0070 BB68     		ldr	r3, [r7, #8]
 2376 0072 CB18     		add	r3, r1, r3
 2377 0074 1B01     		lsl	r3, r3, #4
 2378 0076 D318     		add	r3, r2, r3
 2379 0078 0833     		add	r3, r3, #8
ARM GAS  C:\Users\Matty\AppData\Local\Temp\ccXs7IQl.s 			page 61


 2380 007a 1B68     		ldr	r3, [r3]
 2381 007c 1B0C     		lsr	r3, r3, #16
 2382 007e 1B04     		lsl	r3, r3, #16
 2383 0080 7B61     		str	r3, [r7, #20]
1032:.\Generated_Source\PSoC4/CyDMA.c ****     CYDMA_DESCR_BASE.descriptor[channel][descriptor].ctl = regValue | (uint32)numDataElements;
 2384              		.loc 1 1032 0
 2385 0082 0749     		ldr	r1, .L235
 2386 0084 7A68     		ldr	r2, [r7, #4]
 2387 0086 7B69     		ldr	r3, [r7, #20]
 2388 0088 1A43     		orr	r2, r3
 2389 008a FB68     		ldr	r3, [r7, #12]
 2390 008c 5800     		lsl	r0, r3, #1
 2391 008e BB68     		ldr	r3, [r7, #8]
 2392 0090 C318     		add	r3, r0, r3
 2393 0092 1B01     		lsl	r3, r3, #4
 2394 0094 CB18     		add	r3, r1, r3
 2395 0096 0833     		add	r3, r3, #8
 2396 0098 1A60     		str	r2, [r3]
1033:.\Generated_Source\PSoC4/CyDMA.c **** }
 2397              		.loc 1 1033 0
 2398 009a BD46     		mov	sp, r7
 2399 009c 06B0     		add	sp, sp, #24
 2400              		@ sp needed
 2401 009e 80BD     		pop	{r7, pc}
 2402              	.L236:
 2403              		.align	2
 2404              	.L235:
 2405 00a0 00181040 		.word	1074796544
 2406              		.cfi_endproc
 2407              	.LFE35:
 2408              		.size	CyDmaSetNumDataElements, .-CyDmaSetNumDataElements
 2409              		.section	.text.CyDmaGetNumDataElements,"ax",%progbits
 2410              		.align	2
 2411              		.global	CyDmaGetNumDataElements
 2412              		.code	16
 2413              		.thumb_func
 2414              		.type	CyDmaGetNumDataElements, %function
 2415              	CyDmaGetNumDataElements:
 2416              	.LFB36:
1034:.\Generated_Source\PSoC4/CyDMA.c **** 
1035:.\Generated_Source\PSoC4/CyDMA.c **** 
1036:.\Generated_Source\PSoC4/CyDMA.c **** /*******************************************************************************
1037:.\Generated_Source\PSoC4/CyDMA.c **** * Function Name: CyDmaGetNumDataElements
1038:.\Generated_Source\PSoC4/CyDMA.c **** ********************************************************************************
1039:.\Generated_Source\PSoC4/CyDMA.c **** *
1040:.\Generated_Source\PSoC4/CyDMA.c **** * Summary:
1041:.\Generated_Source\PSoC4/CyDMA.c **** *  Returns the number of data elements to be transferred. Only reflects the
1042:.\Generated_Source\PSoC4/CyDMA.c **** *  value written by CyDmaSetNumDataElements() or CyDmaSetConfiguration(). This
1043:.\Generated_Source\PSoC4/CyDMA.c **** *  does not reflect how many elements have been transferred. For that
1044:.\Generated_Source\PSoC4/CyDMA.c **** *  information use the CyDmaGetDescriptorStatus() function.
1045:.\Generated_Source\PSoC4/CyDMA.c **** *
1046:.\Generated_Source\PSoC4/CyDMA.c **** * Parameters:
1047:.\Generated_Source\PSoC4/CyDMA.c **** *  channel:    Channel used by this function.
1048:.\Generated_Source\PSoC4/CyDMA.c **** *  descriptor: Descriptor (0 or 1) modified by this function.
1049:.\Generated_Source\PSoC4/CyDMA.c **** *                   
1050:.\Generated_Source\PSoC4/CyDMA.c **** * Return:
1051:.\Generated_Source\PSoC4/CyDMA.c **** *  Number of data elements to transfer.
ARM GAS  C:\Users\Matty\AppData\Local\Temp\ccXs7IQl.s 			page 62


1052:.\Generated_Source\PSoC4/CyDMA.c **** *
1053:.\Generated_Source\PSoC4/CyDMA.c **** *******************************************************************************/
1054:.\Generated_Source\PSoC4/CyDMA.c **** int32 CyDmaGetNumDataElements(int32 channel, int32 descriptor)
1055:.\Generated_Source\PSoC4/CyDMA.c **** {
 2417              		.loc 1 1055 0
 2418              		.cfi_startproc
 2419 0000 80B5     		push	{r7, lr}
 2420              		.cfi_def_cfa_offset 8
 2421              		.cfi_offset 7, -8
 2422              		.cfi_offset 14, -4
 2423 0002 84B0     		sub	sp, sp, #16
 2424              		.cfi_def_cfa_offset 24
 2425 0004 00AF     		add	r7, sp, #0
 2426              		.cfi_def_cfa_register 7
 2427 0006 7860     		str	r0, [r7, #4]
 2428 0008 3960     		str	r1, [r7]
1056:.\Generated_Source\PSoC4/CyDMA.c ****     uint32 numElements;
1057:.\Generated_Source\PSoC4/CyDMA.c **** 
1058:.\Generated_Source\PSoC4/CyDMA.c ****     CYASSERT((channel    >= 0) && (channel    < CYDMA_CH_NR));
 2429              		.loc 1 1058 0
 2430 000a 7B68     		ldr	r3, [r7, #4]
 2431 000c 002B     		cmp	r3, #0
 2432 000e 04DB     		blt	.L238
 2433              		.loc 1 1058 0 is_stmt 0 discriminator 1
 2434 0010 7B68     		ldr	r3, [r7, #4]
 2435 0012 072B     		cmp	r3, #7
 2436 0014 01DC     		bgt	.L238
 2437              		.loc 1 1058 0 discriminator 3
 2438 0016 0123     		mov	r3, #1
 2439 0018 00E0     		b	.L239
 2440              	.L238:
 2441              		.loc 1 1058 0 discriminator 2
 2442 001a 0023     		mov	r3, #0
 2443              	.L239:
 2444              		.loc 1 1058 0 discriminator 4
 2445 001c 002B     		cmp	r3, #0
 2446 001e 02D1     		bne	.L240
 2447              		.loc 1 1058 0 discriminator 1
 2448 0020 0020     		mov	r0, #0
 2449 0022 FFF7FEFF 		bl	CyHalt
 2450              	.L240:
1059:.\Generated_Source\PSoC4/CyDMA.c ****     CYASSERT((descriptor >= 0) && (descriptor < CYDMA_DESCR_NR));
 2451              		.loc 1 1059 0 is_stmt 1
 2452 0026 3B68     		ldr	r3, [r7]
 2453 0028 002B     		cmp	r3, #0
 2454 002a 04DB     		blt	.L241
 2455              		.loc 1 1059 0 is_stmt 0 discriminator 1
 2456 002c 3B68     		ldr	r3, [r7]
 2457 002e 012B     		cmp	r3, #1
 2458 0030 01DC     		bgt	.L241
 2459              		.loc 1 1059 0 discriminator 3
 2460 0032 0123     		mov	r3, #1
 2461 0034 00E0     		b	.L242
 2462              	.L241:
 2463              		.loc 1 1059 0 discriminator 2
 2464 0036 0023     		mov	r3, #0
 2465              	.L242:
ARM GAS  C:\Users\Matty\AppData\Local\Temp\ccXs7IQl.s 			page 63


 2466              		.loc 1 1059 0 discriminator 4
 2467 0038 002B     		cmp	r3, #0
 2468 003a 02D1     		bne	.L243
 2469              		.loc 1 1059 0 discriminator 1
 2470 003c 0020     		mov	r0, #0
 2471 003e FFF7FEFF 		bl	CyHalt
 2472              	.L243:
1060:.\Generated_Source\PSoC4/CyDMA.c ****     
1061:.\Generated_Source\PSoC4/CyDMA.c ****     numElements = (CYDMA_DESCR_BASE.descriptor[channel][descriptor].ctl & CYDMA_DATA_NR) + 1u;
 2473              		.loc 1 1061 0 is_stmt 1
 2474 0042 094A     		ldr	r2, .L245
 2475 0044 7B68     		ldr	r3, [r7, #4]
 2476 0046 5900     		lsl	r1, r3, #1
 2477 0048 3B68     		ldr	r3, [r7]
 2478 004a CB18     		add	r3, r1, r3
 2479 004c 1B01     		lsl	r3, r3, #4
 2480 004e D318     		add	r3, r2, r3
 2481 0050 0833     		add	r3, r3, #8
 2482 0052 1B68     		ldr	r3, [r3]
 2483 0054 1B04     		lsl	r3, r3, #16
 2484 0056 1B0C     		lsr	r3, r3, #16
 2485 0058 0133     		add	r3, r3, #1
 2486 005a FB60     		str	r3, [r7, #12]
1062:.\Generated_Source\PSoC4/CyDMA.c ****     return ((int32)numElements);
 2487              		.loc 1 1062 0
 2488 005c FB68     		ldr	r3, [r7, #12]
1063:.\Generated_Source\PSoC4/CyDMA.c **** }
 2489              		.loc 1 1063 0
 2490 005e 181C     		mov	r0, r3
 2491 0060 BD46     		mov	sp, r7
 2492 0062 04B0     		add	sp, sp, #16
 2493              		@ sp needed
 2494 0064 80BD     		pop	{r7, pc}
 2495              	.L246:
 2496 0066 C046     		.align	2
 2497              	.L245:
 2498 0068 00181040 		.word	1074796544
 2499              		.cfi_endproc
 2500              	.LFE36:
 2501              		.size	CyDmaGetNumDataElements, .-CyDmaGetNumDataElements
 2502              		.section	.text.CyDmaSetSrcDstTransferWidth,"ax",%progbits
 2503              		.align	2
 2504              		.global	CyDmaSetSrcDstTransferWidth
 2505              		.code	16
 2506              		.thumb_func
 2507              		.type	CyDmaSetSrcDstTransferWidth, %function
 2508              	CyDmaSetSrcDstTransferWidth:
 2509              	.LFB37:
1064:.\Generated_Source\PSoC4/CyDMA.c **** 
1065:.\Generated_Source\PSoC4/CyDMA.c **** 
1066:.\Generated_Source\PSoC4/CyDMA.c **** /*******************************************************************************
1067:.\Generated_Source\PSoC4/CyDMA.c **** * Function Name: CyDmaSetSrcDstTransferWidth
1068:.\Generated_Source\PSoC4/CyDMA.c **** ********************************************************************************
1069:.\Generated_Source\PSoC4/CyDMA.c **** *
1070:.\Generated_Source\PSoC4/CyDMA.c **** * Summary:
1071:.\Generated_Source\PSoC4/CyDMA.c **** *  Sets the width of the source and destination. The DMA can either read and
1072:.\Generated_Source\PSoC4/CyDMA.c **** *  write data from the source and destination at the size specified by
ARM GAS  C:\Users\Matty\AppData\Local\Temp\ccXs7IQl.s 			page 64


1073:.\Generated_Source\PSoC4/CyDMA.c **** *  CyDmaSetDataElementSize() or by a word (4bytes). This also determines how
1074:.\Generated_Source\PSoC4/CyDMA.c **** *  many bytes the addresses are incremented if increment source and destination
1075:.\Generated_Source\PSoC4/CyDMA.c **** *  address are turned on.
1076:.\Generated_Source\PSoC4/CyDMA.c **** *
1077:.\Generated_Source\PSoC4/CyDMA.c **** * Parameters:
1078:.\Generated_Source\PSoC4/CyDMA.c **** *  channel:       Channel used by this function.
1079:.\Generated_Source\PSoC4/CyDMA.c **** *  descriptor:    Descriptor (0 or 1) modified by this function.
1080:.\Generated_Source\PSoC4/CyDMA.c **** *  transferWidth: Specifies the source and destination widths. Refer to 
1081:.\Generated_Source\PSoC4/CyDMA.c **** *                 the API bit field definitions in CyDMA_P4.h or the API
1082:.\Generated_Source\PSoC4/CyDMA.c **** *                 description in the DMA channel datasheet for the parameter
1083:.\Generated_Source\PSoC4/CyDMA.c **** *                 options.
1084:.\Generated_Source\PSoC4/CyDMA.c **** *                   
1085:.\Generated_Source\PSoC4/CyDMA.c **** * Return:
1086:.\Generated_Source\PSoC4/CyDMA.c **** *  None.
1087:.\Generated_Source\PSoC4/CyDMA.c **** *
1088:.\Generated_Source\PSoC4/CyDMA.c **** * Side effect:
1089:.\Generated_Source\PSoC4/CyDMA.c **** *  This function should not be called when the specified descriptor is active
1090:.\Generated_Source\PSoC4/CyDMA.c **** *  in the DMA transfer engine. This can be checked by calling CyDmaGetStatus(). 
1091:.\Generated_Source\PSoC4/CyDMA.c **** *
1092:.\Generated_Source\PSoC4/CyDMA.c **** *******************************************************************************/
1093:.\Generated_Source\PSoC4/CyDMA.c **** void CyDmaSetSrcDstTransferWidth(int32 channel, int32 descriptor, uint32 transferWidth)
1094:.\Generated_Source\PSoC4/CyDMA.c **** {
 2510              		.loc 1 1094 0
 2511              		.cfi_startproc
 2512 0000 80B5     		push	{r7, lr}
 2513              		.cfi_def_cfa_offset 8
 2514              		.cfi_offset 7, -8
 2515              		.cfi_offset 14, -4
 2516 0002 86B0     		sub	sp, sp, #24
 2517              		.cfi_def_cfa_offset 32
 2518 0004 00AF     		add	r7, sp, #0
 2519              		.cfi_def_cfa_register 7
 2520 0006 F860     		str	r0, [r7, #12]
 2521 0008 B960     		str	r1, [r7, #8]
 2522 000a 7A60     		str	r2, [r7, #4]
1095:.\Generated_Source\PSoC4/CyDMA.c ****     uint32 regValue;
1096:.\Generated_Source\PSoC4/CyDMA.c **** 
1097:.\Generated_Source\PSoC4/CyDMA.c ****     CYASSERT((channel    >= 0) && (channel    < CYDMA_CH_NR));
 2523              		.loc 1 1097 0
 2524 000c FB68     		ldr	r3, [r7, #12]
 2525 000e 002B     		cmp	r3, #0
 2526 0010 04DB     		blt	.L248
 2527              		.loc 1 1097 0 is_stmt 0 discriminator 1
 2528 0012 FB68     		ldr	r3, [r7, #12]
 2529 0014 072B     		cmp	r3, #7
 2530 0016 01DC     		bgt	.L248
 2531              		.loc 1 1097 0 discriminator 3
 2532 0018 0123     		mov	r3, #1
 2533 001a 00E0     		b	.L249
 2534              	.L248:
 2535              		.loc 1 1097 0 discriminator 2
 2536 001c 0023     		mov	r3, #0
 2537              	.L249:
 2538              		.loc 1 1097 0 discriminator 4
 2539 001e 002B     		cmp	r3, #0
 2540 0020 02D1     		bne	.L250
 2541              		.loc 1 1097 0 discriminator 1
ARM GAS  C:\Users\Matty\AppData\Local\Temp\ccXs7IQl.s 			page 65


 2542 0022 0020     		mov	r0, #0
 2543 0024 FFF7FEFF 		bl	CyHalt
 2544              	.L250:
1098:.\Generated_Source\PSoC4/CyDMA.c ****     CYASSERT((descriptor >= 0) && (descriptor < CYDMA_DESCR_NR));
 2545              		.loc 1 1098 0 is_stmt 1
 2546 0028 BB68     		ldr	r3, [r7, #8]
 2547 002a 002B     		cmp	r3, #0
 2548 002c 04DB     		blt	.L251
 2549              		.loc 1 1098 0 is_stmt 0 discriminator 1
 2550 002e BB68     		ldr	r3, [r7, #8]
 2551 0030 012B     		cmp	r3, #1
 2552 0032 01DC     		bgt	.L251
 2553              		.loc 1 1098 0 discriminator 3
 2554 0034 0123     		mov	r3, #1
 2555 0036 00E0     		b	.L252
 2556              	.L251:
 2557              		.loc 1 1098 0 discriminator 2
 2558 0038 0023     		mov	r3, #0
 2559              	.L252:
 2560              		.loc 1 1098 0 discriminator 4
 2561 003a 002B     		cmp	r3, #0
 2562 003c 02D1     		bne	.L253
 2563              		.loc 1 1098 0 discriminator 1
 2564 003e 0020     		mov	r0, #0
 2565 0040 FFF7FEFF 		bl	CyHalt
 2566              	.L253:
1099:.\Generated_Source\PSoC4/CyDMA.c ****     CYASSERT(0u == (transferWidth & (uint32)~CYDMA_TRANSFER_WIDTH));
 2567              		.loc 1 1099 0 is_stmt 1
 2568 0044 7A68     		ldr	r2, [r7, #4]
 2569 0046 104B     		ldr	r3, .L255
 2570 0048 1340     		and	r3, r2
 2571 004a 02D0     		beq	.L254
 2572              		.loc 1 1099 0 is_stmt 0 discriminator 1
 2573 004c 0020     		mov	r0, #0
 2574 004e FFF7FEFF 		bl	CyHalt
 2575              	.L254:
1100:.\Generated_Source\PSoC4/CyDMA.c **** 
1101:.\Generated_Source\PSoC4/CyDMA.c ****     regValue = CYDMA_DESCR_BASE.descriptor[channel][descriptor].ctl & (uint32)~CYDMA_TRANSFER_WIDTH
 2576              		.loc 1 1101 0 is_stmt 1
 2577 0052 0E4A     		ldr	r2, .L255+4
 2578 0054 FB68     		ldr	r3, [r7, #12]
 2579 0056 5900     		lsl	r1, r3, #1
 2580 0058 BB68     		ldr	r3, [r7, #8]
 2581 005a CB18     		add	r3, r1, r3
 2582 005c 1B01     		lsl	r3, r3, #4
 2583 005e D318     		add	r3, r2, r3
 2584 0060 0833     		add	r3, r3, #8
 2585 0062 1A68     		ldr	r2, [r3]
 2586 0064 084B     		ldr	r3, .L255
 2587 0066 1340     		and	r3, r2
 2588 0068 7B61     		str	r3, [r7, #20]
1102:.\Generated_Source\PSoC4/CyDMA.c ****     CYDMA_DESCR_BASE.descriptor[channel][descriptor].ctl = regValue | transferWidth;
 2589              		.loc 1 1102 0
 2590 006a 0849     		ldr	r1, .L255+4
 2591 006c 7A69     		ldr	r2, [r7, #20]
 2592 006e 7B68     		ldr	r3, [r7, #4]
 2593 0070 1A43     		orr	r2, r3
ARM GAS  C:\Users\Matty\AppData\Local\Temp\ccXs7IQl.s 			page 66


 2594 0072 FB68     		ldr	r3, [r7, #12]
 2595 0074 5800     		lsl	r0, r3, #1
 2596 0076 BB68     		ldr	r3, [r7, #8]
 2597 0078 C318     		add	r3, r0, r3
 2598 007a 1B01     		lsl	r3, r3, #4
 2599 007c CB18     		add	r3, r1, r3
 2600 007e 0833     		add	r3, r3, #8
 2601 0080 1A60     		str	r2, [r3]
1103:.\Generated_Source\PSoC4/CyDMA.c **** }
 2602              		.loc 1 1103 0
 2603 0082 BD46     		mov	sp, r7
 2604 0084 06B0     		add	sp, sp, #24
 2605              		@ sp needed
 2606 0086 80BD     		pop	{r7, pc}
 2607              	.L256:
 2608              		.align	2
 2609              	.L255:
 2610 0088 FFFFAFFF 		.word	-5242881
 2611 008c 00181040 		.word	1074796544
 2612              		.cfi_endproc
 2613              	.LFE37:
 2614              		.size	CyDmaSetSrcDstTransferWidth, .-CyDmaSetSrcDstTransferWidth
 2615              		.section	.text.CyDmaGetSrcDstTransferWidth,"ax",%progbits
 2616              		.align	2
 2617              		.global	CyDmaGetSrcDstTransferWidth
 2618              		.code	16
 2619              		.thumb_func
 2620              		.type	CyDmaGetSrcDstTransferWidth, %function
 2621              	CyDmaGetSrcDstTransferWidth:
 2622              	.LFB38:
1104:.\Generated_Source\PSoC4/CyDMA.c **** 
1105:.\Generated_Source\PSoC4/CyDMA.c **** 
1106:.\Generated_Source\PSoC4/CyDMA.c **** /*******************************************************************************
1107:.\Generated_Source\PSoC4/CyDMA.c **** * Function Name: CyDmaGetSrcDstTransferWidth
1108:.\Generated_Source\PSoC4/CyDMA.c **** ********************************************************************************
1109:.\Generated_Source\PSoC4/CyDMA.c **** *
1110:.\Generated_Source\PSoC4/CyDMA.c **** * Summary:
1111:.\Generated_Source\PSoC4/CyDMA.c **** *  Returns the width of the source and destination, as set by 
1112:.\Generated_Source\PSoC4/CyDMA.c **** *  CyDmaSetSrcDstTransferWidth() or CyDmaSetConfiguration().
1113:.\Generated_Source\PSoC4/CyDMA.c **** *
1114:.\Generated_Source\PSoC4/CyDMA.c **** * Parameters:
1115:.\Generated_Source\PSoC4/CyDMA.c **** *  channel:    Channel used by this function.
1116:.\Generated_Source\PSoC4/CyDMA.c **** *  descriptor: Descriptor (0 or 1) modified by this function.
1117:.\Generated_Source\PSoC4/CyDMA.c **** *                   
1118:.\Generated_Source\PSoC4/CyDMA.c **** * Return:
1119:.\Generated_Source\PSoC4/CyDMA.c **** *  Width of source and destination. Refer to the API bit field definitions in
1120:.\Generated_Source\PSoC4/CyDMA.c **** *  CyDMA_P4.h or the API description in the DMA channel datasheet for more
1121:.\Generated_Source\PSoC4/CyDMA.c **** *  information.
1122:.\Generated_Source\PSoC4/CyDMA.c **** *
1123:.\Generated_Source\PSoC4/CyDMA.c **** *******************************************************************************/
1124:.\Generated_Source\PSoC4/CyDMA.c **** uint32 CyDmaGetSrcDstTransferWidth(int32 channel, int32 descriptor)
1125:.\Generated_Source\PSoC4/CyDMA.c **** {
 2623              		.loc 1 1125 0
 2624              		.cfi_startproc
 2625 0000 80B5     		push	{r7, lr}
 2626              		.cfi_def_cfa_offset 8
 2627              		.cfi_offset 7, -8
ARM GAS  C:\Users\Matty\AppData\Local\Temp\ccXs7IQl.s 			page 67


 2628              		.cfi_offset 14, -4
 2629 0002 82B0     		sub	sp, sp, #8
 2630              		.cfi_def_cfa_offset 16
 2631 0004 00AF     		add	r7, sp, #0
 2632              		.cfi_def_cfa_register 7
 2633 0006 7860     		str	r0, [r7, #4]
 2634 0008 3960     		str	r1, [r7]
1126:.\Generated_Source\PSoC4/CyDMA.c ****     CYASSERT((channel    >= 0) && (channel    < CYDMA_CH_NR));
 2635              		.loc 1 1126 0
 2636 000a 7B68     		ldr	r3, [r7, #4]
 2637 000c 002B     		cmp	r3, #0
 2638 000e 04DB     		blt	.L258
 2639              		.loc 1 1126 0 is_stmt 0 discriminator 1
 2640 0010 7B68     		ldr	r3, [r7, #4]
 2641 0012 072B     		cmp	r3, #7
 2642 0014 01DC     		bgt	.L258
 2643              		.loc 1 1126 0 discriminator 3
 2644 0016 0123     		mov	r3, #1
 2645 0018 00E0     		b	.L259
 2646              	.L258:
 2647              		.loc 1 1126 0 discriminator 2
 2648 001a 0023     		mov	r3, #0
 2649              	.L259:
 2650              		.loc 1 1126 0 discriminator 4
 2651 001c 002B     		cmp	r3, #0
 2652 001e 02D1     		bne	.L260
 2653              		.loc 1 1126 0 discriminator 1
 2654 0020 0020     		mov	r0, #0
 2655 0022 FFF7FEFF 		bl	CyHalt
 2656              	.L260:
1127:.\Generated_Source\PSoC4/CyDMA.c ****     CYASSERT((descriptor >= 0) && (descriptor < CYDMA_DESCR_NR));
 2657              		.loc 1 1127 0 is_stmt 1
 2658 0026 3B68     		ldr	r3, [r7]
 2659 0028 002B     		cmp	r3, #0
 2660 002a 04DB     		blt	.L261
 2661              		.loc 1 1127 0 is_stmt 0 discriminator 1
 2662 002c 3B68     		ldr	r3, [r7]
 2663 002e 012B     		cmp	r3, #1
 2664 0030 01DC     		bgt	.L261
 2665              		.loc 1 1127 0 discriminator 3
 2666 0032 0123     		mov	r3, #1
 2667 0034 00E0     		b	.L262
 2668              	.L261:
 2669              		.loc 1 1127 0 discriminator 2
 2670 0036 0023     		mov	r3, #0
 2671              	.L262:
 2672              		.loc 1 1127 0 discriminator 4
 2673 0038 002B     		cmp	r3, #0
 2674 003a 02D1     		bne	.L263
 2675              		.loc 1 1127 0 discriminator 1
 2676 003c 0020     		mov	r0, #0
 2677 003e FFF7FEFF 		bl	CyHalt
 2678              	.L263:
1128:.\Generated_Source\PSoC4/CyDMA.c ****     return (CYDMA_DESCR_BASE.descriptor[channel][descriptor].ctl & CYDMA_TRANSFER_WIDTH);
 2679              		.loc 1 1128 0 is_stmt 1
 2680 0042 084A     		ldr	r2, .L265
 2681 0044 7B68     		ldr	r3, [r7, #4]
ARM GAS  C:\Users\Matty\AppData\Local\Temp\ccXs7IQl.s 			page 68


 2682 0046 5900     		lsl	r1, r3, #1
 2683 0048 3B68     		ldr	r3, [r7]
 2684 004a CB18     		add	r3, r1, r3
 2685 004c 1B01     		lsl	r3, r3, #4
 2686 004e D318     		add	r3, r2, r3
 2687 0050 0833     		add	r3, r3, #8
 2688 0052 1A68     		ldr	r2, [r3]
 2689 0054 A023     		mov	r3, #160
 2690 0056 DB03     		lsl	r3, r3, #15
 2691 0058 1340     		and	r3, r2
1129:.\Generated_Source\PSoC4/CyDMA.c **** }
 2692              		.loc 1 1129 0
 2693 005a 181C     		mov	r0, r3
 2694 005c BD46     		mov	sp, r7
 2695 005e 02B0     		add	sp, sp, #8
 2696              		@ sp needed
 2697 0060 80BD     		pop	{r7, pc}
 2698              	.L266:
 2699 0062 C046     		.align	2
 2700              	.L265:
 2701 0064 00181040 		.word	1074796544
 2702              		.cfi_endproc
 2703              	.LFE38:
 2704              		.size	CyDmaGetSrcDstTransferWidth, .-CyDmaGetSrcDstTransferWidth
 2705              		.section	.text.CyDmaSetAddressIncrement,"ax",%progbits
 2706              		.align	2
 2707              		.global	CyDmaSetAddressIncrement
 2708              		.code	16
 2709              		.thumb_func
 2710              		.type	CyDmaSetAddressIncrement, %function
 2711              	CyDmaSetAddressIncrement:
 2712              	.LFB39:
1130:.\Generated_Source\PSoC4/CyDMA.c **** 
1131:.\Generated_Source\PSoC4/CyDMA.c **** 
1132:.\Generated_Source\PSoC4/CyDMA.c **** /*******************************************************************************
1133:.\Generated_Source\PSoC4/CyDMA.c **** * Function Name: CyDmaSetAddressIncrement
1134:.\Generated_Source\PSoC4/CyDMA.c **** ********************************************************************************
1135:.\Generated_Source\PSoC4/CyDMA.c **** *
1136:.\Generated_Source\PSoC4/CyDMA.c **** * Summary:
1137:.\Generated_Source\PSoC4/CyDMA.c **** *  Sets whether the source or destination addresses are incremented after the
1138:.\Generated_Source\PSoC4/CyDMA.c **** *  transfer of each data element. The amount that the source and destination
1139:.\Generated_Source\PSoC4/CyDMA.c **** *  address are incremented is determined by the CyDmaSetSrcDstTransferWidth()
1140:.\Generated_Source\PSoC4/CyDMA.c **** *  function. The addresses will either be incremented by the data element size
1141:.\Generated_Source\PSoC4/CyDMA.c **** *  or by a word (4 bytes).
1142:.\Generated_Source\PSoC4/CyDMA.c **** *
1143:.\Generated_Source\PSoC4/CyDMA.c **** * Parameters:
1144:.\Generated_Source\PSoC4/CyDMA.c **** *  channel:          Channel used by this function.
1145:.\Generated_Source\PSoC4/CyDMA.c **** *  descriptor:       Descriptor (0 or 1) modified by this function.
1146:.\Generated_Source\PSoC4/CyDMA.c **** *  addressIncrement: Address increment settings. Refer to the API bit fields 
1147:.\Generated_Source\PSoC4/CyDMA.c **** *                    definition in CyDMA_P4.h or the API description in the DMA
1148:.\Generated_Source\PSoC4/CyDMA.c **** *                    channel datasheet for the parameter options.
1149:.\Generated_Source\PSoC4/CyDMA.c **** *    
1150:.\Generated_Source\PSoC4/CyDMA.c **** * Return:
1151:.\Generated_Source\PSoC4/CyDMA.c **** *  None.
1152:.\Generated_Source\PSoC4/CyDMA.c **** *
1153:.\Generated_Source\PSoC4/CyDMA.c **** * Side effect:
1154:.\Generated_Source\PSoC4/CyDMA.c **** *  This function should not be called when the specified descriptor is active
ARM GAS  C:\Users\Matty\AppData\Local\Temp\ccXs7IQl.s 			page 69


1155:.\Generated_Source\PSoC4/CyDMA.c **** *  in the DMA transfer engine. This can be checked by calling CyDmaGetStatus(). 
1156:.\Generated_Source\PSoC4/CyDMA.c **** *
1157:.\Generated_Source\PSoC4/CyDMA.c **** *******************************************************************************/
1158:.\Generated_Source\PSoC4/CyDMA.c **** void CyDmaSetAddressIncrement(int32 channel, int32 descriptor, uint32 addressIncrement)
1159:.\Generated_Source\PSoC4/CyDMA.c **** {
 2713              		.loc 1 1159 0
 2714              		.cfi_startproc
 2715 0000 80B5     		push	{r7, lr}
 2716              		.cfi_def_cfa_offset 8
 2717              		.cfi_offset 7, -8
 2718              		.cfi_offset 14, -4
 2719 0002 86B0     		sub	sp, sp, #24
 2720              		.cfi_def_cfa_offset 32
 2721 0004 00AF     		add	r7, sp, #0
 2722              		.cfi_def_cfa_register 7
 2723 0006 F860     		str	r0, [r7, #12]
 2724 0008 B960     		str	r1, [r7, #8]
 2725 000a 7A60     		str	r2, [r7, #4]
1160:.\Generated_Source\PSoC4/CyDMA.c ****     uint32 regValue;
1161:.\Generated_Source\PSoC4/CyDMA.c **** 
1162:.\Generated_Source\PSoC4/CyDMA.c ****     CYASSERT((channel    >= 0) && (channel    < CYDMA_CH_NR));
 2726              		.loc 1 1162 0
 2727 000c FB68     		ldr	r3, [r7, #12]
 2728 000e 002B     		cmp	r3, #0
 2729 0010 04DB     		blt	.L268
 2730              		.loc 1 1162 0 is_stmt 0 discriminator 1
 2731 0012 FB68     		ldr	r3, [r7, #12]
 2732 0014 072B     		cmp	r3, #7
 2733 0016 01DC     		bgt	.L268
 2734              		.loc 1 1162 0 discriminator 3
 2735 0018 0123     		mov	r3, #1
 2736 001a 00E0     		b	.L269
 2737              	.L268:
 2738              		.loc 1 1162 0 discriminator 2
 2739 001c 0023     		mov	r3, #0
 2740              	.L269:
 2741              		.loc 1 1162 0 discriminator 4
 2742 001e 002B     		cmp	r3, #0
 2743 0020 02D1     		bne	.L270
 2744              		.loc 1 1162 0 discriminator 1
 2745 0022 0020     		mov	r0, #0
 2746 0024 FFF7FEFF 		bl	CyHalt
 2747              	.L270:
1163:.\Generated_Source\PSoC4/CyDMA.c ****     CYASSERT((descriptor >= 0) && (descriptor < CYDMA_DESCR_NR));
 2748              		.loc 1 1163 0 is_stmt 1
 2749 0028 BB68     		ldr	r3, [r7, #8]
 2750 002a 002B     		cmp	r3, #0
 2751 002c 04DB     		blt	.L271
 2752              		.loc 1 1163 0 is_stmt 0 discriminator 1
 2753 002e BB68     		ldr	r3, [r7, #8]
 2754 0030 012B     		cmp	r3, #1
 2755 0032 01DC     		bgt	.L271
 2756              		.loc 1 1163 0 discriminator 3
 2757 0034 0123     		mov	r3, #1
 2758 0036 00E0     		b	.L272
 2759              	.L271:
 2760              		.loc 1 1163 0 discriminator 2
ARM GAS  C:\Users\Matty\AppData\Local\Temp\ccXs7IQl.s 			page 70


 2761 0038 0023     		mov	r3, #0
 2762              	.L272:
 2763              		.loc 1 1163 0 discriminator 4
 2764 003a 002B     		cmp	r3, #0
 2765 003c 02D1     		bne	.L273
 2766              		.loc 1 1163 0 discriminator 1
 2767 003e 0020     		mov	r0, #0
 2768 0040 FFF7FEFF 		bl	CyHalt
 2769              	.L273:
1164:.\Generated_Source\PSoC4/CyDMA.c ****     CYASSERT(0u == (addressIncrement & (uint32)~CYDMA_ADDR_INCR));
 2770              		.loc 1 1164 0 is_stmt 1
 2771 0044 7A68     		ldr	r2, [r7, #4]
 2772 0046 104B     		ldr	r3, .L275
 2773 0048 1340     		and	r3, r2
 2774 004a 02D0     		beq	.L274
 2775              		.loc 1 1164 0 is_stmt 0 discriminator 1
 2776 004c 0020     		mov	r0, #0
 2777 004e FFF7FEFF 		bl	CyHalt
 2778              	.L274:
1165:.\Generated_Source\PSoC4/CyDMA.c **** 
1166:.\Generated_Source\PSoC4/CyDMA.c ****     regValue = CYDMA_DESCR_BASE.descriptor[channel][descriptor].ctl & (uint32)~CYDMA_ADDR_INCR;
 2779              		.loc 1 1166 0 is_stmt 1
 2780 0052 0E4A     		ldr	r2, .L275+4
 2781 0054 FB68     		ldr	r3, [r7, #12]
 2782 0056 5900     		lsl	r1, r3, #1
 2783 0058 BB68     		ldr	r3, [r7, #8]
 2784 005a CB18     		add	r3, r1, r3
 2785 005c 1B01     		lsl	r3, r3, #4
 2786 005e D318     		add	r3, r2, r3
 2787 0060 0833     		add	r3, r3, #8
 2788 0062 1A68     		ldr	r2, [r3]
 2789 0064 084B     		ldr	r3, .L275
 2790 0066 1340     		and	r3, r2
 2791 0068 7B61     		str	r3, [r7, #20]
1167:.\Generated_Source\PSoC4/CyDMA.c ****     CYDMA_DESCR_BASE.descriptor[channel][descriptor].ctl = regValue | addressIncrement;
 2792              		.loc 1 1167 0
 2793 006a 0849     		ldr	r1, .L275+4
 2794 006c 7A69     		ldr	r2, [r7, #20]
 2795 006e 7B68     		ldr	r3, [r7, #4]
 2796 0070 1A43     		orr	r2, r3
 2797 0072 FB68     		ldr	r3, [r7, #12]
 2798 0074 5800     		lsl	r0, r3, #1
 2799 0076 BB68     		ldr	r3, [r7, #8]
 2800 0078 C318     		add	r3, r0, r3
 2801 007a 1B01     		lsl	r3, r3, #4
 2802 007c CB18     		add	r3, r1, r3
 2803 007e 0833     		add	r3, r3, #8
 2804 0080 1A60     		str	r2, [r3]
1168:.\Generated_Source\PSoC4/CyDMA.c **** }
 2805              		.loc 1 1168 0
 2806 0082 BD46     		mov	sp, r7
 2807 0084 06B0     		add	sp, sp, #24
 2808              		@ sp needed
 2809 0086 80BD     		pop	{r7, pc}
 2810              	.L276:
 2811              		.align	2
 2812              	.L275:
ARM GAS  C:\Users\Matty\AppData\Local\Temp\ccXs7IQl.s 			page 71


 2813 0088 FFFF5FFF 		.word	-10485761
 2814 008c 00181040 		.word	1074796544
 2815              		.cfi_endproc
 2816              	.LFE39:
 2817              		.size	CyDmaSetAddressIncrement, .-CyDmaSetAddressIncrement
 2818              		.section	.text.CyDmaGetAddressIncrement,"ax",%progbits
 2819              		.align	2
 2820              		.global	CyDmaGetAddressIncrement
 2821              		.code	16
 2822              		.thumb_func
 2823              		.type	CyDmaGetAddressIncrement, %function
 2824              	CyDmaGetAddressIncrement:
 2825              	.LFB40:
1169:.\Generated_Source\PSoC4/CyDMA.c **** 
1170:.\Generated_Source\PSoC4/CyDMA.c **** 
1171:.\Generated_Source\PSoC4/CyDMA.c **** /*******************************************************************************
1172:.\Generated_Source\PSoC4/CyDMA.c **** * Function Name: CyDmaGetAddressIncrement
1173:.\Generated_Source\PSoC4/CyDMA.c **** ********************************************************************************
1174:.\Generated_Source\PSoC4/CyDMA.c **** *
1175:.\Generated_Source\PSoC4/CyDMA.c **** * Summary:
1176:.\Generated_Source\PSoC4/CyDMA.c **** *  Returns address increment settings as set by CyDmaSetAddressIncrement() or
1177:.\Generated_Source\PSoC4/CyDMA.c **** *  CyDmaSetConfiguration().
1178:.\Generated_Source\PSoC4/CyDMA.c **** *
1179:.\Generated_Source\PSoC4/CyDMA.c **** * Parameters:
1180:.\Generated_Source\PSoC4/CyDMA.c **** *  channel:    Channel used by this function.
1181:.\Generated_Source\PSoC4/CyDMA.c **** *  descriptor: Descriptor (0 or 1) modified by this function.
1182:.\Generated_Source\PSoC4/CyDMA.c **** *                   
1183:.\Generated_Source\PSoC4/CyDMA.c **** * Return:
1184:.\Generated_Source\PSoC4/CyDMA.c **** *  Address increment settings. Refer to the API bit field definitions in
1185:.\Generated_Source\PSoC4/CyDMA.c **** *  CyDMA_P4.h or the API description in the DMA channel datasheet for more
1186:.\Generated_Source\PSoC4/CyDMA.c **** *  information.
1187:.\Generated_Source\PSoC4/CyDMA.c **** *
1188:.\Generated_Source\PSoC4/CyDMA.c **** *******************************************************************************/
1189:.\Generated_Source\PSoC4/CyDMA.c **** uint32 CyDmaGetAddressIncrement(int32 channel, int32 descriptor)
1190:.\Generated_Source\PSoC4/CyDMA.c **** {
 2826              		.loc 1 1190 0
 2827              		.cfi_startproc
 2828 0000 80B5     		push	{r7, lr}
 2829              		.cfi_def_cfa_offset 8
 2830              		.cfi_offset 7, -8
 2831              		.cfi_offset 14, -4
 2832 0002 82B0     		sub	sp, sp, #8
 2833              		.cfi_def_cfa_offset 16
 2834 0004 00AF     		add	r7, sp, #0
 2835              		.cfi_def_cfa_register 7
 2836 0006 7860     		str	r0, [r7, #4]
 2837 0008 3960     		str	r1, [r7]
1191:.\Generated_Source\PSoC4/CyDMA.c ****     CYASSERT((channel    >= 0) && (channel    < CYDMA_CH_NR));
 2838              		.loc 1 1191 0
 2839 000a 7B68     		ldr	r3, [r7, #4]
 2840 000c 002B     		cmp	r3, #0
 2841 000e 04DB     		blt	.L278
 2842              		.loc 1 1191 0 is_stmt 0 discriminator 1
 2843 0010 7B68     		ldr	r3, [r7, #4]
 2844 0012 072B     		cmp	r3, #7
 2845 0014 01DC     		bgt	.L278
 2846              		.loc 1 1191 0 discriminator 3
ARM GAS  C:\Users\Matty\AppData\Local\Temp\ccXs7IQl.s 			page 72


 2847 0016 0123     		mov	r3, #1
 2848 0018 00E0     		b	.L279
 2849              	.L278:
 2850              		.loc 1 1191 0 discriminator 2
 2851 001a 0023     		mov	r3, #0
 2852              	.L279:
 2853              		.loc 1 1191 0 discriminator 4
 2854 001c 002B     		cmp	r3, #0
 2855 001e 02D1     		bne	.L280
 2856              		.loc 1 1191 0 discriminator 1
 2857 0020 0020     		mov	r0, #0
 2858 0022 FFF7FEFF 		bl	CyHalt
 2859              	.L280:
1192:.\Generated_Source\PSoC4/CyDMA.c ****     CYASSERT((descriptor >= 0) && (descriptor < CYDMA_DESCR_NR));
 2860              		.loc 1 1192 0 is_stmt 1
 2861 0026 3B68     		ldr	r3, [r7]
 2862 0028 002B     		cmp	r3, #0
 2863 002a 04DB     		blt	.L281
 2864              		.loc 1 1192 0 is_stmt 0 discriminator 1
 2865 002c 3B68     		ldr	r3, [r7]
 2866 002e 012B     		cmp	r3, #1
 2867 0030 01DC     		bgt	.L281
 2868              		.loc 1 1192 0 discriminator 3
 2869 0032 0123     		mov	r3, #1
 2870 0034 00E0     		b	.L282
 2871              	.L281:
 2872              		.loc 1 1192 0 discriminator 2
 2873 0036 0023     		mov	r3, #0
 2874              	.L282:
 2875              		.loc 1 1192 0 discriminator 4
 2876 0038 002B     		cmp	r3, #0
 2877 003a 02D1     		bne	.L283
 2878              		.loc 1 1192 0 discriminator 1
 2879 003c 0020     		mov	r0, #0
 2880 003e FFF7FEFF 		bl	CyHalt
 2881              	.L283:
1193:.\Generated_Source\PSoC4/CyDMA.c **** 
1194:.\Generated_Source\PSoC4/CyDMA.c ****     return (CYDMA_DESCR_BASE.descriptor[channel][descriptor].ctl & CYDMA_ADDR_INCR);
 2882              		.loc 1 1194 0 is_stmt 1
 2883 0042 084A     		ldr	r2, .L285
 2884 0044 7B68     		ldr	r3, [r7, #4]
 2885 0046 5900     		lsl	r1, r3, #1
 2886 0048 3B68     		ldr	r3, [r7]
 2887 004a CB18     		add	r3, r1, r3
 2888 004c 1B01     		lsl	r3, r3, #4
 2889 004e D318     		add	r3, r2, r3
 2890 0050 0833     		add	r3, r3, #8
 2891 0052 1A68     		ldr	r2, [r3]
 2892 0054 A023     		mov	r3, #160
 2893 0056 1B04     		lsl	r3, r3, #16
 2894 0058 1340     		and	r3, r2
1195:.\Generated_Source\PSoC4/CyDMA.c **** }
 2895              		.loc 1 1195 0
 2896 005a 181C     		mov	r0, r3
 2897 005c BD46     		mov	sp, r7
 2898 005e 02B0     		add	sp, sp, #8
 2899              		@ sp needed
ARM GAS  C:\Users\Matty\AppData\Local\Temp\ccXs7IQl.s 			page 73


 2900 0060 80BD     		pop	{r7, pc}
 2901              	.L286:
 2902 0062 C046     		.align	2
 2903              	.L285:
 2904 0064 00181040 		.word	1074796544
 2905              		.cfi_endproc
 2906              	.LFE40:
 2907              		.size	CyDmaGetAddressIncrement, .-CyDmaGetAddressIncrement
 2908              		.section	.text.CyDmaSetTriggerType,"ax",%progbits
 2909              		.align	2
 2910              		.global	CyDmaSetTriggerType
 2911              		.code	16
 2912              		.thumb_func
 2913              		.type	CyDmaSetTriggerType, %function
 2914              	CyDmaSetTriggerType:
 2915              	.LFB41:
1196:.\Generated_Source\PSoC4/CyDMA.c **** 
1197:.\Generated_Source\PSoC4/CyDMA.c **** 
1198:.\Generated_Source\PSoC4/CyDMA.c **** /*******************************************************************************
1199:.\Generated_Source\PSoC4/CyDMA.c **** * Function Name: CyDmaSetTriggerType
1200:.\Generated_Source\PSoC4/CyDMA.c **** ********************************************************************************
1201:.\Generated_Source\PSoC4/CyDMA.c **** *
1202:.\Generated_Source\PSoC4/CyDMA.c **** * Summary:
1203:.\Generated_Source\PSoC4/CyDMA.c **** *  Sets the type of input trigger for the DMA For level sensitive triggers sets
1204:.\Generated_Source\PSoC4/CyDMA.c **** *  how long the DMA waits for the trigger to go low (deactivate) before
1205:.\Generated_Source\PSoC4/CyDMA.c **** *  triggering the channel again.
1206:.\Generated_Source\PSoC4/CyDMA.c **** *
1207:.\Generated_Source\PSoC4/CyDMA.c **** * Parameters:
1208:.\Generated_Source\PSoC4/CyDMA.c **** *  channel:     Channel used by this function.
1209:.\Generated_Source\PSoC4/CyDMA.c **** *  descriptor:  Descriptor (0 or 1) modified by this function.
1210:.\Generated_Source\PSoC4/CyDMA.c **** *  triggerType: Type of DMA trigger. Refer to the API bit field definitions
1211:.\Generated_Source\PSoC4/CyDMA.c **** *               in CyDMA_P4.h or the API description in the DMA channel
1212:.\Generated_Source\PSoC4/CyDMA.c **** *               datasheet for the parameter options.
1213:.\Generated_Source\PSoC4/CyDMA.c **** *                   
1214:.\Generated_Source\PSoC4/CyDMA.c **** * Return:
1215:.\Generated_Source\PSoC4/CyDMA.c **** *  None.
1216:.\Generated_Source\PSoC4/CyDMA.c **** *
1217:.\Generated_Source\PSoC4/CyDMA.c **** * Side effect:
1218:.\Generated_Source\PSoC4/CyDMA.c **** *  This function should not be called when the specified descriptor is active
1219:.\Generated_Source\PSoC4/CyDMA.c **** *  in the DMA transfer engine. This can be checked by calling CyDmaGetStatus(). 
1220:.\Generated_Source\PSoC4/CyDMA.c **** *
1221:.\Generated_Source\PSoC4/CyDMA.c **** *******************************************************************************/
1222:.\Generated_Source\PSoC4/CyDMA.c **** void CyDmaSetTriggerType(int32 channel, int32 descriptor, uint32 triggerType)
1223:.\Generated_Source\PSoC4/CyDMA.c **** {
 2916              		.loc 1 1223 0
 2917              		.cfi_startproc
 2918 0000 80B5     		push	{r7, lr}
 2919              		.cfi_def_cfa_offset 8
 2920              		.cfi_offset 7, -8
 2921              		.cfi_offset 14, -4
 2922 0002 86B0     		sub	sp, sp, #24
 2923              		.cfi_def_cfa_offset 32
 2924 0004 00AF     		add	r7, sp, #0
 2925              		.cfi_def_cfa_register 7
 2926 0006 F860     		str	r0, [r7, #12]
 2927 0008 B960     		str	r1, [r7, #8]
 2928 000a 7A60     		str	r2, [r7, #4]
ARM GAS  C:\Users\Matty\AppData\Local\Temp\ccXs7IQl.s 			page 74


1224:.\Generated_Source\PSoC4/CyDMA.c ****     uint32 regValue;
1225:.\Generated_Source\PSoC4/CyDMA.c **** 
1226:.\Generated_Source\PSoC4/CyDMA.c ****     CYASSERT((channel    >= 0) && (channel    < CYDMA_CH_NR));
 2929              		.loc 1 1226 0
 2930 000c FB68     		ldr	r3, [r7, #12]
 2931 000e 002B     		cmp	r3, #0
 2932 0010 04DB     		blt	.L288
 2933              		.loc 1 1226 0 is_stmt 0 discriminator 1
 2934 0012 FB68     		ldr	r3, [r7, #12]
 2935 0014 072B     		cmp	r3, #7
 2936 0016 01DC     		bgt	.L288
 2937              		.loc 1 1226 0 discriminator 3
 2938 0018 0123     		mov	r3, #1
 2939 001a 00E0     		b	.L289
 2940              	.L288:
 2941              		.loc 1 1226 0 discriminator 2
 2942 001c 0023     		mov	r3, #0
 2943              	.L289:
 2944              		.loc 1 1226 0 discriminator 4
 2945 001e 002B     		cmp	r3, #0
 2946 0020 02D1     		bne	.L290
 2947              		.loc 1 1226 0 discriminator 1
 2948 0022 0020     		mov	r0, #0
 2949 0024 FFF7FEFF 		bl	CyHalt
 2950              	.L290:
1227:.\Generated_Source\PSoC4/CyDMA.c ****     CYASSERT((descriptor >= 0) && (descriptor < CYDMA_DESCR_NR));
 2951              		.loc 1 1227 0 is_stmt 1
 2952 0028 BB68     		ldr	r3, [r7, #8]
 2953 002a 002B     		cmp	r3, #0
 2954 002c 04DB     		blt	.L291
 2955              		.loc 1 1227 0 is_stmt 0 discriminator 1
 2956 002e BB68     		ldr	r3, [r7, #8]
 2957 0030 012B     		cmp	r3, #1
 2958 0032 01DC     		bgt	.L291
 2959              		.loc 1 1227 0 discriminator 3
 2960 0034 0123     		mov	r3, #1
 2961 0036 00E0     		b	.L292
 2962              	.L291:
 2963              		.loc 1 1227 0 discriminator 2
 2964 0038 0023     		mov	r3, #0
 2965              	.L292:
 2966              		.loc 1 1227 0 discriminator 4
 2967 003a 002B     		cmp	r3, #0
 2968 003c 02D1     		bne	.L293
 2969              		.loc 1 1227 0 discriminator 1
 2970 003e 0020     		mov	r0, #0
 2971 0040 FFF7FEFF 		bl	CyHalt
 2972              	.L293:
1228:.\Generated_Source\PSoC4/CyDMA.c ****     CYASSERT(0u == (triggerType & (uint32)~CYDMA_TRIGGER_TYPE));
 2973              		.loc 1 1228 0 is_stmt 1
 2974 0044 7A68     		ldr	r2, [r7, #4]
 2975 0046 104B     		ldr	r3, .L295
 2976 0048 1340     		and	r3, r2
 2977 004a 02D0     		beq	.L294
 2978              		.loc 1 1228 0 is_stmt 0 discriminator 1
 2979 004c 0020     		mov	r0, #0
 2980 004e FFF7FEFF 		bl	CyHalt
ARM GAS  C:\Users\Matty\AppData\Local\Temp\ccXs7IQl.s 			page 75


 2981              	.L294:
1229:.\Generated_Source\PSoC4/CyDMA.c **** 
1230:.\Generated_Source\PSoC4/CyDMA.c ****     regValue = CYDMA_DESCR_BASE.descriptor[channel][descriptor].ctl & (uint32)~CYDMA_TRIGGER_TYPE;
 2982              		.loc 1 1230 0 is_stmt 1
 2983 0052 0E4A     		ldr	r2, .L295+4
 2984 0054 FB68     		ldr	r3, [r7, #12]
 2985 0056 5900     		lsl	r1, r3, #1
 2986 0058 BB68     		ldr	r3, [r7, #8]
 2987 005a CB18     		add	r3, r1, r3
 2988 005c 1B01     		lsl	r3, r3, #4
 2989 005e D318     		add	r3, r2, r3
 2990 0060 0833     		add	r3, r3, #8
 2991 0062 1A68     		ldr	r2, [r3]
 2992 0064 084B     		ldr	r3, .L295
 2993 0066 1340     		and	r3, r2
 2994 0068 7B61     		str	r3, [r7, #20]
1231:.\Generated_Source\PSoC4/CyDMA.c ****     CYDMA_DESCR_BASE.descriptor[channel][descriptor].ctl = regValue | triggerType;
 2995              		.loc 1 1231 0
 2996 006a 0849     		ldr	r1, .L295+4
 2997 006c 7A69     		ldr	r2, [r7, #20]
 2998 006e 7B68     		ldr	r3, [r7, #4]
 2999 0070 1A43     		orr	r2, r3
 3000 0072 FB68     		ldr	r3, [r7, #12]
 3001 0074 5800     		lsl	r0, r3, #1
 3002 0076 BB68     		ldr	r3, [r7, #8]
 3003 0078 C318     		add	r3, r0, r3
 3004 007a 1B01     		lsl	r3, r3, #4
 3005 007c CB18     		add	r3, r1, r3
 3006 007e 0833     		add	r3, r3, #8
 3007 0080 1A60     		str	r2, [r3]
1232:.\Generated_Source\PSoC4/CyDMA.c **** }
 3008              		.loc 1 1232 0
 3009 0082 BD46     		mov	sp, r7
 3010 0084 06B0     		add	sp, sp, #24
 3011              		@ sp needed
 3012 0086 80BD     		pop	{r7, pc}
 3013              	.L296:
 3014              		.align	2
 3015              	.L295:
 3016 0088 FFFFFFFC 		.word	-50331649
 3017 008c 00181040 		.word	1074796544
 3018              		.cfi_endproc
 3019              	.LFE41:
 3020              		.size	CyDmaSetTriggerType, .-CyDmaSetTriggerType
 3021              		.section	.text.CyDmaGetTriggerType,"ax",%progbits
 3022              		.align	2
 3023              		.global	CyDmaGetTriggerType
 3024              		.code	16
 3025              		.thumb_func
 3026              		.type	CyDmaGetTriggerType, %function
 3027              	CyDmaGetTriggerType:
 3028              	.LFB42:
1233:.\Generated_Source\PSoC4/CyDMA.c **** 
1234:.\Generated_Source\PSoC4/CyDMA.c **** 
1235:.\Generated_Source\PSoC4/CyDMA.c **** /*******************************************************************************
1236:.\Generated_Source\PSoC4/CyDMA.c **** * Function Name: CyDmaGetTriggerType
1237:.\Generated_Source\PSoC4/CyDMA.c **** ********************************************************************************
ARM GAS  C:\Users\Matty\AppData\Local\Temp\ccXs7IQl.s 			page 76


1238:.\Generated_Source\PSoC4/CyDMA.c **** *
1239:.\Generated_Source\PSoC4/CyDMA.c **** * Summary:
1240:.\Generated_Source\PSoC4/CyDMA.c **** *  Returns the trigger deactivation settings as set by CyDmaSetTriggerType() or
1241:.\Generated_Source\PSoC4/CyDMA.c **** *  CyDmaSetConfiguration().
1242:.\Generated_Source\PSoC4/CyDMA.c **** *
1243:.\Generated_Source\PSoC4/CyDMA.c **** * Parameters:
1244:.\Generated_Source\PSoC4/CyDMA.c **** *  channel:    Channel used by this function.
1245:.\Generated_Source\PSoC4/CyDMA.c **** *  descriptor: Descriptor (0 or 1) modified by this function.
1246:.\Generated_Source\PSoC4/CyDMA.c **** *                   
1247:.\Generated_Source\PSoC4/CyDMA.c **** * Return:
1248:.\Generated_Source\PSoC4/CyDMA.c **** *  Trigger deactivation settings. Refer to the API bit field definitions in
1249:.\Generated_Source\PSoC4/CyDMA.c **** *  CyDMA_P4.h or the API description in the DMA channel datasheet for more
1250:.\Generated_Source\PSoC4/CyDMA.c **** *  information.
1251:.\Generated_Source\PSoC4/CyDMA.c **** *
1252:.\Generated_Source\PSoC4/CyDMA.c **** *******************************************************************************/
1253:.\Generated_Source\PSoC4/CyDMA.c **** uint32 CyDmaGetTriggerType(int32 channel, int32 descriptor)
1254:.\Generated_Source\PSoC4/CyDMA.c **** {
 3029              		.loc 1 1254 0
 3030              		.cfi_startproc
 3031 0000 80B5     		push	{r7, lr}
 3032              		.cfi_def_cfa_offset 8
 3033              		.cfi_offset 7, -8
 3034              		.cfi_offset 14, -4
 3035 0002 82B0     		sub	sp, sp, #8
 3036              		.cfi_def_cfa_offset 16
 3037 0004 00AF     		add	r7, sp, #0
 3038              		.cfi_def_cfa_register 7
 3039 0006 7860     		str	r0, [r7, #4]
 3040 0008 3960     		str	r1, [r7]
1255:.\Generated_Source\PSoC4/CyDMA.c ****     CYASSERT((channel    >= 0) && (channel    < CYDMA_CH_NR));
 3041              		.loc 1 1255 0
 3042 000a 7B68     		ldr	r3, [r7, #4]
 3043 000c 002B     		cmp	r3, #0
 3044 000e 04DB     		blt	.L298
 3045              		.loc 1 1255 0 is_stmt 0 discriminator 1
 3046 0010 7B68     		ldr	r3, [r7, #4]
 3047 0012 072B     		cmp	r3, #7
 3048 0014 01DC     		bgt	.L298
 3049              		.loc 1 1255 0 discriminator 3
 3050 0016 0123     		mov	r3, #1
 3051 0018 00E0     		b	.L299
 3052              	.L298:
 3053              		.loc 1 1255 0 discriminator 2
 3054 001a 0023     		mov	r3, #0
 3055              	.L299:
 3056              		.loc 1 1255 0 discriminator 4
 3057 001c 002B     		cmp	r3, #0
 3058 001e 02D1     		bne	.L300
 3059              		.loc 1 1255 0 discriminator 1
 3060 0020 0020     		mov	r0, #0
 3061 0022 FFF7FEFF 		bl	CyHalt
 3062              	.L300:
1256:.\Generated_Source\PSoC4/CyDMA.c ****     CYASSERT((descriptor >= 0) && (descriptor < CYDMA_DESCR_NR));
 3063              		.loc 1 1256 0 is_stmt 1
 3064 0026 3B68     		ldr	r3, [r7]
 3065 0028 002B     		cmp	r3, #0
 3066 002a 04DB     		blt	.L301
ARM GAS  C:\Users\Matty\AppData\Local\Temp\ccXs7IQl.s 			page 77


 3067              		.loc 1 1256 0 is_stmt 0 discriminator 1
 3068 002c 3B68     		ldr	r3, [r7]
 3069 002e 012B     		cmp	r3, #1
 3070 0030 01DC     		bgt	.L301
 3071              		.loc 1 1256 0 discriminator 3
 3072 0032 0123     		mov	r3, #1
 3073 0034 00E0     		b	.L302
 3074              	.L301:
 3075              		.loc 1 1256 0 discriminator 2
 3076 0036 0023     		mov	r3, #0
 3077              	.L302:
 3078              		.loc 1 1256 0 discriminator 4
 3079 0038 002B     		cmp	r3, #0
 3080 003a 02D1     		bne	.L303
 3081              		.loc 1 1256 0 discriminator 1
 3082 003c 0020     		mov	r0, #0
 3083 003e FFF7FEFF 		bl	CyHalt
 3084              	.L303:
1257:.\Generated_Source\PSoC4/CyDMA.c **** 
1258:.\Generated_Source\PSoC4/CyDMA.c ****     return (CYDMA_DESCR_BASE.descriptor[channel][descriptor].ctl & CYDMA_TRIGGER_TYPE);
 3085              		.loc 1 1258 0 is_stmt 1
 3086 0042 084A     		ldr	r2, .L305
 3087 0044 7B68     		ldr	r3, [r7, #4]
 3088 0046 5900     		lsl	r1, r3, #1
 3089 0048 3B68     		ldr	r3, [r7]
 3090 004a CB18     		add	r3, r1, r3
 3091 004c 1B01     		lsl	r3, r3, #4
 3092 004e D318     		add	r3, r2, r3
 3093 0050 0833     		add	r3, r3, #8
 3094 0052 1A68     		ldr	r2, [r3]
 3095 0054 C023     		mov	r3, #192
 3096 0056 9B04     		lsl	r3, r3, #18
 3097 0058 1340     		and	r3, r2
1259:.\Generated_Source\PSoC4/CyDMA.c **** }
 3098              		.loc 1 1259 0
 3099 005a 181C     		mov	r0, r3
 3100 005c BD46     		mov	sp, r7
 3101 005e 02B0     		add	sp, sp, #8
 3102              		@ sp needed
 3103 0060 80BD     		pop	{r7, pc}
 3104              	.L306:
 3105 0062 C046     		.align	2
 3106              	.L305:
 3107 0064 00181040 		.word	1074796544
 3108              		.cfi_endproc
 3109              	.LFE42:
 3110              		.size	CyDmaGetTriggerType, .-CyDmaGetTriggerType
 3111              		.section	.text.CyDmaSetTransferMode,"ax",%progbits
 3112              		.align	2
 3113              		.global	CyDmaSetTransferMode
 3114              		.code	16
 3115              		.thumb_func
 3116              		.type	CyDmaSetTransferMode, %function
 3117              	CyDmaSetTransferMode:
 3118              	.LFB43:
1260:.\Generated_Source\PSoC4/CyDMA.c **** 
1261:.\Generated_Source\PSoC4/CyDMA.c **** 
ARM GAS  C:\Users\Matty\AppData\Local\Temp\ccXs7IQl.s 			page 78


1262:.\Generated_Source\PSoC4/CyDMA.c **** /*******************************************************************************
1263:.\Generated_Source\PSoC4/CyDMA.c **** * Function Name: CyDmaSetTransferMode
1264:.\Generated_Source\PSoC4/CyDMA.c **** ********************************************************************************
1265:.\Generated_Source\PSoC4/CyDMA.c **** *
1266:.\Generated_Source\PSoC4/CyDMA.c **** * Summary:
1267:.\Generated_Source\PSoC4/CyDMA.c **** *  Sets the DMA transfer mode. This determines how the DMA reacts to each trigger
1268:.\Generated_Source\PSoC4/CyDMA.c **** *  event.
1269:.\Generated_Source\PSoC4/CyDMA.c **** *
1270:.\Generated_Source\PSoC4/CyDMA.c **** * Parameters:
1271:.\Generated_Source\PSoC4/CyDMA.c **** *  channel:      Channel used by this function.
1272:.\Generated_Source\PSoC4/CyDMA.c **** *  descriptor:   Descriptor (0 or 1) modified by this function.
1273:.\Generated_Source\PSoC4/CyDMA.c **** *  transferMode: Specifies the DMA transfer mode settings. Refer to the API bit
1274:.\Generated_Source\PSoC4/CyDMA.c **** *                field definitions in CyDMA_P4.h or the API description in the
1275:.\Generated_Source\PSoC4/CyDMA.c **** *                DMA channel datasheet for the parameter options.
1276:.\Generated_Source\PSoC4/CyDMA.c **** *                   
1277:.\Generated_Source\PSoC4/CyDMA.c **** * Return:
1278:.\Generated_Source\PSoC4/CyDMA.c **** *  None.
1279:.\Generated_Source\PSoC4/CyDMA.c **** *
1280:.\Generated_Source\PSoC4/CyDMA.c **** * Side effect:
1281:.\Generated_Source\PSoC4/CyDMA.c **** *  This function should not be called when the specified descriptor is active
1282:.\Generated_Source\PSoC4/CyDMA.c **** *  in the DMA transfer engine. This can be checked by calling CyDmaGetStatus(). 
1283:.\Generated_Source\PSoC4/CyDMA.c **** *
1284:.\Generated_Source\PSoC4/CyDMA.c **** *******************************************************************************/
1285:.\Generated_Source\PSoC4/CyDMA.c **** void CyDmaSetTransferMode(int32 channel, int32 descriptor, uint32 transferMode)
1286:.\Generated_Source\PSoC4/CyDMA.c **** {
 3119              		.loc 1 1286 0
 3120              		.cfi_startproc
 3121 0000 80B5     		push	{r7, lr}
 3122              		.cfi_def_cfa_offset 8
 3123              		.cfi_offset 7, -8
 3124              		.cfi_offset 14, -4
 3125 0002 86B0     		sub	sp, sp, #24
 3126              		.cfi_def_cfa_offset 32
 3127 0004 00AF     		add	r7, sp, #0
 3128              		.cfi_def_cfa_register 7
 3129 0006 F860     		str	r0, [r7, #12]
 3130 0008 B960     		str	r1, [r7, #8]
 3131 000a 7A60     		str	r2, [r7, #4]
1287:.\Generated_Source\PSoC4/CyDMA.c ****     uint32 regValue;
1288:.\Generated_Source\PSoC4/CyDMA.c **** 
1289:.\Generated_Source\PSoC4/CyDMA.c ****     CYASSERT((channel    >= 0) && (channel    < CYDMA_CH_NR));
 3132              		.loc 1 1289 0
 3133 000c FB68     		ldr	r3, [r7, #12]
 3134 000e 002B     		cmp	r3, #0
 3135 0010 04DB     		blt	.L308
 3136              		.loc 1 1289 0 is_stmt 0 discriminator 1
 3137 0012 FB68     		ldr	r3, [r7, #12]
 3138 0014 072B     		cmp	r3, #7
 3139 0016 01DC     		bgt	.L308
 3140              		.loc 1 1289 0 discriminator 3
 3141 0018 0123     		mov	r3, #1
 3142 001a 00E0     		b	.L309
 3143              	.L308:
 3144              		.loc 1 1289 0 discriminator 2
 3145 001c 0023     		mov	r3, #0
 3146              	.L309:
 3147              		.loc 1 1289 0 discriminator 4
ARM GAS  C:\Users\Matty\AppData\Local\Temp\ccXs7IQl.s 			page 79


 3148 001e 002B     		cmp	r3, #0
 3149 0020 02D1     		bne	.L310
 3150              		.loc 1 1289 0 discriminator 1
 3151 0022 0020     		mov	r0, #0
 3152 0024 FFF7FEFF 		bl	CyHalt
 3153              	.L310:
1290:.\Generated_Source\PSoC4/CyDMA.c ****     CYASSERT((descriptor >= 0) && (descriptor < CYDMA_DESCR_NR));
 3154              		.loc 1 1290 0 is_stmt 1
 3155 0028 BB68     		ldr	r3, [r7, #8]
 3156 002a 002B     		cmp	r3, #0
 3157 002c 04DB     		blt	.L311
 3158              		.loc 1 1290 0 is_stmt 0 discriminator 1
 3159 002e BB68     		ldr	r3, [r7, #8]
 3160 0030 012B     		cmp	r3, #1
 3161 0032 01DC     		bgt	.L311
 3162              		.loc 1 1290 0 discriminator 3
 3163 0034 0123     		mov	r3, #1
 3164 0036 00E0     		b	.L312
 3165              	.L311:
 3166              		.loc 1 1290 0 discriminator 2
 3167 0038 0023     		mov	r3, #0
 3168              	.L312:
 3169              		.loc 1 1290 0 discriminator 4
 3170 003a 002B     		cmp	r3, #0
 3171 003c 02D1     		bne	.L313
 3172              		.loc 1 1290 0 discriminator 1
 3173 003e 0020     		mov	r0, #0
 3174 0040 FFF7FEFF 		bl	CyHalt
 3175              	.L313:
1291:.\Generated_Source\PSoC4/CyDMA.c ****     CYASSERT(0u == (transferMode & (uint32)~CYDMA_TRANSFER_MODE));
 3176              		.loc 1 1291 0 is_stmt 1
 3177 0044 7B68     		ldr	r3, [r7, #4]
 3178 0046 9B00     		lsl	r3, r3, #2
 3179 0048 9B08     		lsr	r3, r3, #2
 3180 004a 02D0     		beq	.L314
 3181              		.loc 1 1291 0 is_stmt 0 discriminator 1
 3182 004c 0020     		mov	r0, #0
 3183 004e FFF7FEFF 		bl	CyHalt
 3184              	.L314:
1292:.\Generated_Source\PSoC4/CyDMA.c **** 
1293:.\Generated_Source\PSoC4/CyDMA.c ****     regValue = CYDMA_DESCR_BASE.descriptor[channel][descriptor].ctl & (uint32)~CYDMA_TRANSFER_MODE;
 3185              		.loc 1 1293 0 is_stmt 1
 3186 0052 0D4A     		ldr	r2, .L315
 3187 0054 FB68     		ldr	r3, [r7, #12]
 3188 0056 5900     		lsl	r1, r3, #1
 3189 0058 BB68     		ldr	r3, [r7, #8]
 3190 005a CB18     		add	r3, r1, r3
 3191 005c 1B01     		lsl	r3, r3, #4
 3192 005e D318     		add	r3, r2, r3
 3193 0060 0833     		add	r3, r3, #8
 3194 0062 1B68     		ldr	r3, [r3]
 3195 0064 9B00     		lsl	r3, r3, #2
 3196 0066 9B08     		lsr	r3, r3, #2
 3197 0068 7B61     		str	r3, [r7, #20]
1294:.\Generated_Source\PSoC4/CyDMA.c ****     CYDMA_DESCR_BASE.descriptor[channel][descriptor].ctl = regValue | transferMode;
 3198              		.loc 1 1294 0
 3199 006a 0749     		ldr	r1, .L315
ARM GAS  C:\Users\Matty\AppData\Local\Temp\ccXs7IQl.s 			page 80


 3200 006c 7A69     		ldr	r2, [r7, #20]
 3201 006e 7B68     		ldr	r3, [r7, #4]
 3202 0070 1A43     		orr	r2, r3
 3203 0072 FB68     		ldr	r3, [r7, #12]
 3204 0074 5800     		lsl	r0, r3, #1
 3205 0076 BB68     		ldr	r3, [r7, #8]
 3206 0078 C318     		add	r3, r0, r3
 3207 007a 1B01     		lsl	r3, r3, #4
 3208 007c CB18     		add	r3, r1, r3
 3209 007e 0833     		add	r3, r3, #8
 3210 0080 1A60     		str	r2, [r3]
1295:.\Generated_Source\PSoC4/CyDMA.c **** }
 3211              		.loc 1 1295 0
 3212 0082 BD46     		mov	sp, r7
 3213 0084 06B0     		add	sp, sp, #24
 3214              		@ sp needed
 3215 0086 80BD     		pop	{r7, pc}
 3216              	.L316:
 3217              		.align	2
 3218              	.L315:
 3219 0088 00181040 		.word	1074796544
 3220              		.cfi_endproc
 3221              	.LFE43:
 3222              		.size	CyDmaSetTransferMode, .-CyDmaSetTransferMode
 3223              		.section	.text.CyDmaGetTransferMode,"ax",%progbits
 3224              		.align	2
 3225              		.global	CyDmaGetTransferMode
 3226              		.code	16
 3227              		.thumb_func
 3228              		.type	CyDmaGetTransferMode, %function
 3229              	CyDmaGetTransferMode:
 3230              	.LFB44:
1296:.\Generated_Source\PSoC4/CyDMA.c **** 
1297:.\Generated_Source\PSoC4/CyDMA.c **** 
1298:.\Generated_Source\PSoC4/CyDMA.c **** /*******************************************************************************
1299:.\Generated_Source\PSoC4/CyDMA.c **** * Function Name: CyDmaGetTransferMode
1300:.\Generated_Source\PSoC4/CyDMA.c **** ********************************************************************************
1301:.\Generated_Source\PSoC4/CyDMA.c **** *
1302:.\Generated_Source\PSoC4/CyDMA.c **** * Summary:
1303:.\Generated_Source\PSoC4/CyDMA.c **** *  Returns the transfer mode for the specified descriptor as set by 
1304:.\Generated_Source\PSoC4/CyDMA.c **** *  CyDmaSetTransferMode() or CyDmaSetConfiguration.
1305:.\Generated_Source\PSoC4/CyDMA.c **** *
1306:.\Generated_Source\PSoC4/CyDMA.c **** * Parameters:
1307:.\Generated_Source\PSoC4/CyDMA.c **** *  channel:    Channel used by this function.
1308:.\Generated_Source\PSoC4/CyDMA.c **** *  descriptor: Descriptor (0 or 1) modified by this function.
1309:.\Generated_Source\PSoC4/CyDMA.c **** *                   
1310:.\Generated_Source\PSoC4/CyDMA.c **** * Return:
1311:.\Generated_Source\PSoC4/CyDMA.c **** *  DMA transfer mode settings. Refer to the API bit field definitions in
1312:.\Generated_Source\PSoC4/CyDMA.c **** *  CyDMA_P4.h or the API description in the DMA channel datasheet for more
1313:.\Generated_Source\PSoC4/CyDMA.c **** *  information.
1314:.\Generated_Source\PSoC4/CyDMA.c **** *
1315:.\Generated_Source\PSoC4/CyDMA.c **** *******************************************************************************/
1316:.\Generated_Source\PSoC4/CyDMA.c **** uint32 CyDmaGetTransferMode(int32 channel, int32 descriptor)
1317:.\Generated_Source\PSoC4/CyDMA.c **** {
 3231              		.loc 1 1317 0
 3232              		.cfi_startproc
 3233 0000 80B5     		push	{r7, lr}
ARM GAS  C:\Users\Matty\AppData\Local\Temp\ccXs7IQl.s 			page 81


 3234              		.cfi_def_cfa_offset 8
 3235              		.cfi_offset 7, -8
 3236              		.cfi_offset 14, -4
 3237 0002 82B0     		sub	sp, sp, #8
 3238              		.cfi_def_cfa_offset 16
 3239 0004 00AF     		add	r7, sp, #0
 3240              		.cfi_def_cfa_register 7
 3241 0006 7860     		str	r0, [r7, #4]
 3242 0008 3960     		str	r1, [r7]
1318:.\Generated_Source\PSoC4/CyDMA.c ****     CYASSERT((channel    >= 0) && (channel    < CYDMA_CH_NR));
 3243              		.loc 1 1318 0
 3244 000a 7B68     		ldr	r3, [r7, #4]
 3245 000c 002B     		cmp	r3, #0
 3246 000e 04DB     		blt	.L318
 3247              		.loc 1 1318 0 is_stmt 0 discriminator 1
 3248 0010 7B68     		ldr	r3, [r7, #4]
 3249 0012 072B     		cmp	r3, #7
 3250 0014 01DC     		bgt	.L318
 3251              		.loc 1 1318 0 discriminator 3
 3252 0016 0123     		mov	r3, #1
 3253 0018 00E0     		b	.L319
 3254              	.L318:
 3255              		.loc 1 1318 0 discriminator 2
 3256 001a 0023     		mov	r3, #0
 3257              	.L319:
 3258              		.loc 1 1318 0 discriminator 4
 3259 001c 002B     		cmp	r3, #0
 3260 001e 02D1     		bne	.L320
 3261              		.loc 1 1318 0 discriminator 1
 3262 0020 0020     		mov	r0, #0
 3263 0022 FFF7FEFF 		bl	CyHalt
 3264              	.L320:
1319:.\Generated_Source\PSoC4/CyDMA.c ****     CYASSERT((descriptor >= 0) && (descriptor < CYDMA_DESCR_NR));
 3265              		.loc 1 1319 0 is_stmt 1
 3266 0026 3B68     		ldr	r3, [r7]
 3267 0028 002B     		cmp	r3, #0
 3268 002a 04DB     		blt	.L321
 3269              		.loc 1 1319 0 is_stmt 0 discriminator 1
 3270 002c 3B68     		ldr	r3, [r7]
 3271 002e 012B     		cmp	r3, #1
 3272 0030 01DC     		bgt	.L321
 3273              		.loc 1 1319 0 discriminator 3
 3274 0032 0123     		mov	r3, #1
 3275 0034 00E0     		b	.L322
 3276              	.L321:
 3277              		.loc 1 1319 0 discriminator 2
 3278 0036 0023     		mov	r3, #0
 3279              	.L322:
 3280              		.loc 1 1319 0 discriminator 4
 3281 0038 002B     		cmp	r3, #0
 3282 003a 02D1     		bne	.L323
 3283              		.loc 1 1319 0 discriminator 1
 3284 003c 0020     		mov	r0, #0
 3285 003e FFF7FEFF 		bl	CyHalt
 3286              	.L323:
1320:.\Generated_Source\PSoC4/CyDMA.c **** 
1321:.\Generated_Source\PSoC4/CyDMA.c ****     return (CYDMA_DESCR_BASE.descriptor[channel][descriptor].ctl & CYDMA_TRANSFER_MODE);
ARM GAS  C:\Users\Matty\AppData\Local\Temp\ccXs7IQl.s 			page 82


 3287              		.loc 1 1321 0 is_stmt 1
 3288 0042 074A     		ldr	r2, .L325
 3289 0044 7B68     		ldr	r3, [r7, #4]
 3290 0046 5900     		lsl	r1, r3, #1
 3291 0048 3B68     		ldr	r3, [r7]
 3292 004a CB18     		add	r3, r1, r3
 3293 004c 1B01     		lsl	r3, r3, #4
 3294 004e D318     		add	r3, r2, r3
 3295 0050 0833     		add	r3, r3, #8
 3296 0052 1B68     		ldr	r3, [r3]
 3297 0054 9B0F     		lsr	r3, r3, #30
 3298 0056 9B07     		lsl	r3, r3, #30
1322:.\Generated_Source\PSoC4/CyDMA.c **** }
 3299              		.loc 1 1322 0
 3300 0058 181C     		mov	r0, r3
 3301 005a BD46     		mov	sp, r7
 3302 005c 02B0     		add	sp, sp, #8
 3303              		@ sp needed
 3304 005e 80BD     		pop	{r7, pc}
 3305              	.L326:
 3306              		.align	2
 3307              	.L325:
 3308 0060 00181040 		.word	1074796544
 3309              		.cfi_endproc
 3310              	.LFE44:
 3311              		.size	CyDmaGetTransferMode, .-CyDmaGetTransferMode
 3312              		.section	.text.CyDmaSetPreemptable,"ax",%progbits
 3313              		.align	2
 3314              		.global	CyDmaSetPreemptable
 3315              		.code	16
 3316              		.thumb_func
 3317              		.type	CyDmaSetPreemptable, %function
 3318              	CyDmaSetPreemptable:
 3319              	.LFB45:
1323:.\Generated_Source\PSoC4/CyDMA.c **** 
1324:.\Generated_Source\PSoC4/CyDMA.c **** 
1325:.\Generated_Source\PSoC4/CyDMA.c **** /*******************************************************************************
1326:.\Generated_Source\PSoC4/CyDMA.c **** * Function Name: CyDmaSetPreemptable
1327:.\Generated_Source\PSoC4/CyDMA.c **** ********************************************************************************
1328:.\Generated_Source\PSoC4/CyDMA.c **** *
1329:.\Generated_Source\PSoC4/CyDMA.c **** * Summary:
1330:.\Generated_Source\PSoC4/CyDMA.c **** *  Determines if the descriptor is preemptable.
1331:.\Generated_Source\PSoC4/CyDMA.c **** *
1332:.\Generated_Source\PSoC4/CyDMA.c **** * Parameters:
1333:.\Generated_Source\PSoC4/CyDMA.c **** *  channel:     Channel used by this function.
1334:.\Generated_Source\PSoC4/CyDMA.c **** *  descriptor:  Descriptor (0 or 1) modified by this function.
1335:.\Generated_Source\PSoC4/CyDMA.c **** *  preemptable: Descriptor preemption settings. Refer to the API bit fields
1336:.\Generated_Source\PSoC4/CyDMA.c **** *               definition in CyDMA_P4.h or the API description in the DMA 
1337:.\Generated_Source\PSoC4/CyDMA.c **** *               channel datasheet for the parameter options.
1338:.\Generated_Source\PSoC4/CyDMA.c **** *                   
1339:.\Generated_Source\PSoC4/CyDMA.c **** * Return:
1340:.\Generated_Source\PSoC4/CyDMA.c **** *  None.
1341:.\Generated_Source\PSoC4/CyDMA.c **** *
1342:.\Generated_Source\PSoC4/CyDMA.c **** * Side effect:
1343:.\Generated_Source\PSoC4/CyDMA.c **** *  This function should not be called when the specified descriptor is active
1344:.\Generated_Source\PSoC4/CyDMA.c **** *  in the DMA transfer engine. This can be checked by calling CyDmaGetStatus(). 
1345:.\Generated_Source\PSoC4/CyDMA.c **** *
ARM GAS  C:\Users\Matty\AppData\Local\Temp\ccXs7IQl.s 			page 83


1346:.\Generated_Source\PSoC4/CyDMA.c **** *******************************************************************************/
1347:.\Generated_Source\PSoC4/CyDMA.c **** void CyDmaSetPreemptable(int32 channel, int32 descriptor, uint32 preemptable)
1348:.\Generated_Source\PSoC4/CyDMA.c **** {
 3320              		.loc 1 1348 0
 3321              		.cfi_startproc
 3322 0000 80B5     		push	{r7, lr}
 3323              		.cfi_def_cfa_offset 8
 3324              		.cfi_offset 7, -8
 3325              		.cfi_offset 14, -4
 3326 0002 86B0     		sub	sp, sp, #24
 3327              		.cfi_def_cfa_offset 32
 3328 0004 00AF     		add	r7, sp, #0
 3329              		.cfi_def_cfa_register 7
 3330 0006 F860     		str	r0, [r7, #12]
 3331 0008 B960     		str	r1, [r7, #8]
 3332 000a 7A60     		str	r2, [r7, #4]
1349:.\Generated_Source\PSoC4/CyDMA.c ****     uint32 regValue;
1350:.\Generated_Source\PSoC4/CyDMA.c **** 
1351:.\Generated_Source\PSoC4/CyDMA.c ****     CYASSERT((channel    >= 0) && (channel    < CYDMA_CH_NR));
 3333              		.loc 1 1351 0
 3334 000c FB68     		ldr	r3, [r7, #12]
 3335 000e 002B     		cmp	r3, #0
 3336 0010 04DB     		blt	.L328
 3337              		.loc 1 1351 0 is_stmt 0 discriminator 1
 3338 0012 FB68     		ldr	r3, [r7, #12]
 3339 0014 072B     		cmp	r3, #7
 3340 0016 01DC     		bgt	.L328
 3341              		.loc 1 1351 0 discriminator 3
 3342 0018 0123     		mov	r3, #1
 3343 001a 00E0     		b	.L329
 3344              	.L328:
 3345              		.loc 1 1351 0 discriminator 2
 3346 001c 0023     		mov	r3, #0
 3347              	.L329:
 3348              		.loc 1 1351 0 discriminator 4
 3349 001e 002B     		cmp	r3, #0
 3350 0020 02D1     		bne	.L330
 3351              		.loc 1 1351 0 discriminator 1
 3352 0022 0020     		mov	r0, #0
 3353 0024 FFF7FEFF 		bl	CyHalt
 3354              	.L330:
1352:.\Generated_Source\PSoC4/CyDMA.c ****     CYASSERT((descriptor >= 0) && (descriptor < CYDMA_DESCR_NR));
 3355              		.loc 1 1352 0 is_stmt 1
 3356 0028 BB68     		ldr	r3, [r7, #8]
 3357 002a 002B     		cmp	r3, #0
 3358 002c 04DB     		blt	.L331
 3359              		.loc 1 1352 0 is_stmt 0 discriminator 1
 3360 002e BB68     		ldr	r3, [r7, #8]
 3361 0030 012B     		cmp	r3, #1
 3362 0032 01DC     		bgt	.L331
 3363              		.loc 1 1352 0 discriminator 3
 3364 0034 0123     		mov	r3, #1
 3365 0036 00E0     		b	.L332
 3366              	.L331:
 3367              		.loc 1 1352 0 discriminator 2
 3368 0038 0023     		mov	r3, #0
 3369              	.L332:
ARM GAS  C:\Users\Matty\AppData\Local\Temp\ccXs7IQl.s 			page 84


 3370              		.loc 1 1352 0 discriminator 4
 3371 003a 002B     		cmp	r3, #0
 3372 003c 02D1     		bne	.L333
 3373              		.loc 1 1352 0 discriminator 1
 3374 003e 0020     		mov	r0, #0
 3375 0040 FFF7FEFF 		bl	CyHalt
 3376              	.L333:
1353:.\Generated_Source\PSoC4/CyDMA.c ****     CYASSERT(0u == (preemptable & (uint32)~CYDMA_PREEMPTABLE));
 3377              		.loc 1 1353 0 is_stmt 1
 3378 0044 7A68     		ldr	r2, [r7, #4]
 3379 0046 104B     		ldr	r3, .L335
 3380 0048 1340     		and	r3, r2
 3381 004a 02D0     		beq	.L334
 3382              		.loc 1 1353 0 is_stmt 0 discriminator 1
 3383 004c 0020     		mov	r0, #0
 3384 004e FFF7FEFF 		bl	CyHalt
 3385              	.L334:
1354:.\Generated_Source\PSoC4/CyDMA.c **** 
1355:.\Generated_Source\PSoC4/CyDMA.c ****     regValue = CYDMA_DESCR_BASE.descriptor[channel][descriptor].ctl & (uint32)~CYDMA_PREEMPTABLE;
 3386              		.loc 1 1355 0 is_stmt 1
 3387 0052 0E4A     		ldr	r2, .L335+4
 3388 0054 FB68     		ldr	r3, [r7, #12]
 3389 0056 5900     		lsl	r1, r3, #1
 3390 0058 BB68     		ldr	r3, [r7, #8]
 3391 005a CB18     		add	r3, r1, r3
 3392 005c 1B01     		lsl	r3, r3, #4
 3393 005e D318     		add	r3, r2, r3
 3394 0060 0833     		add	r3, r3, #8
 3395 0062 1A68     		ldr	r2, [r3]
 3396 0064 084B     		ldr	r3, .L335
 3397 0066 1340     		and	r3, r2
 3398 0068 7B61     		str	r3, [r7, #20]
1356:.\Generated_Source\PSoC4/CyDMA.c ****     CYDMA_DESCR_BASE.descriptor[channel][descriptor].ctl = regValue | preemptable;
 3399              		.loc 1 1356 0
 3400 006a 0849     		ldr	r1, .L335+4
 3401 006c 7A69     		ldr	r2, [r7, #20]
 3402 006e 7B68     		ldr	r3, [r7, #4]
 3403 0070 1A43     		orr	r2, r3
 3404 0072 FB68     		ldr	r3, [r7, #12]
 3405 0074 5800     		lsl	r0, r3, #1
 3406 0076 BB68     		ldr	r3, [r7, #8]
 3407 0078 C318     		add	r3, r0, r3
 3408 007a 1B01     		lsl	r3, r3, #4
 3409 007c CB18     		add	r3, r1, r3
 3410 007e 0833     		add	r3, r3, #8
 3411 0080 1A60     		str	r2, [r3]
1357:.\Generated_Source\PSoC4/CyDMA.c **** }
 3412              		.loc 1 1357 0
 3413 0082 BD46     		mov	sp, r7
 3414 0084 06B0     		add	sp, sp, #24
 3415              		@ sp needed
 3416 0086 80BD     		pop	{r7, pc}
 3417              	.L336:
 3418              		.align	2
 3419              	.L335:
 3420 0088 FFFFFFEF 		.word	-268435457
 3421 008c 00181040 		.word	1074796544
ARM GAS  C:\Users\Matty\AppData\Local\Temp\ccXs7IQl.s 			page 85


 3422              		.cfi_endproc
 3423              	.LFE45:
 3424              		.size	CyDmaSetPreemptable, .-CyDmaSetPreemptable
 3425              		.section	.text.CyDmaGetPreemptable,"ax",%progbits
 3426              		.align	2
 3427              		.global	CyDmaGetPreemptable
 3428              		.code	16
 3429              		.thumb_func
 3430              		.type	CyDmaGetPreemptable, %function
 3431              	CyDmaGetPreemptable:
 3432              	.LFB46:
1358:.\Generated_Source\PSoC4/CyDMA.c **** 
1359:.\Generated_Source\PSoC4/CyDMA.c **** 
1360:.\Generated_Source\PSoC4/CyDMA.c **** /*******************************************************************************
1361:.\Generated_Source\PSoC4/CyDMA.c **** * Function Name: CyDmaGetPreemptable
1362:.\Generated_Source\PSoC4/CyDMA.c **** ********************************************************************************
1363:.\Generated_Source\PSoC4/CyDMA.c **** *
1364:.\Generated_Source\PSoC4/CyDMA.c **** * Summary:
1365:.\Generated_Source\PSoC4/CyDMA.c **** *  Returns whether or not the descriptor is preemptable.
1366:.\Generated_Source\PSoC4/CyDMA.c **** *
1367:.\Generated_Source\PSoC4/CyDMA.c **** * Parameters:
1368:.\Generated_Source\PSoC4/CyDMA.c **** *  channel:    Channel used by this function.
1369:.\Generated_Source\PSoC4/CyDMA.c **** *  descriptor: Descriptor (0 or 1) modified by this function.
1370:.\Generated_Source\PSoC4/CyDMA.c **** *                   
1371:.\Generated_Source\PSoC4/CyDMA.c **** * Return:
1372:.\Generated_Source\PSoC4/CyDMA.c **** *  Descriptor preemption setting. Refer to the API bit field definitions in
1373:.\Generated_Source\PSoC4/CyDMA.c **** *  CyDMA_P4.h or the API description in the DMA channel datasheet for more
1374:.\Generated_Source\PSoC4/CyDMA.c **** *  information.
1375:.\Generated_Source\PSoC4/CyDMA.c **** *
1376:.\Generated_Source\PSoC4/CyDMA.c **** *******************************************************************************/
1377:.\Generated_Source\PSoC4/CyDMA.c **** uint32 CyDmaGetPreemptable(int32 channel, int32 descriptor)
1378:.\Generated_Source\PSoC4/CyDMA.c **** {
 3433              		.loc 1 1378 0
 3434              		.cfi_startproc
 3435 0000 80B5     		push	{r7, lr}
 3436              		.cfi_def_cfa_offset 8
 3437              		.cfi_offset 7, -8
 3438              		.cfi_offset 14, -4
 3439 0002 82B0     		sub	sp, sp, #8
 3440              		.cfi_def_cfa_offset 16
 3441 0004 00AF     		add	r7, sp, #0
 3442              		.cfi_def_cfa_register 7
 3443 0006 7860     		str	r0, [r7, #4]
 3444 0008 3960     		str	r1, [r7]
1379:.\Generated_Source\PSoC4/CyDMA.c ****     CYASSERT((channel    >= 0) && (channel    < CYDMA_CH_NR));
 3445              		.loc 1 1379 0
 3446 000a 7B68     		ldr	r3, [r7, #4]
 3447 000c 002B     		cmp	r3, #0
 3448 000e 04DB     		blt	.L338
 3449              		.loc 1 1379 0 is_stmt 0 discriminator 1
 3450 0010 7B68     		ldr	r3, [r7, #4]
 3451 0012 072B     		cmp	r3, #7
 3452 0014 01DC     		bgt	.L338
 3453              		.loc 1 1379 0 discriminator 3
 3454 0016 0123     		mov	r3, #1
 3455 0018 00E0     		b	.L339
 3456              	.L338:
ARM GAS  C:\Users\Matty\AppData\Local\Temp\ccXs7IQl.s 			page 86


 3457              		.loc 1 1379 0 discriminator 2
 3458 001a 0023     		mov	r3, #0
 3459              	.L339:
 3460              		.loc 1 1379 0 discriminator 4
 3461 001c 002B     		cmp	r3, #0
 3462 001e 02D1     		bne	.L340
 3463              		.loc 1 1379 0 discriminator 1
 3464 0020 0020     		mov	r0, #0
 3465 0022 FFF7FEFF 		bl	CyHalt
 3466              	.L340:
1380:.\Generated_Source\PSoC4/CyDMA.c ****     CYASSERT((descriptor >= 0) && (descriptor < CYDMA_DESCR_NR));
 3467              		.loc 1 1380 0 is_stmt 1
 3468 0026 3B68     		ldr	r3, [r7]
 3469 0028 002B     		cmp	r3, #0
 3470 002a 04DB     		blt	.L341
 3471              		.loc 1 1380 0 is_stmt 0 discriminator 1
 3472 002c 3B68     		ldr	r3, [r7]
 3473 002e 012B     		cmp	r3, #1
 3474 0030 01DC     		bgt	.L341
 3475              		.loc 1 1380 0 discriminator 3
 3476 0032 0123     		mov	r3, #1
 3477 0034 00E0     		b	.L342
 3478              	.L341:
 3479              		.loc 1 1380 0 discriminator 2
 3480 0036 0023     		mov	r3, #0
 3481              	.L342:
 3482              		.loc 1 1380 0 discriminator 4
 3483 0038 002B     		cmp	r3, #0
 3484 003a 02D1     		bne	.L343
 3485              		.loc 1 1380 0 discriminator 1
 3486 003c 0020     		mov	r0, #0
 3487 003e FFF7FEFF 		bl	CyHalt
 3488              	.L343:
1381:.\Generated_Source\PSoC4/CyDMA.c **** 
1382:.\Generated_Source\PSoC4/CyDMA.c ****     return (CYDMA_DESCR_BASE.descriptor[channel][descriptor].ctl & CYDMA_PREEMPTABLE);
 3489              		.loc 1 1382 0 is_stmt 1
 3490 0042 084A     		ldr	r2, .L345
 3491 0044 7B68     		ldr	r3, [r7, #4]
 3492 0046 5900     		lsl	r1, r3, #1
 3493 0048 3B68     		ldr	r3, [r7]
 3494 004a CB18     		add	r3, r1, r3
 3495 004c 1B01     		lsl	r3, r3, #4
 3496 004e D318     		add	r3, r2, r3
 3497 0050 0833     		add	r3, r3, #8
 3498 0052 1A68     		ldr	r2, [r3]
 3499 0054 8023     		mov	r3, #128
 3500 0056 5B05     		lsl	r3, r3, #21
 3501 0058 1340     		and	r3, r2
1383:.\Generated_Source\PSoC4/CyDMA.c **** }
 3502              		.loc 1 1383 0
 3503 005a 181C     		mov	r0, r3
 3504 005c BD46     		mov	sp, r7
 3505 005e 02B0     		add	sp, sp, #8
 3506              		@ sp needed
 3507 0060 80BD     		pop	{r7, pc}
 3508              	.L346:
 3509 0062 C046     		.align	2
ARM GAS  C:\Users\Matty\AppData\Local\Temp\ccXs7IQl.s 			page 87


 3510              	.L345:
 3511 0064 00181040 		.word	1074796544
 3512              		.cfi_endproc
 3513              	.LFE46:
 3514              		.size	CyDmaGetPreemptable, .-CyDmaGetPreemptable
 3515              		.section	.text.CyDmaSetPostCompletionActions,"ax",%progbits
 3516              		.align	2
 3517              		.global	CyDmaSetPostCompletionActions
 3518              		.code	16
 3519              		.thumb_func
 3520              		.type	CyDmaSetPostCompletionActions, %function
 3521              	CyDmaSetPostCompletionActions:
 3522              	.LFB47:
1384:.\Generated_Source\PSoC4/CyDMA.c **** 
1385:.\Generated_Source\PSoC4/CyDMA.c **** 
1386:.\Generated_Source\PSoC4/CyDMA.c **** /*******************************************************************************
1387:.\Generated_Source\PSoC4/CyDMA.c **** * Function Name: CyDmaSetPostCompletionActions
1388:.\Generated_Source\PSoC4/CyDMA.c **** ********************************************************************************
1389:.\Generated_Source\PSoC4/CyDMA.c **** *
1390:.\Generated_Source\PSoC4/CyDMA.c **** * Summary:
1391:.\Generated_Source\PSoC4/CyDMA.c **** *  Determines what occurs after a descriptor completes.
1392:.\Generated_Source\PSoC4/CyDMA.c **** *
1393:.\Generated_Source\PSoC4/CyDMA.c **** * Parameters:
1394:.\Generated_Source\PSoC4/CyDMA.c **** *  channel:    Channel used by this function.
1395:.\Generated_Source\PSoC4/CyDMA.c **** *  descriptor: Descriptor (0 or 1) modified by this function.
1396:.\Generated_Source\PSoC4/CyDMA.c **** *  actions:    Specifies descriptor post completion actions. Refer to the API
1397:.\Generated_Source\PSoC4/CyDMA.c **** *              bit field definitions in CyDMA_P4.h or the API description
1398:.\Generated_Source\PSoC4/CyDMA.c **** *              in the DMA channel datasheet for the parameter options.
1399:.\Generated_Source\PSoC4/CyDMA.c **** *                   
1400:.\Generated_Source\PSoC4/CyDMA.c **** * Return:
1401:.\Generated_Source\PSoC4/CyDMA.c **** *  None.  
1402:.\Generated_Source\PSoC4/CyDMA.c **** *
1403:.\Generated_Source\PSoC4/CyDMA.c **** * Side effect:
1404:.\Generated_Source\PSoC4/CyDMA.c **** *  This function should not be called when the specified descriptor is active
1405:.\Generated_Source\PSoC4/CyDMA.c **** *  in the DMA transfer engine. This can be checked by calling CyDmaGetStatus(). 
1406:.\Generated_Source\PSoC4/CyDMA.c **** *
1407:.\Generated_Source\PSoC4/CyDMA.c **** *******************************************************************************/
1408:.\Generated_Source\PSoC4/CyDMA.c **** void CyDmaSetPostCompletionActions(int32 channel, int32 descriptor, uint32 actions)
1409:.\Generated_Source\PSoC4/CyDMA.c **** {
 3523              		.loc 1 1409 0
 3524              		.cfi_startproc
 3525 0000 80B5     		push	{r7, lr}
