ARM GAS  C:\Users\Matty\AppData\Local\Temp\ccXs7IQl.s 			page 1


   1              		.cpu cortex-m0
   2              		.fpu softvfp
   3              		.eabi_attribute 20, 1
   4              		.eabi_attribute 21, 1
   5              		.eabi_attribute 23, 3
   6              		.eabi_attribute 24, 1
   7              		.eabi_attribute 25, 1
   8              		.eabi_attribute 26, 1
   9              		.eabi_attribute 30, 6
  10              		.eabi_attribute 34, 0
  11              		.eabi_attribute 18, 4
  12              		.code	16
  13              		.file	"CyDMA.c"
  14              		.text
  15              	.Ltext0:
  16              		.cfi_sections	.debug_frame
  17              		.data
  18              		.align	2
  19              		.type	CyDmaInterruptCallback, %object
  20              		.size	CyDmaInterruptCallback, 32
  21              	CyDmaInterruptCallback:
  22 0000 00000000 		.word	CyDmaDefaultInterruptCallback
  23 0004 00000000 		.word	CyDmaDefaultInterruptCallback
  24 0008 00000000 		.word	CyDmaDefaultInterruptCallback
  25 000c 00000000 		.word	CyDmaDefaultInterruptCallback
  26 0010 00000000 		.word	CyDmaDefaultInterruptCallback
  27 0014 00000000 		.word	CyDmaDefaultInterruptCallback
  28 0018 00000000 		.word	CyDmaDefaultInterruptCallback
  29 001c 00000000 		.word	CyDmaDefaultInterruptCallback
  30              		.bss
  31              		.align	2
  32              	CyDmaChannelUsedMask:
  33 0000 00000000 		.space	4
  34              		.section	.text.CyDmaEnable,"ax",%progbits
  35              		.align	2
  36              		.global	CyDmaEnable
  37              		.code	16
  38              		.thumb_func
  39              		.type	CyDmaEnable, %function
  40              	CyDmaEnable:
  41              	.LFB1:
  42              		.file 1 ".\\Generated_Source\\PSoC4\\CyDMA.c"
   1:.\Generated_Source\PSoC4/CyDMA.c **** /*******************************************************************************
   2:.\Generated_Source\PSoC4/CyDMA.c **** * File Name: CyDMA.c
   3:.\Generated_Source\PSoC4/CyDMA.c **** * Version 1.0
   4:.\Generated_Source\PSoC4/CyDMA.c **** *
   5:.\Generated_Source\PSoC4/CyDMA.c **** * Description:
   6:.\Generated_Source\PSoC4/CyDMA.c **** *  This file contains all of the global DMA API functions.
   7:.\Generated_Source\PSoC4/CyDMA.c **** *
   8:.\Generated_Source\PSoC4/CyDMA.c **** ********************************************************************************
   9:.\Generated_Source\PSoC4/CyDMA.c **** * Copyright 2015, Cypress Semiconductor Corporation. All rights reserved.
  10:.\Generated_Source\PSoC4/CyDMA.c **** * You may use this file only in accordance with the license, terms, conditions,
  11:.\Generated_Source\PSoC4/CyDMA.c **** * disclaimers, and limitations in the end user license agreement accompanying
  12:.\Generated_Source\PSoC4/CyDMA.c **** * the software package with which this file was provided.
  13:.\Generated_Source\PSoC4/CyDMA.c **** *******************************************************************************/
  14:.\Generated_Source\PSoC4/CyDMA.c **** 
  15:.\Generated_Source\PSoC4/CyDMA.c **** #include "CyDMA.h"
ARM GAS  C:\Users\Matty\AppData\Local\Temp\ccXs7IQl.s 			page 2


  16:.\Generated_Source\PSoC4/CyDMA.c **** #include "CyLib.h"
  17:.\Generated_Source\PSoC4/CyDMA.c **** 
  18:.\Generated_Source\PSoC4/CyDMA.c **** /* Default callback function. It is invoked if the user callback function is
  19:.\Generated_Source\PSoC4/CyDMA.c **** * undefined.
  20:.\Generated_Source\PSoC4/CyDMA.c **** */
  21:.\Generated_Source\PSoC4/CyDMA.c **** static void CyDmaDefaultInterruptCallback(void);
  22:.\Generated_Source\PSoC4/CyDMA.c **** 
  23:.\Generated_Source\PSoC4/CyDMA.c **** /* Array of pointers to user defined callback functions to be called
  24:.\Generated_Source\PSoC4/CyDMA.c **** * from DMA interrupt.
  25:.\Generated_Source\PSoC4/CyDMA.c **** */
  26:.\Generated_Source\PSoC4/CyDMA.c **** static cydma_callback_t CyDmaInterruptCallback[CYDMA_CH_NR] = {
  27:.\Generated_Source\PSoC4/CyDMA.c ****     &CyDmaDefaultInterruptCallback, &CyDmaDefaultInterruptCallback,
  28:.\Generated_Source\PSoC4/CyDMA.c ****     &CyDmaDefaultInterruptCallback, &CyDmaDefaultInterruptCallback,
  29:.\Generated_Source\PSoC4/CyDMA.c ****     &CyDmaDefaultInterruptCallback, &CyDmaDefaultInterruptCallback,
  30:.\Generated_Source\PSoC4/CyDMA.c ****     &CyDmaDefaultInterruptCallback, &CyDmaDefaultInterruptCallback
  31:.\Generated_Source\PSoC4/CyDMA.c **** };
  32:.\Generated_Source\PSoC4/CyDMA.c **** 
  33:.\Generated_Source\PSoC4/CyDMA.c **** /* The live status of all DMA channels usage. Bit i is associated to channel i,
  34:.\Generated_Source\PSoC4/CyDMA.c **** * with i = 0..CYDMA_CH_NR-1. '0' - channel is free. '1' - channel is in use.
  35:.\Generated_Source\PSoC4/CyDMA.c **** * All the channels allocated for DMA instances placed on a schematic are in use
  36:.\Generated_Source\PSoC4/CyDMA.c **** * by default and cannot be freed. 
  37:.\Generated_Source\PSoC4/CyDMA.c **** * DMA_CHANNELS_USED__MASK is generated during the build time and is a bit field
  38:.\Generated_Source\PSoC4/CyDMA.c **** * corresponding to the DMA channels placed on a design schematic.
  39:.\Generated_Source\PSoC4/CyDMA.c **** */
  40:.\Generated_Source\PSoC4/CyDMA.c **** static uint32 CyDmaChannelUsedMask = DMA_CHANNELS_USED__MASK;
  41:.\Generated_Source\PSoC4/CyDMA.c **** 
  42:.\Generated_Source\PSoC4/CyDMA.c **** 
  43:.\Generated_Source\PSoC4/CyDMA.c **** /*******************************************************************************
  44:.\Generated_Source\PSoC4/CyDMA.c **** * Function Name: CyDmaEnable
  45:.\Generated_Source\PSoC4/CyDMA.c **** ********************************************************************************
  46:.\Generated_Source\PSoC4/CyDMA.c **** *
  47:.\Generated_Source\PSoC4/CyDMA.c **** * Summary:
  48:.\Generated_Source\PSoC4/CyDMA.c **** *  Sets the default ISR to be called by the DMA interrupt and enables the DMA
  49:.\Generated_Source\PSoC4/CyDMA.c **** *  transfer engine.
  50:.\Generated_Source\PSoC4/CyDMA.c **** *
  51:.\Generated_Source\PSoC4/CyDMA.c **** * Parameters:
  52:.\Generated_Source\PSoC4/CyDMA.c **** *  None.
  53:.\Generated_Source\PSoC4/CyDMA.c **** *                   
  54:.\Generated_Source\PSoC4/CyDMA.c **** * Return:
  55:.\Generated_Source\PSoC4/CyDMA.c **** *  None.
  56:.\Generated_Source\PSoC4/CyDMA.c **** *
  57:.\Generated_Source\PSoC4/CyDMA.c **** * Side effect:
  58:.\Generated_Source\PSoC4/CyDMA.c **** *  Does not affect the channel enable status. Overrides the interrupt vector
  59:.\Generated_Source\PSoC4/CyDMA.c **** *  set prior the first time CyDmaEnable() is called.
  60:.\Generated_Source\PSoC4/CyDMA.c **** *
  61:.\Generated_Source\PSoC4/CyDMA.c **** *******************************************************************************/
  62:.\Generated_Source\PSoC4/CyDMA.c **** void CyDmaEnable(void)
  63:.\Generated_Source\PSoC4/CyDMA.c **** {
  43              		.loc 1 63 0
  44              		.cfi_startproc
  45 0000 80B5     		push	{r7, lr}
  46              		.cfi_def_cfa_offset 8
  47              		.cfi_offset 7, -8
  48              		.cfi_offset 14, -4
  49 0002 00AF     		add	r7, sp, #0
  50              		.cfi_def_cfa_register 7
  64:.\Generated_Source\PSoC4/CyDMA.c ****     static uint8 initIntrVector = 0u;
ARM GAS  C:\Users\Matty\AppData\Local\Temp\ccXs7IQl.s 			page 3


  65:.\Generated_Source\PSoC4/CyDMA.c **** 
  66:.\Generated_Source\PSoC4/CyDMA.c ****     if(0u == initIntrVector)
  51              		.loc 1 66 0
  52 0004 084B     		ldr	r3, .L3
  53 0006 1B78     		ldrb	r3, [r3]
  54 0008 002B     		cmp	r3, #0
  55 000a 06D1     		bne	.L2
  67:.\Generated_Source\PSoC4/CyDMA.c ****     {
  68:.\Generated_Source\PSoC4/CyDMA.c ****         CyDmaSetInterruptVector(&CyDmaInterrupt);
  56              		.loc 1 68 0
  57 000c 074B     		ldr	r3, .L3+4
  58 000e 181C     		mov	r0, r3
  59 0010 FFF7FEFF 		bl	CyDmaSetInterruptVector
  69:.\Generated_Source\PSoC4/CyDMA.c ****         initIntrVector = 1u;
  60              		.loc 1 69 0
  61 0014 044B     		ldr	r3, .L3
  62 0016 0122     		mov	r2, #1
  63 0018 1A70     		strb	r2, [r3]
  64              	.L2:
  70:.\Generated_Source\PSoC4/CyDMA.c ****     }
  71:.\Generated_Source\PSoC4/CyDMA.c ****     CYDMA_CTL_REG = CYDMA_ENABLED;
  65              		.loc 1 71 0
  66 001a 054B     		ldr	r3, .L3+8
  67 001c 8022     		mov	r2, #128
  68 001e 1206     		lsl	r2, r2, #24
  69 0020 1A60     		str	r2, [r3]
  72:.\Generated_Source\PSoC4/CyDMA.c **** }
  70              		.loc 1 72 0
  71 0022 BD46     		mov	sp, r7
  72              		@ sp needed
  73 0024 80BD     		pop	{r7, pc}
  74              	.L4:
  75 0026 C046     		.align	2
  76              	.L3:
  77 0028 04000000 		.word	initIntrVector.4856
  78 002c 00000000 		.word	CyDmaInterrupt
  79 0030 00101040 		.word	1074794496
  80              		.cfi_endproc
  81              	.LFE1:
  82              		.size	CyDmaEnable, .-CyDmaEnable
  83              		.section	.text.CyDmaDisable,"ax",%progbits
  84              		.align	2
  85              		.global	CyDmaDisable
  86              		.code	16
  87              		.thumb_func
  88              		.type	CyDmaDisable, %function
  89              	CyDmaDisable:
  90              	.LFB2:
  73:.\Generated_Source\PSoC4/CyDMA.c **** 
  74:.\Generated_Source\PSoC4/CyDMA.c **** 
  75:.\Generated_Source\PSoC4/CyDMA.c **** /*******************************************************************************
  76:.\Generated_Source\PSoC4/CyDMA.c **** * Function Name: CyDmaDisable
  77:.\Generated_Source\PSoC4/CyDMA.c **** ********************************************************************************
  78:.\Generated_Source\PSoC4/CyDMA.c **** *
  79:.\Generated_Source\PSoC4/CyDMA.c **** * Summary:
  80:.\Generated_Source\PSoC4/CyDMA.c **** *  Disables the DMA transfer engine.
  81:.\Generated_Source\PSoC4/CyDMA.c **** *
ARM GAS  C:\Users\Matty\AppData\Local\Temp\ccXs7IQl.s 			page 4


  82:.\Generated_Source\PSoC4/CyDMA.c **** * Parameters:
  83:.\Generated_Source\PSoC4/CyDMA.c **** *  None.
  84:.\Generated_Source\PSoC4/CyDMA.c **** *                   
  85:.\Generated_Source\PSoC4/CyDMA.c **** * Return:
  86:.\Generated_Source\PSoC4/CyDMA.c **** *  None.
  87:.\Generated_Source\PSoC4/CyDMA.c **** *
  88:.\Generated_Source\PSoC4/CyDMA.c **** * Side effect:
  89:.\Generated_Source\PSoC4/CyDMA.c **** *  Does not affect the channel enable status.
  90:.\Generated_Source\PSoC4/CyDMA.c **** *
  91:.\Generated_Source\PSoC4/CyDMA.c **** *******************************************************************************/
  92:.\Generated_Source\PSoC4/CyDMA.c **** void CyDmaDisable(void)
  93:.\Generated_Source\PSoC4/CyDMA.c **** {
  91              		.loc 1 93 0
  92              		.cfi_startproc
  93 0000 80B5     		push	{r7, lr}
  94              		.cfi_def_cfa_offset 8
  95              		.cfi_offset 7, -8
  96              		.cfi_offset 14, -4
  97 0002 00AF     		add	r7, sp, #0
  98              		.cfi_def_cfa_register 7
  94:.\Generated_Source\PSoC4/CyDMA.c ****     CYDMA_CTL_REG = (uint32)~CYDMA_ENABLED;
  99              		.loc 1 94 0
 100 0004 024B     		ldr	r3, .L6
 101 0006 034A     		ldr	r2, .L6+4
 102 0008 1A60     		str	r2, [r3]
  95:.\Generated_Source\PSoC4/CyDMA.c **** }
 103              		.loc 1 95 0
 104 000a BD46     		mov	sp, r7
 105              		@ sp needed
 106 000c 80BD     		pop	{r7, pc}
 107              	.L7:
 108 000e C046     		.align	2
 109              	.L6:
 110 0010 00101040 		.word	1074794496
 111 0014 FFFFFF7F 		.word	2147483647
 112              		.cfi_endproc
 113              	.LFE2:
 114              		.size	CyDmaDisable, .-CyDmaDisable
 115              		.section	.text.CyDmaGetStatus,"ax",%progbits
 116              		.align	2
 117              		.global	CyDmaGetStatus
 118              		.code	16
 119              		.thumb_func
 120              		.type	CyDmaGetStatus, %function
 121              	CyDmaGetStatus:
 122              	.LFB3:
  96:.\Generated_Source\PSoC4/CyDMA.c **** 
  97:.\Generated_Source\PSoC4/CyDMA.c **** 
  98:.\Generated_Source\PSoC4/CyDMA.c **** /*******************************************************************************
  99:.\Generated_Source\PSoC4/CyDMA.c **** * Function Name: CyDmaGetStatus
 100:.\Generated_Source\PSoC4/CyDMA.c **** ********************************************************************************
 101:.\Generated_Source\PSoC4/CyDMA.c **** *
 102:.\Generated_Source\PSoC4/CyDMA.c **** * Summary:
 103:.\Generated_Source\PSoC4/CyDMA.c **** *  Returns the status of the DMA transfer engine.
 104:.\Generated_Source\PSoC4/CyDMA.c **** *
 105:.\Generated_Source\PSoC4/CyDMA.c **** * Parameters:
 106:.\Generated_Source\PSoC4/CyDMA.c **** *  None.
ARM GAS  C:\Users\Matty\AppData\Local\Temp\ccXs7IQl.s 			page 5


 107:.\Generated_Source\PSoC4/CyDMA.c **** *                   
 108:.\Generated_Source\PSoC4/CyDMA.c **** * Return:
 109:.\Generated_Source\PSoC4/CyDMA.c **** *  The contents of the DMA status register. Refer to the status register bit
 110:.\Generated_Source\PSoC4/CyDMA.c **** *  definitions in CyDMA_P4.h or the API description in the DMA channel
 111:.\Generated_Source\PSoC4/CyDMA.c **** *  datasheet.
 112:.\Generated_Source\PSoC4/CyDMA.c **** *
 113:.\Generated_Source\PSoC4/CyDMA.c **** * Side effect:
 114:.\Generated_Source\PSoC4/CyDMA.c **** *  The series of function calls CyDmaGetActiveSrcAddress(),
 115:.\Generated_Source\PSoC4/CyDMA.c **** *  CyDmaGetActiveDstAddress(), CyDmaGetStatus() are not atomic, the DMA
 116:.\Generated_Source\PSoC4/CyDMA.c **** *  engine may have advanced after one or more of these function calls. Meaning
 117:.\Generated_Source\PSoC4/CyDMA.c **** *  the returns from these three functions may not be related to each other.
 118:.\Generated_Source\PSoC4/CyDMA.c **** *
 119:.\Generated_Source\PSoC4/CyDMA.c **** *******************************************************************************/
 120:.\Generated_Source\PSoC4/CyDMA.c **** uint32 CyDmaGetStatus(void)
 121:.\Generated_Source\PSoC4/CyDMA.c **** {
 123              		.loc 1 121 0
 124              		.cfi_startproc
 125 0000 80B5     		push	{r7, lr}
 126              		.cfi_def_cfa_offset 8
 127              		.cfi_offset 7, -8
 128              		.cfi_offset 14, -4
 129 0002 00AF     		add	r7, sp, #0
 130              		.cfi_def_cfa_register 7
 122:.\Generated_Source\PSoC4/CyDMA.c ****     return (CYDMA_STATUS_REG);
 131              		.loc 1 122 0
 132 0004 024B     		ldr	r3, .L10
 133 0006 1B68     		ldr	r3, [r3]
 123:.\Generated_Source\PSoC4/CyDMA.c **** }
 134              		.loc 1 123 0
 135 0008 181C     		mov	r0, r3
 136 000a BD46     		mov	sp, r7
 137              		@ sp needed
 138 000c 80BD     		pop	{r7, pc}
 139              	.L11:
 140 000e C046     		.align	2
 141              	.L10:
 142 0010 10101040 		.word	1074794512
 143              		.cfi_endproc
 144              	.LFE3:
 145              		.size	CyDmaGetStatus, .-CyDmaGetStatus
 146              		.section	.text.CyDmaGetActiveChannels,"ax",%progbits
 147              		.align	2
 148              		.global	CyDmaGetActiveChannels
 149              		.code	16
 150              		.thumb_func
 151              		.type	CyDmaGetActiveChannels, %function
 152              	CyDmaGetActiveChannels:
 153              	.LFB4:
 124:.\Generated_Source\PSoC4/CyDMA.c **** 
 125:.\Generated_Source\PSoC4/CyDMA.c **** 
 126:.\Generated_Source\PSoC4/CyDMA.c **** /*******************************************************************************
 127:.\Generated_Source\PSoC4/CyDMA.c **** * Function Name: CyDmaGetActiveChannels
 128:.\Generated_Source\PSoC4/CyDMA.c **** ********************************************************************************
 129:.\Generated_Source\PSoC4/CyDMA.c **** *
 130:.\Generated_Source\PSoC4/CyDMA.c **** * Summary:
 131:.\Generated_Source\PSoC4/CyDMA.c **** *  Returns a bit field of all the DMA channels that are either active or
 132:.\Generated_Source\PSoC4/CyDMA.c **** *  pending.
ARM GAS  C:\Users\Matty\AppData\Local\Temp\ccXs7IQl.s 			page 6


 133:.\Generated_Source\PSoC4/CyDMA.c **** *
 134:.\Generated_Source\PSoC4/CyDMA.c **** * Parameters:
 135:.\Generated_Source\PSoC4/CyDMA.c **** *  None.
 136:.\Generated_Source\PSoC4/CyDMA.c **** *                   
 137:.\Generated_Source\PSoC4/CyDMA.c **** * Return:
 138:.\Generated_Source\PSoC4/CyDMA.c **** *  Bit field of active and pending channels. 
 139:.\Generated_Source\PSoC4/CyDMA.c **** *
 140:.\Generated_Source\PSoC4/CyDMA.c **** *******************************************************************************/
 141:.\Generated_Source\PSoC4/CyDMA.c **** uint32 CyDmaGetActiveChannels(void)
 142:.\Generated_Source\PSoC4/CyDMA.c **** {
 154              		.loc 1 142 0
 155              		.cfi_startproc
 156 0000 80B5     		push	{r7, lr}
 157              		.cfi_def_cfa_offset 8
 158              		.cfi_offset 7, -8
 159              		.cfi_offset 14, -4
 160 0002 00AF     		add	r7, sp, #0
 161              		.cfi_def_cfa_register 7
 143:.\Generated_Source\PSoC4/CyDMA.c ****     return (CYDMA_STATUS_CH_ACT_REG);
 162              		.loc 1 143 0
 163 0004 024B     		ldr	r3, .L14
 164 0006 1B68     		ldr	r3, [r3]
 144:.\Generated_Source\PSoC4/CyDMA.c **** }
 165              		.loc 1 144 0
 166 0008 181C     		mov	r0, r3
 167 000a BD46     		mov	sp, r7
 168              		@ sp needed
 169 000c 80BD     		pop	{r7, pc}
 170              	.L15:
 171 000e C046     		.align	2
 172              	.L14:
 173 0010 1C101040 		.word	1074794524
 174              		.cfi_endproc
 175              	.LFE4:
 176              		.size	CyDmaGetActiveChannels, .-CyDmaGetActiveChannels
 177              		.section	.text.CyDmaGetActiveSrcAddress,"ax",%progbits
 178              		.align	2
 179              		.global	CyDmaGetActiveSrcAddress
 180              		.code	16
 181              		.thumb_func
 182              		.type	CyDmaGetActiveSrcAddress, %function
 183              	CyDmaGetActiveSrcAddress:
 184              	.LFB5:
 145:.\Generated_Source\PSoC4/CyDMA.c **** 
 146:.\Generated_Source\PSoC4/CyDMA.c **** 
 147:.\Generated_Source\PSoC4/CyDMA.c **** /*******************************************************************************
 148:.\Generated_Source\PSoC4/CyDMA.c **** * Function Name: CyDmaGetActiveSrcAddress
 149:.\Generated_Source\PSoC4/CyDMA.c **** ********************************************************************************
 150:.\Generated_Source\PSoC4/CyDMA.c **** *
 151:.\Generated_Source\PSoC4/CyDMA.c **** * Summary:
 152:.\Generated_Source\PSoC4/CyDMA.c **** *  Returns the source address currently being used by the DMA transfer engine.
 153:.\Generated_Source\PSoC4/CyDMA.c **** *  This function can be used to debug the DMA, or observe where it is at in a
 154:.\Generated_Source\PSoC4/CyDMA.c **** *  transfer. It will not be used in normal DMA operation.
 155:.\Generated_Source\PSoC4/CyDMA.c **** *
 156:.\Generated_Source\PSoC4/CyDMA.c **** * Parameters:
 157:.\Generated_Source\PSoC4/CyDMA.c **** *  None.
 158:.\Generated_Source\PSoC4/CyDMA.c **** *                   
ARM GAS  C:\Users\Matty\AppData\Local\Temp\ccXs7IQl.s 			page 7


 159:.\Generated_Source\PSoC4/CyDMA.c **** * Return:
 160:.\Generated_Source\PSoC4/CyDMA.c **** *  Source address currently being used by the DMA transfer engine.
 161:.\Generated_Source\PSoC4/CyDMA.c **** *
 162:.\Generated_Source\PSoC4/CyDMA.c **** * Side effect:
 163:.\Generated_Source\PSoC4/CyDMA.c **** *  The series of function calls CyDmaGetActiveSrcAddress(),
 164:.\Generated_Source\PSoC4/CyDMA.c **** *  CyDmaGetActiveDstAddress(), CyDmaGetStatus() are not atomic, the DMA
 165:.\Generated_Source\PSoC4/CyDMA.c **** *  engine may have advanced after one or more of these function calls. Meaning
 166:.\Generated_Source\PSoC4/CyDMA.c **** *  the returns from these three functions may not be related to each other.
 167:.\Generated_Source\PSoC4/CyDMA.c **** *
 168:.\Generated_Source\PSoC4/CyDMA.c **** *******************************************************************************/
 169:.\Generated_Source\PSoC4/CyDMA.c **** void * CyDmaGetActiveSrcAddress(void)
 170:.\Generated_Source\PSoC4/CyDMA.c **** {
 185              		.loc 1 170 0
 186              		.cfi_startproc
 187 0000 80B5     		push	{r7, lr}
 188              		.cfi_def_cfa_offset 8
 189              		.cfi_offset 7, -8
 190              		.cfi_offset 14, -4
 191 0002 00AF     		add	r7, sp, #0
 192              		.cfi_def_cfa_register 7
 171:.\Generated_Source\PSoC4/CyDMA.c ****     return ((void *)CYDMA_STATUS_SRC_ADDR_REG);
 193              		.loc 1 171 0
 194 0004 024B     		ldr	r3, .L18
 195 0006 1B68     		ldr	r3, [r3]
 172:.\Generated_Source\PSoC4/CyDMA.c **** }
 196              		.loc 1 172 0
 197 0008 181C     		mov	r0, r3
 198 000a BD46     		mov	sp, r7
 199              		@ sp needed
 200 000c 80BD     		pop	{r7, pc}
 201              	.L19:
 202 000e C046     		.align	2
 203              	.L18:
 204 0010 14101040 		.word	1074794516
 205              		.cfi_endproc
 206              	.LFE5:
 207              		.size	CyDmaGetActiveSrcAddress, .-CyDmaGetActiveSrcAddress
 208              		.section	.text.CyDmaGetActiveDstAddress,"ax",%progbits
 209              		.align	2
 210              		.global	CyDmaGetActiveDstAddress
 211              		.code	16
 212              		.thumb_func
 213              		.type	CyDmaGetActiveDstAddress, %function
 214              	CyDmaGetActiveDstAddress:
 215              	.LFB6:
 173:.\Generated_Source\PSoC4/CyDMA.c **** 
 174:.\Generated_Source\PSoC4/CyDMA.c **** 
 175:.\Generated_Source\PSoC4/CyDMA.c **** /*******************************************************************************
 176:.\Generated_Source\PSoC4/CyDMA.c **** * Function Name: CyDmaGetActiveDstAddress
 177:.\Generated_Source\PSoC4/CyDMA.c **** ********************************************************************************
 178:.\Generated_Source\PSoC4/CyDMA.c **** *
 179:.\Generated_Source\PSoC4/CyDMA.c **** * Summary:
 180:.\Generated_Source\PSoC4/CyDMA.c **** *  Returns the destination address currently being used by the DMA transfer
 181:.\Generated_Source\PSoC4/CyDMA.c **** *  engine. This function can be used to debug the DMA, or observe where it is at
 182:.\Generated_Source\PSoC4/CyDMA.c **** *  in a transfer. It will not be used in normal DMA operation.
 183:.\Generated_Source\PSoC4/CyDMA.c **** *
 184:.\Generated_Source\PSoC4/CyDMA.c **** * Parameters:
ARM GAS  C:\Users\Matty\AppData\Local\Temp\ccXs7IQl.s 			page 8


 185:.\Generated_Source\PSoC4/CyDMA.c **** *  None.
 186:.\Generated_Source\PSoC4/CyDMA.c **** *                   
 187:.\Generated_Source\PSoC4/CyDMA.c **** * Return:
 188:.\Generated_Source\PSoC4/CyDMA.c **** *  Destination address currently being used by the DMA transfer engine.
 189:.\Generated_Source\PSoC4/CyDMA.c **** *
 190:.\Generated_Source\PSoC4/CyDMA.c **** * Side effect:
 191:.\Generated_Source\PSoC4/CyDMA.c **** *  The series of function calls CyDmaGetActiveSrcAddress(),
 192:.\Generated_Source\PSoC4/CyDMA.c **** *  CyDmaGetActiveDstAddress(), CyDmaGetStatus() are not atomic, the DMA
 193:.\Generated_Source\PSoC4/CyDMA.c **** *  engine may have advanced after one or more of these function calls. Meaning
 194:.\Generated_Source\PSoC4/CyDMA.c **** *  the returns from these three functions may not be related to each other.
 195:.\Generated_Source\PSoC4/CyDMA.c **** *
 196:.\Generated_Source\PSoC4/CyDMA.c **** *******************************************************************************/
 197:.\Generated_Source\PSoC4/CyDMA.c **** void * CyDmaGetActiveDstAddress(void)
 198:.\Generated_Source\PSoC4/CyDMA.c **** {
 216              		.loc 1 198 0
 217              		.cfi_startproc
 218 0000 80B5     		push	{r7, lr}
 219              		.cfi_def_cfa_offset 8
 220              		.cfi_offset 7, -8
 221              		.cfi_offset 14, -4
 222 0002 00AF     		add	r7, sp, #0
 223              		.cfi_def_cfa_register 7
 199:.\Generated_Source\PSoC4/CyDMA.c ****     return ((void *)CYDMA_STATUS_DST_ADDR_REG);
 224              		.loc 1 199 0
 225 0004 024B     		ldr	r3, .L22
 226 0006 1B68     		ldr	r3, [r3]
 200:.\Generated_Source\PSoC4/CyDMA.c **** }
 227              		.loc 1 200 0
 228 0008 181C     		mov	r0, r3
 229 000a BD46     		mov	sp, r7
 230              		@ sp needed
 231 000c 80BD     		pop	{r7, pc}
 232              	.L23:
 233 000e C046     		.align	2
 234              	.L22:
 235 0010 18101040 		.word	1074794520
 236              		.cfi_endproc
 237              	.LFE6:
 238              		.size	CyDmaGetActiveDstAddress, .-CyDmaGetActiveDstAddress
 239              		.section	.text.CyDmaSetInterruptVector,"ax",%progbits
 240              		.align	2
 241              		.global	CyDmaSetInterruptVector
 242              		.code	16
 243              		.thumb_func
 244              		.type	CyDmaSetInterruptVector, %function
 245              	CyDmaSetInterruptVector:
 246              	.LFB7:
 201:.\Generated_Source\PSoC4/CyDMA.c **** 
 202:.\Generated_Source\PSoC4/CyDMA.c **** 
 203:.\Generated_Source\PSoC4/CyDMA.c **** /*******************************************************************************
 204:.\Generated_Source\PSoC4/CyDMA.c **** * Function Name: CyDmaSetInterruptVector
 205:.\Generated_Source\PSoC4/CyDMA.c **** ********************************************************************************
 206:.\Generated_Source\PSoC4/CyDMA.c **** *
 207:.\Generated_Source\PSoC4/CyDMA.c **** * Summary:
 208:.\Generated_Source\PSoC4/CyDMA.c **** *  Sets the function that will be called by the DMA interrupt. Note, calling
 209:.\Generated_Source\PSoC4/CyDMA.c **** *  CyDmaEnable() for the first time overrides any effect this API could have.
 210:.\Generated_Source\PSoC4/CyDMA.c **** *  Call CyDmaSetInterruptVector() after calling CyDmaEnable() to change
ARM GAS  C:\Users\Matty\AppData\Local\Temp\ccXs7IQl.s 			page 9


 211:.\Generated_Source\PSoC4/CyDMA.c **** *  the default ISR.
 212:.\Generated_Source\PSoC4/CyDMA.c **** *
 213:.\Generated_Source\PSoC4/CyDMA.c **** * Parameters:
 214:.\Generated_Source\PSoC4/CyDMA.c **** *  interruptVector: Address of the function that will be called by the DMA
 215:.\Generated_Source\PSoC4/CyDMA.c **** *                   interrupt.
 216:.\Generated_Source\PSoC4/CyDMA.c **** * Return:
 217:.\Generated_Source\PSoC4/CyDMA.c **** *  None.
 218:.\Generated_Source\PSoC4/CyDMA.c **** *
 219:.\Generated_Source\PSoC4/CyDMA.c **** * Side effect:
 220:.\Generated_Source\PSoC4/CyDMA.c **** *  Other components that use DMA may register their callback functions to be
 221:.\Generated_Source\PSoC4/CyDMA.c **** *  called from the default DMA ISR. Therefore, changing the DMA ISR to a user
 222:.\Generated_Source\PSoC4/CyDMA.c **** *  defined ISR using this API may prevent these other components from
 223:.\Generated_Source\PSoC4/CyDMA.c **** *  functioning correctly.
 224:.\Generated_Source\PSoC4/CyDMA.c **** *
 225:.\Generated_Source\PSoC4/CyDMA.c **** *******************************************************************************/
 226:.\Generated_Source\PSoC4/CyDMA.c **** void CyDmaSetInterruptVector(cyisraddress interruptVector)
 227:.\Generated_Source\PSoC4/CyDMA.c **** {
 247              		.loc 1 227 0
 248              		.cfi_startproc
 249 0000 80B5     		push	{r7, lr}
 250              		.cfi_def_cfa_offset 8
 251              		.cfi_offset 7, -8
 252              		.cfi_offset 14, -4
 253 0002 82B0     		sub	sp, sp, #8
 254              		.cfi_def_cfa_offset 16
 255 0004 00AF     		add	r7, sp, #0
 256              		.cfi_def_cfa_register 7
 257 0006 7860     		str	r0, [r7, #4]
 228:.\Generated_Source\PSoC4/CyDMA.c ****     (void)CyIntSetVector(CYDMA_INTR_NUMBER, interruptVector);
 258              		.loc 1 228 0
 259 0008 7B68     		ldr	r3, [r7, #4]
 260 000a 0D20     		mov	r0, #13
 261 000c 191C     		mov	r1, r3
 262 000e FFF7FEFF 		bl	CyIntSetVector
 229:.\Generated_Source\PSoC4/CyDMA.c **** }
 263              		.loc 1 229 0
 264 0012 BD46     		mov	sp, r7
 265 0014 02B0     		add	sp, sp, #8
 266              		@ sp needed
 267 0016 80BD     		pop	{r7, pc}
 268              		.cfi_endproc
 269              	.LFE7:
 270              		.size	CyDmaSetInterruptVector, .-CyDmaSetInterruptVector
 271              		.section	.text.CyDmaGetInterruptSource,"ax",%progbits
 272              		.align	2
 273              		.global	CyDmaGetInterruptSource
 274              		.code	16
 275              		.thumb_func
 276              		.type	CyDmaGetInterruptSource, %function
 277              	CyDmaGetInterruptSource:
 278              	.LFB8:
 230:.\Generated_Source\PSoC4/CyDMA.c **** 
 231:.\Generated_Source\PSoC4/CyDMA.c **** 
 232:.\Generated_Source\PSoC4/CyDMA.c **** /*******************************************************************************
 233:.\Generated_Source\PSoC4/CyDMA.c **** * Function Name: CyDmaGetInterruptSource
 234:.\Generated_Source\PSoC4/CyDMA.c **** ********************************************************************************
 235:.\Generated_Source\PSoC4/CyDMA.c **** *
ARM GAS  C:\Users\Matty\AppData\Local\Temp\ccXs7IQl.s 			page 10


 236:.\Generated_Source\PSoC4/CyDMA.c **** * Summary:
 237:.\Generated_Source\PSoC4/CyDMA.c **** *  Returns the bit field of which channels generated an interrupt request.
 238:.\Generated_Source\PSoC4/CyDMA.c **** *
 239:.\Generated_Source\PSoC4/CyDMA.c **** * Parameters:
 240:.\Generated_Source\PSoC4/CyDMA.c **** *  None.
 241:.\Generated_Source\PSoC4/CyDMA.c **** *                   
 242:.\Generated_Source\PSoC4/CyDMA.c **** * Return:
 243:.\Generated_Source\PSoC4/CyDMA.c **** *  Bit filed of which channels generated an interrupt request.
 244:.\Generated_Source\PSoC4/CyDMA.c **** *
 245:.\Generated_Source\PSoC4/CyDMA.c **** *******************************************************************************/
 246:.\Generated_Source\PSoC4/CyDMA.c **** uint32 CyDmaGetInterruptSource(void)
 247:.\Generated_Source\PSoC4/CyDMA.c **** {
 279              		.loc 1 247 0
 280              		.cfi_startproc
 281 0000 80B5     		push	{r7, lr}
 282              		.cfi_def_cfa_offset 8
 283              		.cfi_offset 7, -8
 284              		.cfi_offset 14, -4
 285 0002 00AF     		add	r7, sp, #0
 286              		.cfi_def_cfa_register 7
 248:.\Generated_Source\PSoC4/CyDMA.c ****     return (CYDMA_INTR_REG);
 287              		.loc 1 248 0
 288 0004 024B     		ldr	r3, .L27
 289 0006 1B68     		ldr	r3, [r3]
 249:.\Generated_Source\PSoC4/CyDMA.c **** }
 290              		.loc 1 249 0
 291 0008 181C     		mov	r0, r3
 292 000a BD46     		mov	sp, r7
 293              		@ sp needed
 294 000c 80BD     		pop	{r7, pc}
 295              	.L28:
 296 000e C046     		.align	2
 297              	.L27:
 298 0010 F0171040 		.word	1074796528
 299              		.cfi_endproc
 300              	.LFE8:
 301              		.size	CyDmaGetInterruptSource, .-CyDmaGetInterruptSource
 302              		.section	.text.CyDmaClearInterruptSource,"ax",%progbits
 303              		.align	2
 304              		.global	CyDmaClearInterruptSource
 305              		.code	16
 306              		.thumb_func
 307              		.type	CyDmaClearInterruptSource, %function
 308              	CyDmaClearInterruptSource:
 309              	.LFB9:
 250:.\Generated_Source\PSoC4/CyDMA.c **** 
 251:.\Generated_Source\PSoC4/CyDMA.c **** 
 252:.\Generated_Source\PSoC4/CyDMA.c **** /*******************************************************************************
 253:.\Generated_Source\PSoC4/CyDMA.c **** * Function Name: CyDmaClearInterruptSource
 254:.\Generated_Source\PSoC4/CyDMA.c **** ********************************************************************************
 255:.\Generated_Source\PSoC4/CyDMA.c **** *
 256:.\Generated_Source\PSoC4/CyDMA.c **** * Summary:
 257:.\Generated_Source\PSoC4/CyDMA.c **** *  Clears the pending interrupts.
 258:.\Generated_Source\PSoC4/CyDMA.c **** *
 259:.\Generated_Source\PSoC4/CyDMA.c **** * Parameters:
 260:.\Generated_Source\PSoC4/CyDMA.c **** *  interruptMask: Bit field of interrupts to clear.
 261:.\Generated_Source\PSoC4/CyDMA.c **** *                   
ARM GAS  C:\Users\Matty\AppData\Local\Temp\ccXs7IQl.s 			page 11


 262:.\Generated_Source\PSoC4/CyDMA.c **** * Return:
 263:.\Generated_Source\PSoC4/CyDMA.c **** *  None.
 264:.\Generated_Source\PSoC4/CyDMA.c **** *
 265:.\Generated_Source\PSoC4/CyDMA.c **** *******************************************************************************/
 266:.\Generated_Source\PSoC4/CyDMA.c **** void CyDmaClearInterruptSource(uint32 interruptMask)
 267:.\Generated_Source\PSoC4/CyDMA.c **** {
 310              		.loc 1 267 0
 311              		.cfi_startproc
 312 0000 80B5     		push	{r7, lr}
 313              		.cfi_def_cfa_offset 8
 314              		.cfi_offset 7, -8
 315              		.cfi_offset 14, -4
 316 0002 82B0     		sub	sp, sp, #8
 317              		.cfi_def_cfa_offset 16
 318 0004 00AF     		add	r7, sp, #0
 319              		.cfi_def_cfa_register 7
 320 0006 7860     		str	r0, [r7, #4]
 268:.\Generated_Source\PSoC4/CyDMA.c ****     CYDMA_INTR_REG = interruptMask;
 321              		.loc 1 268 0
 322 0008 024B     		ldr	r3, .L30
 323 000a 7A68     		ldr	r2, [r7, #4]
 324 000c 1A60     		str	r2, [r3]
 269:.\Generated_Source\PSoC4/CyDMA.c **** }
 325              		.loc 1 269 0
 326 000e BD46     		mov	sp, r7
 327 0010 02B0     		add	sp, sp, #8
 328              		@ sp needed
 329 0012 80BD     		pop	{r7, pc}
 330              	.L31:
 331              		.align	2
 332              	.L30:
 333 0014 F0171040 		.word	1074796528
 334              		.cfi_endproc
 335              	.LFE9:
 336              		.size	CyDmaClearInterruptSource, .-CyDmaClearInterruptSource
 337              		.section	.text.CyDmaSetInterruptSourceMask,"ax",%progbits
 338              		.align	2
 339              		.global	CyDmaSetInterruptSourceMask
 340              		.code	16
 341              		.thumb_func
 342              		.type	CyDmaSetInterruptSourceMask, %function
 343              	CyDmaSetInterruptSourceMask:
 344              	.LFB10:
 270:.\Generated_Source\PSoC4/CyDMA.c **** 
 271:.\Generated_Source\PSoC4/CyDMA.c **** 
 272:.\Generated_Source\PSoC4/CyDMA.c **** /*******************************************************************************
 273:.\Generated_Source\PSoC4/CyDMA.c **** * Function Name: CyDmaSetInterruptSourceMask
 274:.\Generated_Source\PSoC4/CyDMA.c **** ********************************************************************************
 275:.\Generated_Source\PSoC4/CyDMA.c **** *
 276:.\Generated_Source\PSoC4/CyDMA.c **** * Summary:
 277:.\Generated_Source\PSoC4/CyDMA.c **** *  Sets mask for interrupt source.
 278:.\Generated_Source\PSoC4/CyDMA.c **** *
 279:.\Generated_Source\PSoC4/CyDMA.c **** * Parameters:
 280:.\Generated_Source\PSoC4/CyDMA.c **** *  interruptmask: Mask corresponding to interrupt bit field.
 281:.\Generated_Source\PSoC4/CyDMA.c **** *                   
 282:.\Generated_Source\PSoC4/CyDMA.c **** * Return:
 283:.\Generated_Source\PSoC4/CyDMA.c **** *  None.
ARM GAS  C:\Users\Matty\AppData\Local\Temp\ccXs7IQl.s 			page 12


 284:.\Generated_Source\PSoC4/CyDMA.c **** *
 285:.\Generated_Source\PSoC4/CyDMA.c **** *******************************************************************************/
 286:.\Generated_Source\PSoC4/CyDMA.c **** void CyDmaSetInterruptSourceMask(uint32 interruptMask)
 287:.\Generated_Source\PSoC4/CyDMA.c **** {
 345              		.loc 1 287 0
 346              		.cfi_startproc
 347 0000 80B5     		push	{r7, lr}
 348              		.cfi_def_cfa_offset 8
 349              		.cfi_offset 7, -8
 350              		.cfi_offset 14, -4
 351 0002 82B0     		sub	sp, sp, #8
 352              		.cfi_def_cfa_offset 16
 353 0004 00AF     		add	r7, sp, #0
 354              		.cfi_def_cfa_register 7
 355 0006 7860     		str	r0, [r7, #4]
 288:.\Generated_Source\PSoC4/CyDMA.c ****     CYDMA_INTR_MASK_REG = interruptMask;
 356              		.loc 1 288 0
 357 0008 024B     		ldr	r3, .L33
 358 000a 7A68     		ldr	r2, [r7, #4]
 359 000c 1A60     		str	r2, [r3]
 289:.\Generated_Source\PSoC4/CyDMA.c **** }
 360              		.loc 1 289 0
 361 000e BD46     		mov	sp, r7
 362 0010 02B0     		add	sp, sp, #8
 363              		@ sp needed
 364 0012 80BD     		pop	{r7, pc}
 365              	.L34:
 366              		.align	2
 367              	.L33:
 368 0014 F8171040 		.word	1074796536
 369              		.cfi_endproc
 370              	.LFE10:
 371              		.size	CyDmaSetInterruptSourceMask, .-CyDmaSetInterruptSourceMask
 372              		.section	.text.CyDmaGetInterruptSourceMask,"ax",%progbits
 373              		.align	2
 374              		.global	CyDmaGetInterruptSourceMask
 375              		.code	16
 376              		.thumb_func
 377              		.type	CyDmaGetInterruptSourceMask, %function
 378              	CyDmaGetInterruptSourceMask:
 379              	.LFB11:
 290:.\Generated_Source\PSoC4/CyDMA.c **** 
 291:.\Generated_Source\PSoC4/CyDMA.c **** 
 292:.\Generated_Source\PSoC4/CyDMA.c **** /*******************************************************************************
 293:.\Generated_Source\PSoC4/CyDMA.c **** * Function Name: CyDmaGetInterruptSourceMask
 294:.\Generated_Source\PSoC4/CyDMA.c **** ********************************************************************************
 295:.\Generated_Source\PSoC4/CyDMA.c **** *
 296:.\Generated_Source\PSoC4/CyDMA.c **** * Summary:
 297:.\Generated_Source\PSoC4/CyDMA.c **** *  Returns mask for interrupt source.
 298:.\Generated_Source\PSoC4/CyDMA.c **** *
 299:.\Generated_Source\PSoC4/CyDMA.c **** * Parameters:
 300:.\Generated_Source\PSoC4/CyDMA.c **** *  None.
 301:.\Generated_Source\PSoC4/CyDMA.c **** *                   
 302:.\Generated_Source\PSoC4/CyDMA.c **** * Return:
 303:.\Generated_Source\PSoC4/CyDMA.c **** *  Mask corresponding to interrupt bit field.
 304:.\Generated_Source\PSoC4/CyDMA.c **** *
 305:.\Generated_Source\PSoC4/CyDMA.c **** *******************************************************************************/
ARM GAS  C:\Users\Matty\AppData\Local\Temp\ccXs7IQl.s 			page 13


 306:.\Generated_Source\PSoC4/CyDMA.c **** uint32 CyDmaGetInterruptSourceMask(void)
 307:.\Generated_Source\PSoC4/CyDMA.c **** {
 380              		.loc 1 307 0
 381              		.cfi_startproc
 382 0000 80B5     		push	{r7, lr}
 383              		.cfi_def_cfa_offset 8
 384              		.cfi_offset 7, -8
 385              		.cfi_offset 14, -4
 386 0002 00AF     		add	r7, sp, #0
 387              		.cfi_def_cfa_register 7
 308:.\Generated_Source\PSoC4/CyDMA.c ****     return (CYDMA_INTR_MASK_REG);
 388              		.loc 1 308 0
 389 0004 024B     		ldr	r3, .L37
 390 0006 1B68     		ldr	r3, [r3]
 309:.\Generated_Source\PSoC4/CyDMA.c **** }
 391              		.loc 1 309 0
 392 0008 181C     		mov	r0, r3
 393 000a BD46     		mov	sp, r7
 394              		@ sp needed
 395 000c 80BD     		pop	{r7, pc}
 396              	.L38:
 397 000e C046     		.align	2
 398              	.L37:
 399 0010 F8171040 		.word	1074796536
 400              		.cfi_endproc
 401              	.LFE11:
 402              		.size	CyDmaGetInterruptSourceMask, .-CyDmaGetInterruptSourceMask
 403              		.section	.text.CyDmaGetInterruptSourceMasked,"ax",%progbits
 404              		.align	2
 405              		.global	CyDmaGetInterruptSourceMasked
 406              		.code	16
 407              		.thumb_func
 408              		.type	CyDmaGetInterruptSourceMasked, %function
 409              	CyDmaGetInterruptSourceMasked:
 410              	.LFB12:
 310:.\Generated_Source\PSoC4/CyDMA.c **** 
 311:.\Generated_Source\PSoC4/CyDMA.c **** 
 312:.\Generated_Source\PSoC4/CyDMA.c **** /*******************************************************************************
 313:.\Generated_Source\PSoC4/CyDMA.c **** * Function Name: CyDmaGetInterruptSourceMasked
 314:.\Generated_Source\PSoC4/CyDMA.c **** ********************************************************************************
 315:.\Generated_Source\PSoC4/CyDMA.c **** *
 316:.\Generated_Source\PSoC4/CyDMA.c **** * Summary:
 317:.\Generated_Source\PSoC4/CyDMA.c **** *  Returns the bitwise AND of the interrupt source and the interrupt mask.
 318:.\Generated_Source\PSoC4/CyDMA.c **** *
 319:.\Generated_Source\PSoC4/CyDMA.c **** * Parameters:
 320:.\Generated_Source\PSoC4/CyDMA.c **** *  None.
 321:.\Generated_Source\PSoC4/CyDMA.c **** *                   
 322:.\Generated_Source\PSoC4/CyDMA.c **** * Return:
 323:.\Generated_Source\PSoC4/CyDMA.c **** *  Bitwise AND of the interrupt source and the interrupt mask.
 324:.\Generated_Source\PSoC4/CyDMA.c **** *
 325:.\Generated_Source\PSoC4/CyDMA.c **** *******************************************************************************/
 326:.\Generated_Source\PSoC4/CyDMA.c **** uint32 CyDmaGetInterruptSourceMasked(void)
 327:.\Generated_Source\PSoC4/CyDMA.c **** {
 411              		.loc 1 327 0
 412              		.cfi_startproc
 413 0000 80B5     		push	{r7, lr}
 414              		.cfi_def_cfa_offset 8
ARM GAS  C:\Users\Matty\AppData\Local\Temp\ccXs7IQl.s 			page 14


 415              		.cfi_offset 7, -8
 416              		.cfi_offset 14, -4
 417 0002 00AF     		add	r7, sp, #0
 418              		.cfi_def_cfa_register 7
 328:.\Generated_Source\PSoC4/CyDMA.c ****     return (CYDMA_INTR_MASKED_REG);
 419              		.loc 1 328 0
 420 0004 024B     		ldr	r3, .L41
 421 0006 1B68     		ldr	r3, [r3]
 329:.\Generated_Source\PSoC4/CyDMA.c **** }
 422              		.loc 1 329 0
 423 0008 181C     		mov	r0, r3
 424 000a BD46     		mov	sp, r7
 425              		@ sp needed
 426 000c 80BD     		pop	{r7, pc}
 427              	.L42:
 428 000e C046     		.align	2
 429              	.L41:
 430 0010 FC171040 		.word	1074796540
 431              		.cfi_endproc
 432              	.LFE12:
 433              		.size	CyDmaGetInterruptSourceMasked, .-CyDmaGetInterruptSourceMasked
 434              		.section	.text.CyDmaSetInterruptCallback,"ax",%progbits
 435              		.align	2
 436              		.global	CyDmaSetInterruptCallback
 437              		.code	16
 438              		.thumb_func
 439              		.type	CyDmaSetInterruptCallback, %function
 440              	CyDmaSetInterruptCallback:
 441              	.LFB13:
 330:.\Generated_Source\PSoC4/CyDMA.c **** 
 331:.\Generated_Source\PSoC4/CyDMA.c **** 
 332:.\Generated_Source\PSoC4/CyDMA.c **** /*******************************************************************************
 333:.\Generated_Source\PSoC4/CyDMA.c **** * Function Name: CyDmaSetInterruptCallback
 334:.\Generated_Source\PSoC4/CyDMA.c **** ********************************************************************************
 335:.\Generated_Source\PSoC4/CyDMA.c **** *
 336:.\Generated_Source\PSoC4/CyDMA.c **** * Summary:
 337:.\Generated_Source\PSoC4/CyDMA.c **** *  Sets a user defined callback function to be called by the DMA interrupt. The
 338:.\Generated_Source\PSoC4/CyDMA.c **** *  function should contain code to process the interrupt request for the 
 339:.\Generated_Source\PSoC4/CyDMA.c **** *  associated DMA channel.
 340:.\Generated_Source\PSoC4/CyDMA.c **** *
 341:.\Generated_Source\PSoC4/CyDMA.c **** * Parameters:
 342:.\Generated_Source\PSoC4/CyDMA.c **** *  channel:  Channel used by this function.
 343:.\Generated_Source\PSoC4/CyDMA.c **** *  callback: Pointer to the user defined callback function.
 344:.\Generated_Source\PSoC4/CyDMA.c **** *
 345:.\Generated_Source\PSoC4/CyDMA.c **** * Return:
 346:.\Generated_Source\PSoC4/CyDMA.c **** *  Pointer to the function previously set for the specified channel. 
 347:.\Generated_Source\PSoC4/CyDMA.c **** *
 348:.\Generated_Source\PSoC4/CyDMA.c **** *******************************************************************************/
 349:.\Generated_Source\PSoC4/CyDMA.c **** cydma_callback_t CyDmaSetInterruptCallback(int32 channel, cydma_callback_t callback)
 350:.\Generated_Source\PSoC4/CyDMA.c **** {
 442              		.loc 1 350 0
 443              		.cfi_startproc
 444 0000 80B5     		push	{r7, lr}
 445              		.cfi_def_cfa_offset 8
 446              		.cfi_offset 7, -8
 447              		.cfi_offset 14, -4
 448 0002 84B0     		sub	sp, sp, #16
ARM GAS  C:\Users\Matty\AppData\Local\Temp\ccXs7IQl.s 			page 15


 449              		.cfi_def_cfa_offset 24
 450 0004 00AF     		add	r7, sp, #0
 451              		.cfi_def_cfa_register 7
 452 0006 7860     		str	r0, [r7, #4]
 453 0008 3960     		str	r1, [r7]
 351:.\Generated_Source\PSoC4/CyDMA.c ****     cydma_callback_t prevCallback;
 352:.\Generated_Source\PSoC4/CyDMA.c **** 
 353:.\Generated_Source\PSoC4/CyDMA.c ****     CYASSERT((channel >= 0) && (channel < CYDMA_CH_NR));
 454              		.loc 1 353 0
 455 000a 7B68     		ldr	r3, [r7, #4]
 456 000c 002B     		cmp	r3, #0
 457 000e 04DB     		blt	.L44
 458              		.loc 1 353 0 is_stmt 0 discriminator 1
 459 0010 7B68     		ldr	r3, [r7, #4]
 460 0012 072B     		cmp	r3, #7
 461 0014 01DC     		bgt	.L44
 462              		.loc 1 353 0 discriminator 3
 463 0016 0123     		mov	r3, #1
 464 0018 00E0     		b	.L45
 465              	.L44:
 466              		.loc 1 353 0 discriminator 2
 467 001a 0023     		mov	r3, #0
 468              	.L45:
 469              		.loc 1 353 0 discriminator 4
 470 001c 002B     		cmp	r3, #0
 471 001e 02D1     		bne	.L46
 472              		.loc 1 353 0 discriminator 1
 473 0020 0020     		mov	r0, #0
 474 0022 FFF7FEFF 		bl	CyHalt
 475              	.L46:
 354:.\Generated_Source\PSoC4/CyDMA.c **** 
 355:.\Generated_Source\PSoC4/CyDMA.c ****     prevCallback = CyDmaInterruptCallback[channel];
 476              		.loc 1 355 0 is_stmt 1
 477 0026 074B     		ldr	r3, .L48
 478 0028 7A68     		ldr	r2, [r7, #4]
 479 002a 9200     		lsl	r2, r2, #2
 480 002c D358     		ldr	r3, [r2, r3]
 481 002e FB60     		str	r3, [r7, #12]
 356:.\Generated_Source\PSoC4/CyDMA.c ****     CyDmaInterruptCallback[channel] = callback;
 482              		.loc 1 356 0
 483 0030 044B     		ldr	r3, .L48
 484 0032 7A68     		ldr	r2, [r7, #4]
 485 0034 9200     		lsl	r2, r2, #2
 486 0036 3968     		ldr	r1, [r7]
 487 0038 D150     		str	r1, [r2, r3]
 357:.\Generated_Source\PSoC4/CyDMA.c ****     return (prevCallback);
 488              		.loc 1 357 0
 489 003a FB68     		ldr	r3, [r7, #12]
 358:.\Generated_Source\PSoC4/CyDMA.c **** }
 490              		.loc 1 358 0
 491 003c 181C     		mov	r0, r3
 492 003e BD46     		mov	sp, r7
 493 0040 04B0     		add	sp, sp, #16
 494              		@ sp needed
 495 0042 80BD     		pop	{r7, pc}
 496              	.L49:
 497              		.align	2
ARM GAS  C:\Users\Matty\AppData\Local\Temp\ccXs7IQl.s 			page 16


 498              	.L48:
 499 0044 00000000 		.word	CyDmaInterruptCallback
 500              		.cfi_endproc
 501              	.LFE13:
 502              		.size	CyDmaSetInterruptCallback, .-CyDmaSetInterruptCallback
 503              		.section	.text.CyDmaGetInterruptCallback,"ax",%progbits
 504              		.align	2
 505              		.global	CyDmaGetInterruptCallback
 506              		.code	16
 507              		.thumb_func
 508              		.type	CyDmaGetInterruptCallback, %function
 509              	CyDmaGetInterruptCallback:
 510              	.LFB14:
 359:.\Generated_Source\PSoC4/CyDMA.c **** 
 360:.\Generated_Source\PSoC4/CyDMA.c **** 
 361:.\Generated_Source\PSoC4/CyDMA.c **** /*******************************************************************************
 362:.\Generated_Source\PSoC4/CyDMA.c **** * Function Name: CyDmaGetInterruptCallback
 363:.\Generated_Source\PSoC4/CyDMA.c **** ********************************************************************************
 364:.\Generated_Source\PSoC4/CyDMA.c **** *
 365:.\Generated_Source\PSoC4/CyDMA.c **** * Summary:
 366:.\Generated_Source\PSoC4/CyDMA.c **** *  Returns the pointer to the interrupt callback function for the specified DMA
 367:.\Generated_Source\PSoC4/CyDMA.c **** *  channel.
 368:.\Generated_Source\PSoC4/CyDMA.c **** *
 369:.\Generated_Source\PSoC4/CyDMA.c **** * Parameters:
 370:.\Generated_Source\PSoC4/CyDMA.c **** *  channel: Channel used by this function.
 371:.\Generated_Source\PSoC4/CyDMA.c **** *
 372:.\Generated_Source\PSoC4/CyDMA.c **** * Return:
 373:.\Generated_Source\PSoC4/CyDMA.c **** *  Callback function pointer for the specified channel.
 374:.\Generated_Source\PSoC4/CyDMA.c **** *
 375:.\Generated_Source\PSoC4/CyDMA.c **** *******************************************************************************/
 376:.\Generated_Source\PSoC4/CyDMA.c **** cydma_callback_t CyDmaGetInterruptCallback(int32 channel)
 377:.\Generated_Source\PSoC4/CyDMA.c **** {
 511              		.loc 1 377 0
 512              		.cfi_startproc
 513 0000 80B5     		push	{r7, lr}
 514              		.cfi_def_cfa_offset 8
 515              		.cfi_offset 7, -8
 516              		.cfi_offset 14, -4
 517 0002 82B0     		sub	sp, sp, #8
 518              		.cfi_def_cfa_offset 16
 519 0004 00AF     		add	r7, sp, #0
 520              		.cfi_def_cfa_register 7
 521 0006 7860     		str	r0, [r7, #4]
 378:.\Generated_Source\PSoC4/CyDMA.c ****     CYASSERT((channel >= 0) && (channel < CYDMA_CH_NR));
 522              		.loc 1 378 0
 523 0008 7B68     		ldr	r3, [r7, #4]
 524 000a 002B     		cmp	r3, #0
 525 000c 04DB     		blt	.L51
 526              		.loc 1 378 0 is_stmt 0 discriminator 1
 527 000e 7B68     		ldr	r3, [r7, #4]
 528 0010 072B     		cmp	r3, #7
 529 0012 01DC     		bgt	.L51
 530              		.loc 1 378 0 discriminator 3
 531 0014 0123     		mov	r3, #1
 532 0016 00E0     		b	.L52
 533              	.L51:
 534              		.loc 1 378 0 discriminator 2
ARM GAS  C:\Users\Matty\AppData\Local\Temp\ccXs7IQl.s 			page 17


 535 0018 0023     		mov	r3, #0
 536              	.L52:
 537              		.loc 1 378 0 discriminator 4
 538 001a 002B     		cmp	r3, #0
 539 001c 02D1     		bne	.L53
 540              		.loc 1 378 0 discriminator 1
 541 001e 0020     		mov	r0, #0
 542 0020 FFF7FEFF 		bl	CyHalt
 543              	.L53:
 379:.\Generated_Source\PSoC4/CyDMA.c ****     
 380:.\Generated_Source\PSoC4/CyDMA.c ****     return (CyDmaInterruptCallback[channel]);
 544              		.loc 1 380 0 is_stmt 1
 545 0024 034B     		ldr	r3, .L55
 546 0026 7A68     		ldr	r2, [r7, #4]
 547 0028 9200     		lsl	r2, r2, #2
 548 002a D358     		ldr	r3, [r2, r3]
 381:.\Generated_Source\PSoC4/CyDMA.c **** }
 549              		.loc 1 381 0
 550 002c 181C     		mov	r0, r3
 551 002e BD46     		mov	sp, r7
 552 0030 02B0     		add	sp, sp, #8
 553              		@ sp needed
 554 0032 80BD     		pop	{r7, pc}
 555              	.L56:
 556              		.align	2
 557              	.L55:
 558 0034 00000000 		.word	CyDmaInterruptCallback
 559              		.cfi_endproc
 560              	.LFE14:
 561              		.size	CyDmaGetInterruptCallback, .-CyDmaGetInterruptCallback
 562              		.section	.text.CyDmaInterrupt,"ax",%progbits
 563              		.align	2
 564              		.global	CyDmaInterrupt
 565              		.code	16
 566              		.thumb_func
 567              		.type	CyDmaInterrupt, %function
 568              	CyDmaInterrupt:
 569              	.LFB15:
 382:.\Generated_Source\PSoC4/CyDMA.c **** 
 383:.\Generated_Source\PSoC4/CyDMA.c **** 
 384:.\Generated_Source\PSoC4/CyDMA.c **** /*******************************************************************************
 385:.\Generated_Source\PSoC4/CyDMA.c **** * Function Name: CyDmaInterrupt
 386:.\Generated_Source\PSoC4/CyDMA.c **** ********************************************************************************
 387:.\Generated_Source\PSoC4/CyDMA.c **** *
 388:.\Generated_Source\PSoC4/CyDMA.c **** * Summary:
 389:.\Generated_Source\PSoC4/CyDMA.c **** *  The default ISR for DMA interrupts. The handler checks which DMA channel has
 390:.\Generated_Source\PSoC4/CyDMA.c **** *  triggered the interrupt and calls the user defined callback function.
 391:.\Generated_Source\PSoC4/CyDMA.c **** *  The callback function is set using CyDmaSetInteruptCallback() API.
 392:.\Generated_Source\PSoC4/CyDMA.c **** *
 393:.\Generated_Source\PSoC4/CyDMA.c **** * Parameters:
 394:.\Generated_Source\PSoC4/CyDMA.c **** *  None.
 395:.\Generated_Source\PSoC4/CyDMA.c **** *
 396:.\Generated_Source\PSoC4/CyDMA.c **** * Return:
 397:.\Generated_Source\PSoC4/CyDMA.c **** *  None.
 398:.\Generated_Source\PSoC4/CyDMA.c **** *
 399:.\Generated_Source\PSoC4/CyDMA.c **** * Side Effects:
 400:.\Generated_Source\PSoC4/CyDMA.c **** *  This function clears the pending interrupts.
ARM GAS  C:\Users\Matty\AppData\Local\Temp\ccXs7IQl.s 			page 18


 401:.\Generated_Source\PSoC4/CyDMA.c **** *
 402:.\Generated_Source\PSoC4/CyDMA.c **** *******************************************************************************/
 403:.\Generated_Source\PSoC4/CyDMA.c **** CY_ISR(CyDmaInterrupt)
 404:.\Generated_Source\PSoC4/CyDMA.c **** {
 570              		.loc 1 404 0
 571              		.cfi_startproc
 572 0000 80B5     		push	{r7, lr}
 573              		.cfi_def_cfa_offset 8
 574              		.cfi_offset 7, -8
 575              		.cfi_offset 14, -4
 576 0002 82B0     		sub	sp, sp, #8
 577              		.cfi_def_cfa_offset 16
 578 0004 00AF     		add	r7, sp, #0
 579              		.cfi_def_cfa_register 7
 405:.\Generated_Source\PSoC4/CyDMA.c ****     uint32 intr;
 406:.\Generated_Source\PSoC4/CyDMA.c ****     uint32 cbIdx = 0u;
 580              		.loc 1 406 0
 581 0006 0023     		mov	r3, #0
 582 0008 3B60     		str	r3, [r7]
 407:.\Generated_Source\PSoC4/CyDMA.c **** 
 408:.\Generated_Source\PSoC4/CyDMA.c ****     /* Get interrupt source. */
 409:.\Generated_Source\PSoC4/CyDMA.c ****     intr = CYDMA_INTR_MASKED_REG;
 583              		.loc 1 409 0
 584 000a 0E4B     		ldr	r3, .L61
 585 000c 1B68     		ldr	r3, [r3]
 586 000e 7B60     		str	r3, [r7, #4]
 410:.\Generated_Source\PSoC4/CyDMA.c **** 
 411:.\Generated_Source\PSoC4/CyDMA.c ****     /* Clear pending interrupts. */
 412:.\Generated_Source\PSoC4/CyDMA.c ****     CYDMA_INTR_REG = intr;
 587              		.loc 1 412 0
 588 0010 0D4B     		ldr	r3, .L61+4
 589 0012 7A68     		ldr	r2, [r7, #4]
 590 0014 1A60     		str	r2, [r3]
 413:.\Generated_Source\PSoC4/CyDMA.c **** 
 414:.\Generated_Source\PSoC4/CyDMA.c ****     /* Call user defined callback functions for triggered interrupt sources. */
 415:.\Generated_Source\PSoC4/CyDMA.c ****     while(0u != intr)
 591              		.loc 1 415 0
 592 0016 0EE0     		b	.L58
 593              	.L60:
 416:.\Generated_Source\PSoC4/CyDMA.c ****     {
 417:.\Generated_Source\PSoC4/CyDMA.c ****         if(0u != (intr & 0x1u))
 594              		.loc 1 417 0
 595 0018 7A68     		ldr	r2, [r7, #4]
 596 001a 0123     		mov	r3, #1
 597 001c 1340     		and	r3, r2
 598 001e 04D0     		beq	.L59
 418:.\Generated_Source\PSoC4/CyDMA.c ****         {
 419:.\Generated_Source\PSoC4/CyDMA.c ****             CyDmaInterruptCallback[cbIdx]();
 599              		.loc 1 419 0
 600 0020 0A4B     		ldr	r3, .L61+8
 601 0022 3A68     		ldr	r2, [r7]
 602 0024 9200     		lsl	r2, r2, #2
 603 0026 D358     		ldr	r3, [r2, r3]
 604 0028 9847     		blx	r3
 605              	.L59:
 420:.\Generated_Source\PSoC4/CyDMA.c ****         }
 421:.\Generated_Source\PSoC4/CyDMA.c ****         intr >>= 1;
ARM GAS  C:\Users\Matty\AppData\Local\Temp\ccXs7IQl.s 			page 19


 606              		.loc 1 421 0
 607 002a 7B68     		ldr	r3, [r7, #4]
 608 002c 5B08     		lsr	r3, r3, #1
 609 002e 7B60     		str	r3, [r7, #4]
 422:.\Generated_Source\PSoC4/CyDMA.c ****         ++cbIdx;
 610              		.loc 1 422 0
 611 0030 3B68     		ldr	r3, [r7]
 612 0032 0133     		add	r3, r3, #1
 613 0034 3B60     		str	r3, [r7]
 614              	.L58:
 415:.\Generated_Source\PSoC4/CyDMA.c ****     while(0u != intr)
 615              		.loc 1 415 0 discriminator 1
 616 0036 7B68     		ldr	r3, [r7, #4]
 617 0038 002B     		cmp	r3, #0
 618 003a EDD1     		bne	.L60
 423:.\Generated_Source\PSoC4/CyDMA.c ****     }
 424:.\Generated_Source\PSoC4/CyDMA.c **** }
 619              		.loc 1 424 0
 620 003c BD46     		mov	sp, r7
 621 003e 02B0     		add	sp, sp, #8
 622              		@ sp needed
 623 0040 80BD     		pop	{r7, pc}
 624              	.L62:
 625 0042 C046     		.align	2
 626              	.L61:
 627 0044 FC171040 		.word	1074796540
 628 0048 F0171040 		.word	1074796528
 629 004c 00000000 		.word	CyDmaInterruptCallback
 630              		.cfi_endproc
 631              	.LFE15:
 632              		.size	CyDmaInterrupt, .-CyDmaInterrupt
 633              		.section	.text.CyDmaDefaultInterruptCallback,"ax",%progbits
 634              		.align	2
 635              		.code	16
 636              		.thumb_func
 637              		.type	CyDmaDefaultInterruptCallback, %function
 638              	CyDmaDefaultInterruptCallback:
 639              	.LFB16:
 425:.\Generated_Source\PSoC4/CyDMA.c **** 
 426:.\Generated_Source\PSoC4/CyDMA.c **** 
 427:.\Generated_Source\PSoC4/CyDMA.c **** /*******************************************************************************
 428:.\Generated_Source\PSoC4/CyDMA.c **** * Function Name: CyDmaDefaultInterruptCallback
 429:.\Generated_Source\PSoC4/CyDMA.c **** ********************************************************************************
 430:.\Generated_Source\PSoC4/CyDMA.c **** *
 431:.\Generated_Source\PSoC4/CyDMA.c **** * Summary:
 432:.\Generated_Source\PSoC4/CyDMA.c **** *  This function is invoked when the user defined callback function is undefined
 433:.\Generated_Source\PSoC4/CyDMA.c **** *  for the interrupt source.
 434:.\Generated_Source\PSoC4/CyDMA.c **** *
 435:.\Generated_Source\PSoC4/CyDMA.c **** * Parameters:
 436:.\Generated_Source\PSoC4/CyDMA.c **** *  None.
 437:.\Generated_Source\PSoC4/CyDMA.c **** *
 438:.\Generated_Source\PSoC4/CyDMA.c **** * Return:
 439:.\Generated_Source\PSoC4/CyDMA.c **** *  None.
 440:.\Generated_Source\PSoC4/CyDMA.c **** *
 441:.\Generated_Source\PSoC4/CyDMA.c **** *******************************************************************************/
 442:.\Generated_Source\PSoC4/CyDMA.c **** static void CyDmaDefaultInterruptCallback(void)
 443:.\Generated_Source\PSoC4/CyDMA.c **** {
ARM GAS  C:\Users\Matty\AppData\Local\Temp\ccXs7IQl.s 			page 20


 640              		.loc 1 443 0
 641              		.cfi_startproc
 642 0000 80B5     		push	{r7, lr}
 643              		.cfi_def_cfa_offset 8
 644              		.cfi_offset 7, -8
 645              		.cfi_offset 14, -4
 646 0002 00AF     		add	r7, sp, #0
 647              		.cfi_def_cfa_register 7
 444:.\Generated_Source\PSoC4/CyDMA.c ****     /* Halt CPU in debug mode. We get here because there is no user defined
 445:.\Generated_Source\PSoC4/CyDMA.c ****     * callback function for the interrupt source. You should either set a
 446:.\Generated_Source\PSoC4/CyDMA.c ****     * callback function or disable generating an interrupt from this
 447:.\Generated_Source\PSoC4/CyDMA.c ****     * interrupt source.
 448:.\Generated_Source\PSoC4/CyDMA.c ****     * To set a callback, use the CyDmaSetInterruptCallback() API function.
 449:.\Generated_Source\PSoC4/CyDMA.c ****     * To disable interrupt generation, write '0' to the corresponding bit
 450:.\Generated_Source\PSoC4/CyDMA.c ****     * in the interrupt mask by calling CyDmaSetInterruptSourceMask().
 451:.\Generated_Source\PSoC4/CyDMA.c ****     */
 452:.\Generated_Source\PSoC4/CyDMA.c ****     CYASSERT(0 != 0);
 648              		.loc 1 452 0
 649 0004 0020     		mov	r0, #0
 650 0006 FFF7FEFF 		bl	CyHalt
 453:.\Generated_Source\PSoC4/CyDMA.c **** }
 651              		.loc 1 453 0
 652 000a BD46     		mov	sp, r7
 653              		@ sp needed
 654 000c 80BD     		pop	{r7, pc}
 655              		.cfi_endproc
 656              	.LFE16:
 657              		.size	CyDmaDefaultInterruptCallback, .-CyDmaDefaultInterruptCallback
 658              		.section	.text.CyDmaChAlloc,"ax",%progbits
 659              		.align	2
 660              		.global	CyDmaChAlloc
 661              		.code	16
 662              		.thumb_func
 663              		.type	CyDmaChAlloc, %function
 664              	CyDmaChAlloc:
 665              	.LFB17:
 454:.\Generated_Source\PSoC4/CyDMA.c **** 
 455:.\Generated_Source\PSoC4/CyDMA.c **** 
 456:.\Generated_Source\PSoC4/CyDMA.c **** /*******************************************************************************
 457:.\Generated_Source\PSoC4/CyDMA.c **** * Function Name: CyDmaChAlloc
 458:.\Generated_Source\PSoC4/CyDMA.c **** ********************************************************************************
 459:.\Generated_Source\PSoC4/CyDMA.c **** *
 460:.\Generated_Source\PSoC4/CyDMA.c **** * Summary:
 461:.\Generated_Source\PSoC4/CyDMA.c **** *  Allocates a channel number to use with later DMA functions.
 462:.\Generated_Source\PSoC4/CyDMA.c **** *
 463:.\Generated_Source\PSoC4/CyDMA.c **** * Parameters:
 464:.\Generated_Source\PSoC4/CyDMA.c **** *  None.
 465:.\Generated_Source\PSoC4/CyDMA.c **** *                   
 466:.\Generated_Source\PSoC4/CyDMA.c **** * Return:
 467:.\Generated_Source\PSoC4/CyDMA.c **** *  The allocated channel number. Zero is a valid channel number.
 468:.\Generated_Source\PSoC4/CyDMA.c **** *  CYDMA_INVALID_CHANNEL is returned if there are no channels available.
 469:.\Generated_Source\PSoC4/CyDMA.c **** *
 470:.\Generated_Source\PSoC4/CyDMA.c **** *******************************************************************************/
 471:.\Generated_Source\PSoC4/CyDMA.c **** int32 CyDmaChAlloc(void)
 472:.\Generated_Source\PSoC4/CyDMA.c **** {
 666              		.loc 1 472 0
 667              		.cfi_startproc
ARM GAS  C:\Users\Matty\AppData\Local\Temp\ccXs7IQl.s 			page 21


 668 0000 80B5     		push	{r7, lr}
 669              		.cfi_def_cfa_offset 8
 670              		.cfi_offset 7, -8
 671              		.cfi_offset 14, -4
 672 0002 82B0     		sub	sp, sp, #8
 673              		.cfi_def_cfa_offset 16
 674 0004 00AF     		add	r7, sp, #0
 675              		.cfi_def_cfa_register 7
 473:.\Generated_Source\PSoC4/CyDMA.c ****     int32  channel = CYDMA_CH_NR-1;
 676              		.loc 1 473 0
 677 0006 0723     		mov	r3, #7
 678 0008 7B60     		str	r3, [r7, #4]
 474:.\Generated_Source\PSoC4/CyDMA.c ****     uint32 channelMask = (uint32)(1UL << (CYDMA_CH_NR-1));
 679              		.loc 1 474 0
 680 000a 8023     		mov	r3, #128
 681 000c 3B60     		str	r3, [r7]
 475:.\Generated_Source\PSoC4/CyDMA.c ****     
 476:.\Generated_Source\PSoC4/CyDMA.c ****     while (channel >= 0)
 682              		.loc 1 476 0
 683 000e 11E0     		b	.L65
 684              	.L68:
 477:.\Generated_Source\PSoC4/CyDMA.c ****     {
 478:.\Generated_Source\PSoC4/CyDMA.c ****         if(0u == (CyDmaChannelUsedMask & channelMask))
 685              		.loc 1 478 0
 686 0010 0C4B     		ldr	r3, .L70
 687 0012 1B68     		ldr	r3, [r3]
 688 0014 3A68     		ldr	r2, [r7]
 689 0016 1340     		and	r3, r2
 690 0018 06D1     		bne	.L66
 479:.\Generated_Source\PSoC4/CyDMA.c ****         {
 480:.\Generated_Source\PSoC4/CyDMA.c ****             /* Mark channel as used and exit loop. */ 
 481:.\Generated_Source\PSoC4/CyDMA.c ****             CyDmaChannelUsedMask |= channelMask;
 691              		.loc 1 481 0
 692 001a 0A4B     		ldr	r3, .L70
 693 001c 1A68     		ldr	r2, [r3]
 694 001e 3B68     		ldr	r3, [r7]
 695 0020 1A43     		orr	r2, r3
 696 0022 084B     		ldr	r3, .L70
 697 0024 1A60     		str	r2, [r3]
 482:.\Generated_Source\PSoC4/CyDMA.c ****             break;
 698              		.loc 1 482 0
 699 0026 08E0     		b	.L67
 700              	.L66:
 483:.\Generated_Source\PSoC4/CyDMA.c ****         }
 484:.\Generated_Source\PSoC4/CyDMA.c ****         channelMask >>= 1;
 701              		.loc 1 484 0
 702 0028 3B68     		ldr	r3, [r7]
 703 002a 5B08     		lsr	r3, r3, #1
 704 002c 3B60     		str	r3, [r7]
 485:.\Generated_Source\PSoC4/CyDMA.c ****         --channel;
 705              		.loc 1 485 0
 706 002e 7B68     		ldr	r3, [r7, #4]
 707 0030 013B     		sub	r3, r3, #1
 708 0032 7B60     		str	r3, [r7, #4]
 709              	.L65:
 476:.\Generated_Source\PSoC4/CyDMA.c ****     while (channel >= 0)
 710              		.loc 1 476 0 discriminator 1
ARM GAS  C:\Users\Matty\AppData\Local\Temp\ccXs7IQl.s 			page 22


 711 0034 7B68     		ldr	r3, [r7, #4]
 712 0036 002B     		cmp	r3, #0
 713 0038 EADA     		bge	.L68
 714              	.L67:
 486:.\Generated_Source\PSoC4/CyDMA.c ****     }
 487:.\Generated_Source\PSoC4/CyDMA.c ****     return (channel);
 715              		.loc 1 487 0
 716 003a 7B68     		ldr	r3, [r7, #4]
 488:.\Generated_Source\PSoC4/CyDMA.c **** }
 717              		.loc 1 488 0
 718 003c 181C     		mov	r0, r3
 719 003e BD46     		mov	sp, r7
 720 0040 02B0     		add	sp, sp, #8
 721              		@ sp needed
 722 0042 80BD     		pop	{r7, pc}
 723              	.L71:
 724              		.align	2
 725              	.L70:
 726 0044 00000000 		.word	CyDmaChannelUsedMask
 727              		.cfi_endproc
 728              	.LFE17:
 729              		.size	CyDmaChAlloc, .-CyDmaChAlloc
 730              		.section	.text.CyDmaChFree,"ax",%progbits
 731              		.align	2
 732              		.global	CyDmaChFree
 733              		.code	16
 734              		.thumb_func
 735              		.type	CyDmaChFree, %function
 736              	CyDmaChFree:
 737              	.LFB18:
 489:.\Generated_Source\PSoC4/CyDMA.c **** 
 490:.\Generated_Source\PSoC4/CyDMA.c **** 
 491:.\Generated_Source\PSoC4/CyDMA.c **** /*******************************************************************************
 492:.\Generated_Source\PSoC4/CyDMA.c **** * Function Name: CyDmaChFree
 493:.\Generated_Source\PSoC4/CyDMA.c **** ********************************************************************************
 494:.\Generated_Source\PSoC4/CyDMA.c **** *
 495:.\Generated_Source\PSoC4/CyDMA.c **** * Summary:
 496:.\Generated_Source\PSoC4/CyDMA.c **** *  Frees a channel handle allocated by CyDmaChAlloc(). Channels allocated for
 497:.\Generated_Source\PSoC4/CyDMA.c **** *  DMA instances placed on a schematic cannot be freed.
 498:.\Generated_Source\PSoC4/CyDMA.c **** *
 499:.\Generated_Source\PSoC4/CyDMA.c **** * Parameters:
 500:.\Generated_Source\PSoC4/CyDMA.c **** *  channel: The handle previously returned by CyDmaChAlloc().
 501:.\Generated_Source\PSoC4/CyDMA.c **** *                   
 502:.\Generated_Source\PSoC4/CyDMA.c **** * Return:
 503:.\Generated_Source\PSoC4/CyDMA.c **** *  CYRET_SUCCESS if successful.
 504:.\Generated_Source\PSoC4/CyDMA.c **** *  CYRET_BAD_PARAM if channel is invalid.
 505:.\Generated_Source\PSoC4/CyDMA.c **** *
 506:.\Generated_Source\PSoC4/CyDMA.c **** *******************************************************************************/
 507:.\Generated_Source\PSoC4/CyDMA.c **** cystatus CyDmaChFree(int32 channel)
 508:.\Generated_Source\PSoC4/CyDMA.c **** {
 738              		.loc 1 508 0
 739              		.cfi_startproc
 740 0000 80B5     		push	{r7, lr}
 741              		.cfi_def_cfa_offset 8
 742              		.cfi_offset 7, -8
 743              		.cfi_offset 14, -4
 744 0002 84B0     		sub	sp, sp, #16
ARM GAS  C:\Users\Matty\AppData\Local\Temp\ccXs7IQl.s 			page 23


 745              		.cfi_def_cfa_offset 24
 746 0004 00AF     		add	r7, sp, #0
 747              		.cfi_def_cfa_register 7
 748 0006 7860     		str	r0, [r7, #4]
 509:.\Generated_Source\PSoC4/CyDMA.c ****     uint32   channelMask;
 510:.\Generated_Source\PSoC4/CyDMA.c ****     cystatus result = CYRET_BAD_PARAM;
 749              		.loc 1 510 0
 750 0008 0123     		mov	r3, #1
 751 000a FB60     		str	r3, [r7, #12]
 511:.\Generated_Source\PSoC4/CyDMA.c **** 
 512:.\Generated_Source\PSoC4/CyDMA.c ****     CYASSERT((channel >= 0) && (channel < CYDMA_CH_NR));
 752              		.loc 1 512 0
 753 000c 7B68     		ldr	r3, [r7, #4]
 754 000e 002B     		cmp	r3, #0
 755 0010 04DB     		blt	.L73
 756              		.loc 1 512 0 is_stmt 0 discriminator 1
 757 0012 7B68     		ldr	r3, [r7, #4]
 758 0014 072B     		cmp	r3, #7
 759 0016 01DC     		bgt	.L73
 760              		.loc 1 512 0 discriminator 3
 761 0018 0123     		mov	r3, #1
 762 001a 00E0     		b	.L74
 763              	.L73:
 764              		.loc 1 512 0 discriminator 2
 765 001c 0023     		mov	r3, #0
 766              	.L74:
 767              		.loc 1 512 0 discriminator 4
 768 001e 002B     		cmp	r3, #0
 769 0020 02D1     		bne	.L75
 770              		.loc 1 512 0 discriminator 1
 771 0022 0020     		mov	r0, #0
 772 0024 FFF7FEFF 		bl	CyHalt
 773              	.L75:
 513:.\Generated_Source\PSoC4/CyDMA.c ****     
 514:.\Generated_Source\PSoC4/CyDMA.c ****     channelMask = (uint32)(1UL << channel);
 774              		.loc 1 514 0 is_stmt 1
 775 0028 0122     		mov	r2, #1
 776 002a 7B68     		ldr	r3, [r7, #4]
 777 002c 111C     		mov	r1, r2
 778 002e 9940     		lsl	r1, r1, r3
 779 0030 0B1C     		mov	r3, r1
 780 0032 BB60     		str	r3, [r7, #8]
 515:.\Generated_Source\PSoC4/CyDMA.c **** 
 516:.\Generated_Source\PSoC4/CyDMA.c ****     /* Check against attempt to free channel allocated for DMA instance
 517:.\Generated_Source\PSoC4/CyDMA.c ****     * placed on schematic.
 518:.\Generated_Source\PSoC4/CyDMA.c ****     */
 519:.\Generated_Source\PSoC4/CyDMA.c ****     if(0u == (channelMask & DMA_CHANNELS_USED__MASK))
 520:.\Generated_Source\PSoC4/CyDMA.c ****     {
 521:.\Generated_Source\PSoC4/CyDMA.c ****         CyDmaChannelUsedMask &= (uint32)~channelMask;
 781              		.loc 1 521 0
 782 0034 BB68     		ldr	r3, [r7, #8]
 783 0036 DA43     		mvn	r2, r3
 784 0038 054B     		ldr	r3, .L77
 785 003a 1B68     		ldr	r3, [r3]
 786 003c 1A40     		and	r2, r3
 787 003e 044B     		ldr	r3, .L77
 788 0040 1A60     		str	r2, [r3]
ARM GAS  C:\Users\Matty\AppData\Local\Temp\ccXs7IQl.s 			page 24


 522:.\Generated_Source\PSoC4/CyDMA.c ****         result = CYRET_SUCCESS;
 789              		.loc 1 522 0
 790 0042 0023     		mov	r3, #0
 791 0044 FB60     		str	r3, [r7, #12]
 523:.\Generated_Source\PSoC4/CyDMA.c ****     }
 524:.\Generated_Source\PSoC4/CyDMA.c ****     
 525:.\Generated_Source\PSoC4/CyDMA.c ****     return (result);
 792              		.loc 1 525 0
 793 0046 FB68     		ldr	r3, [r7, #12]
 526:.\Generated_Source\PSoC4/CyDMA.c **** }
 794              		.loc 1 526 0
 795 0048 181C     		mov	r0, r3
 796 004a BD46     		mov	sp, r7
 797 004c 04B0     		add	sp, sp, #16
 798              		@ sp needed
 799 004e 80BD     		pop	{r7, pc}
 800              	.L78:
 801              		.align	2
 802              	.L77:
 803 0050 00000000 		.word	CyDmaChannelUsedMask
 804              		.cfi_endproc
 805              	.LFE18:
 806              		.size	CyDmaChFree, .-CyDmaChFree
 807              		.section	.text.CyDmaChEnable,"ax",%progbits
 808              		.align	2
 809              		.global	CyDmaChEnable
 810              		.code	16
 811              		.thumb_func
 812              		.type	CyDmaChEnable, %function
 813              	CyDmaChEnable:
 814              	.LFB19:
 527:.\Generated_Source\PSoC4/CyDMA.c **** 
 528:.\Generated_Source\PSoC4/CyDMA.c **** 
 529:.\Generated_Source\PSoC4/CyDMA.c **** /*******************************************************************************
 530:.\Generated_Source\PSoC4/CyDMA.c **** * Function Name: CyDmaChEnable
 531:.\Generated_Source\PSoC4/CyDMA.c **** ********************************************************************************
 532:.\Generated_Source\PSoC4/CyDMA.c **** *
 533:.\Generated_Source\PSoC4/CyDMA.c **** * Summary:
 534:.\Generated_Source\PSoC4/CyDMA.c **** *  Enables the DMA channel.
 535:.\Generated_Source\PSoC4/CyDMA.c **** *
 536:.\Generated_Source\PSoC4/CyDMA.c **** * Parameters:
 537:.\Generated_Source\PSoC4/CyDMA.c **** *  channel: Channel used by this function.
 538:.\Generated_Source\PSoC4/CyDMA.c **** *                   
 539:.\Generated_Source\PSoC4/CyDMA.c **** * Return:
 540:.\Generated_Source\PSoC4/CyDMA.c **** *  None.
 541:.\Generated_Source\PSoC4/CyDMA.c **** *
 542:.\Generated_Source\PSoC4/CyDMA.c **** * Side effect:
 543:.\Generated_Source\PSoC4/CyDMA.c **** *  If this function is called before CyDmaSetConfiguration(), and
 544:.\Generated_Source\PSoC4/CyDMA.c **** *  CyDmaSetSrcAddress() and CyDmaSetDstAddress(), the operation of
 545:.\Generated_Source\PSoC4/CyDMA.c **** *  the DMA is undefined and could result in system data corruption. 
 546:.\Generated_Source\PSoC4/CyDMA.c **** *
 547:.\Generated_Source\PSoC4/CyDMA.c **** *******************************************************************************/
 548:.\Generated_Source\PSoC4/CyDMA.c **** void CyDmaChEnable(int32 channel)
 549:.\Generated_Source\PSoC4/CyDMA.c **** {
 815              		.loc 1 549 0
 816              		.cfi_startproc
 817 0000 80B5     		push	{r7, lr}
ARM GAS  C:\Users\Matty\AppData\Local\Temp\ccXs7IQl.s 			page 25


 818              		.cfi_def_cfa_offset 8
 819              		.cfi_offset 7, -8
 820              		.cfi_offset 14, -4
 821 0002 82B0     		sub	sp, sp, #8
 822              		.cfi_def_cfa_offset 16
 823 0004 00AF     		add	r7, sp, #0
 824              		.cfi_def_cfa_register 7
 825 0006 7860     		str	r0, [r7, #4]
 550:.\Generated_Source\PSoC4/CyDMA.c ****     CYASSERT((channel >= 0) && (channel < CYDMA_CH_NR));
 826              		.loc 1 550 0
 827 0008 7B68     		ldr	r3, [r7, #4]
 828 000a 002B     		cmp	r3, #0
 829 000c 04DB     		blt	.L80
 830              		.loc 1 550 0 is_stmt 0 discriminator 1
 831 000e 7B68     		ldr	r3, [r7, #4]
 832 0010 072B     		cmp	r3, #7
 833 0012 01DC     		bgt	.L80
 834              		.loc 1 550 0 discriminator 3
 835 0014 0123     		mov	r3, #1
 836 0016 00E0     		b	.L81
 837              	.L80:
 838              		.loc 1 550 0 discriminator 2
 839 0018 0023     		mov	r3, #0
 840              	.L81:
 841              		.loc 1 550 0 discriminator 4
 842 001a 002B     		cmp	r3, #0
 843 001c 02D1     		bne	.L82
 844              		.loc 1 550 0 discriminator 1
 845 001e 0020     		mov	r0, #0
 846 0020 FFF7FEFF 		bl	CyHalt
 847              	.L82:
 551:.\Generated_Source\PSoC4/CyDMA.c **** 
 552:.\Generated_Source\PSoC4/CyDMA.c ****     CYDMA_CH_CTL_BASE.ctl[channel] |= CYDMA_ENABLED;
 848              		.loc 1 552 0 is_stmt 1
 849 0024 064B     		ldr	r3, .L83
 850 0026 064A     		ldr	r2, .L83
 851 0028 7968     		ldr	r1, [r7, #4]
 852 002a 8900     		lsl	r1, r1, #2
 853 002c 8A58     		ldr	r2, [r1, r2]
 854 002e 8021     		mov	r1, #128
 855 0030 0906     		lsl	r1, r1, #24
 856 0032 1143     		orr	r1, r2
 857 0034 7A68     		ldr	r2, [r7, #4]
 858 0036 9200     		lsl	r2, r2, #2
 859 0038 D150     		str	r1, [r2, r3]
 553:.\Generated_Source\PSoC4/CyDMA.c **** }
 860              		.loc 1 553 0
 861 003a BD46     		mov	sp, r7
 862 003c 02B0     		add	sp, sp, #8
 863              		@ sp needed
 864 003e 80BD     		pop	{r7, pc}
 865              	.L84:
 866              		.align	2
 867              	.L83:
 868 0040 80101040 		.word	1074794624
 869              		.cfi_endproc
 870              	.LFE19:
ARM GAS  C:\Users\Matty\AppData\Local\Temp\ccXs7IQl.s 			page 26


 871              		.size	CyDmaChEnable, .-CyDmaChEnable
 872              		.section	.text.CyDmaChDisable,"ax",%progbits
 873              		.align	2
 874              		.global	CyDmaChDisable
 875              		.code	16
 876              		.thumb_func
 877              		.type	CyDmaChDisable, %function
 878              	CyDmaChDisable:
 879              	.LFB20:
 554:.\Generated_Source\PSoC4/CyDMA.c **** 
 555:.\Generated_Source\PSoC4/CyDMA.c **** 
 556:.\Generated_Source\PSoC4/CyDMA.c **** /*******************************************************************************
 557:.\Generated_Source\PSoC4/CyDMA.c **** * Function Name: CyDmaChDisable
 558:.\Generated_Source\PSoC4/CyDMA.c **** ********************************************************************************
 559:.\Generated_Source\PSoC4/CyDMA.c **** *
 560:.\Generated_Source\PSoC4/CyDMA.c **** * Summary:
 561:.\Generated_Source\PSoC4/CyDMA.c **** *  Disables the DMA channel.
 562:.\Generated_Source\PSoC4/CyDMA.c **** *
 563:.\Generated_Source\PSoC4/CyDMA.c **** * Parameters:
 564:.\Generated_Source\PSoC4/CyDMA.c **** *  channel: Channel used by this function.
 565:.\Generated_Source\PSoC4/CyDMA.c **** *                   
 566:.\Generated_Source\PSoC4/CyDMA.c **** * Return:
 567:.\Generated_Source\PSoC4/CyDMA.c **** *  None.
 568:.\Generated_Source\PSoC4/CyDMA.c **** *
 569:.\Generated_Source\PSoC4/CyDMA.c **** * Side effect:
 570:.\Generated_Source\PSoC4/CyDMA.c **** *  If this function is called during a DMA transfer the transfer is aborted. 
 571:.\Generated_Source\PSoC4/CyDMA.c **** *
 572:.\Generated_Source\PSoC4/CyDMA.c **** *******************************************************************************/
 573:.\Generated_Source\PSoC4/CyDMA.c **** void CyDmaChDisable(int32 channel)
 574:.\Generated_Source\PSoC4/CyDMA.c **** {
 880              		.loc 1 574 0
 881              		.cfi_startproc
 882 0000 80B5     		push	{r7, lr}
 883              		.cfi_def_cfa_offset 8
 884              		.cfi_offset 7, -8
 885              		.cfi_offset 14, -4
 886 0002 82B0     		sub	sp, sp, #8
 887              		.cfi_def_cfa_offset 16
 888 0004 00AF     		add	r7, sp, #0
 889              		.cfi_def_cfa_register 7
 890 0006 7860     		str	r0, [r7, #4]
 575:.\Generated_Source\PSoC4/CyDMA.c ****     CYASSERT((channel >= 0) && (channel < CYDMA_CH_NR));
 891              		.loc 1 575 0
 892 0008 7B68     		ldr	r3, [r7, #4]
 893 000a 002B     		cmp	r3, #0
 894 000c 04DB     		blt	.L86
 895              		.loc 1 575 0 is_stmt 0 discriminator 1
 896 000e 7B68     		ldr	r3, [r7, #4]
 897 0010 072B     		cmp	r3, #7
 898 0012 01DC     		bgt	.L86
 899              		.loc 1 575 0 discriminator 3
 900 0014 0123     		mov	r3, #1
 901 0016 00E0     		b	.L87
 902              	.L86:
 903              		.loc 1 575 0 discriminator 2
 904 0018 0023     		mov	r3, #0
 905              	.L87:
ARM GAS  C:\Users\Matty\AppData\Local\Temp\ccXs7IQl.s 			page 27


 906              		.loc 1 575 0 discriminator 4
 907 001a 002B     		cmp	r3, #0
 908 001c 02D1     		bne	.L88
 909              		.loc 1 575 0 discriminator 1
 910 001e 0020     		mov	r0, #0
 911 0020 FFF7FEFF 		bl	CyHalt
 912              	.L88:
 576:.\Generated_Source\PSoC4/CyDMA.c **** 
 577:.\Generated_Source\PSoC4/CyDMA.c ****     CYDMA_CH_CTL_BASE.ctl[channel] &= (uint32)~CYDMA_ENABLED;
 913              		.loc 1 577 0 is_stmt 1
 914 0024 064B     		ldr	r3, .L89
 915 0026 064A     		ldr	r2, .L89
 916 0028 7968     		ldr	r1, [r7, #4]
 917 002a 8900     		lsl	r1, r1, #2
 918 002c 8A58     		ldr	r2, [r1, r2]
 919 002e 5200     		lsl	r2, r2, #1
 920 0030 5108     		lsr	r1, r2, #1
 921 0032 7A68     		ldr	r2, [r7, #4]
 922 0034 9200     		lsl	r2, r2, #2
 923 0036 D150     		str	r1, [r2, r3]
 578:.\Generated_Source\PSoC4/CyDMA.c **** }
 924              		.loc 1 578 0
 925 0038 BD46     		mov	sp, r7
 926 003a 02B0     		add	sp, sp, #8
 927              		@ sp needed
 928 003c 80BD     		pop	{r7, pc}
 929              	.L90:
 930 003e C046     		.align	2
 931              	.L89:
 932 0040 80101040 		.word	1074794624
 933              		.cfi_endproc
 934              	.LFE20:
 935              		.size	CyDmaChDisable, .-CyDmaChDisable
 936              		.section	.text.CyDmaTrigger,"ax",%progbits
 937              		.align	2
 938              		.global	CyDmaTrigger
 939              		.code	16
 940              		.thumb_func
 941              		.type	CyDmaTrigger, %function
 942              	CyDmaTrigger:
 943              	.LFB21:
 579:.\Generated_Source\PSoC4/CyDMA.c **** 
 580:.\Generated_Source\PSoC4/CyDMA.c **** 
 581:.\Generated_Source\PSoC4/CyDMA.c **** /*******************************************************************************
 582:.\Generated_Source\PSoC4/CyDMA.c **** * Function Name: CyDmaTrigger
 583:.\Generated_Source\PSoC4/CyDMA.c **** ********************************************************************************
 584:.\Generated_Source\PSoC4/CyDMA.c **** *
 585:.\Generated_Source\PSoC4/CyDMA.c **** * Summary:
 586:.\Generated_Source\PSoC4/CyDMA.c **** *  Triggers the DMA channel, this is useful only for software triggers. This is
 587:.\Generated_Source\PSoC4/CyDMA.c **** *  not needed when hardware triggers are used.
 588:.\Generated_Source\PSoC4/CyDMA.c **** *
 589:.\Generated_Source\PSoC4/CyDMA.c **** * Parameters:
 590:.\Generated_Source\PSoC4/CyDMA.c **** *  channel: Channel used by this function.
 591:.\Generated_Source\PSoC4/CyDMA.c **** *                   
 592:.\Generated_Source\PSoC4/CyDMA.c **** * Return:
 593:.\Generated_Source\PSoC4/CyDMA.c **** *  None. 
 594:.\Generated_Source\PSoC4/CyDMA.c **** *
ARM GAS  C:\Users\Matty\AppData\Local\Temp\ccXs7IQl.s 			page 28


 595:.\Generated_Source\PSoC4/CyDMA.c **** *******************************************************************************/
 596:.\Generated_Source\PSoC4/CyDMA.c **** void CyDmaTrigger(int32 channel)
 597:.\Generated_Source\PSoC4/CyDMA.c **** {
 944              		.loc 1 597 0
 945              		.cfi_startproc
 946 0000 80B5     		push	{r7, lr}
 947              		.cfi_def_cfa_offset 8
 948              		.cfi_offset 7, -8
 949              		.cfi_offset 14, -4
 950 0002 82B0     		sub	sp, sp, #8
 951              		.cfi_def_cfa_offset 16
 952 0004 00AF     		add	r7, sp, #0
 953              		.cfi_def_cfa_register 7
 954 0006 7860     		str	r0, [r7, #4]
 598:.\Generated_Source\PSoC4/CyDMA.c ****     CYASSERT((channel >= 0) && (channel < CYDMA_CH_NR));
 955              		.loc 1 598 0
 956 0008 7B68     		ldr	r3, [r7, #4]
 957 000a 002B     		cmp	r3, #0
 958 000c 04DB     		blt	.L92
 959              		.loc 1 598 0 is_stmt 0 discriminator 1
 960 000e 7B68     		ldr	r3, [r7, #4]
 961 0010 072B     		cmp	r3, #7
 962 0012 01DC     		bgt	.L92
 963              		.loc 1 598 0 discriminator 3
 964 0014 0123     		mov	r3, #1
 965 0016 00E0     		b	.L93
 966              	.L92:
 967              		.loc 1 598 0 discriminator 2
 968 0018 0023     		mov	r3, #0
 969              	.L93:
 970              		.loc 1 598 0 discriminator 4
 971 001a 002B     		cmp	r3, #0
 972 001c 02D1     		bne	.L94
 973              		.loc 1 598 0 discriminator 1
 974 001e 0020     		mov	r0, #0
 975 0020 FFF7FEFF 		bl	CyHalt
 976              	.L94:
 599:.\Generated_Source\PSoC4/CyDMA.c **** 
 600:.\Generated_Source\PSoC4/CyDMA.c ****     CYDMA_TR_CTL_REG = CYDMA_TRIGGER_MASK | (uint32)(channel);
 977              		.loc 1 600 0 is_stmt 1
 978 0024 034B     		ldr	r3, .L95
 979 0026 7A68     		ldr	r2, [r7, #4]
 980 0028 0349     		ldr	r1, .L95+4
 981 002a 0A43     		orr	r2, r1
 982 002c 1A60     		str	r2, [r3]
 601:.\Generated_Source\PSoC4/CyDMA.c **** }
 983              		.loc 1 601 0
 984 002e BD46     		mov	sp, r7
 985 0030 02B0     		add	sp, sp, #8
 986              		@ sp needed
 987 0032 80BD     		pop	{r7, pc}
 988              	.L96:
 989              		.align	2
 990              	.L95:
 991 0034 00060140 		.word	1073808896
 992 0038 000002C0 		.word	-1073610752
 993              		.cfi_endproc
ARM GAS  C:\Users\Matty\AppData\Local\Temp\ccXs7IQl.s 			page 29


 994              	.LFE21:
 995              		.size	CyDmaTrigger, .-CyDmaTrigger
 996              		.section	.text.CyDmaSetPriority,"ax",%progbits
 997              		.align	2
 998              		.global	CyDmaSetPriority
 999              		.code	16
 1000              		.thumb_func
 1001              		.type	CyDmaSetPriority, %function
 1002              	CyDmaSetPriority:
 1003              	.LFB22:
 602:.\Generated_Source\PSoC4/CyDMA.c **** 
 603:.\Generated_Source\PSoC4/CyDMA.c **** 
 604:.\Generated_Source\PSoC4/CyDMA.c **** /*******************************************************************************
 605:.\Generated_Source\PSoC4/CyDMA.c **** * Function Name: CyDmaSetPriority
 606:.\Generated_Source\PSoC4/CyDMA.c **** ********************************************************************************
 607:.\Generated_Source\PSoC4/CyDMA.c **** *
 608:.\Generated_Source\PSoC4/CyDMA.c **** * Summary:
 609:.\Generated_Source\PSoC4/CyDMA.c **** *  Sets the priority for the channel.
 610:.\Generated_Source\PSoC4/CyDMA.c **** *
 611:.\Generated_Source\PSoC4/CyDMA.c **** * Parameters:
 612:.\Generated_Source\PSoC4/CyDMA.c **** *  channel:  Channel used by this function
 613:.\Generated_Source\PSoC4/CyDMA.c **** *  priority: Priority for channel. Priority can be 0,1,2, or 3.
 614:.\Generated_Source\PSoC4/CyDMA.c **** *            0 is the highest priority.
 615:.\Generated_Source\PSoC4/CyDMA.c **** *                   
 616:.\Generated_Source\PSoC4/CyDMA.c **** * Return:
 617:.\Generated_Source\PSoC4/CyDMA.c **** *  None.
 618:.\Generated_Source\PSoC4/CyDMA.c **** *
 619:.\Generated_Source\PSoC4/CyDMA.c **** * Side effect:
 620:.\Generated_Source\PSoC4/CyDMA.c **** *  This function should not be called while the channel is enabled.
 621:.\Generated_Source\PSoC4/CyDMA.c **** *
 622:.\Generated_Source\PSoC4/CyDMA.c **** *******************************************************************************/
 623:.\Generated_Source\PSoC4/CyDMA.c **** void CyDmaSetPriority(int32 channel, int32 priority)
 624:.\Generated_Source\PSoC4/CyDMA.c **** {
 1004              		.loc 1 624 0
 1005              		.cfi_startproc
 1006 0000 80B5     		push	{r7, lr}
 1007              		.cfi_def_cfa_offset 8
 1008              		.cfi_offset 7, -8
 1009              		.cfi_offset 14, -4
 1010 0002 84B0     		sub	sp, sp, #16
 1011              		.cfi_def_cfa_offset 24
 1012 0004 00AF     		add	r7, sp, #0
 1013              		.cfi_def_cfa_register 7
 1014 0006 7860     		str	r0, [r7, #4]
 1015 0008 3960     		str	r1, [r7]
 625:.\Generated_Source\PSoC4/CyDMA.c ****     uint32 regValue;
 626:.\Generated_Source\PSoC4/CyDMA.c **** 
 627:.\Generated_Source\PSoC4/CyDMA.c ****     CYASSERT((channel  >= 0) && (channel  <  CYDMA_CH_NR));
 1016              		.loc 1 627 0
 1017 000a 7B68     		ldr	r3, [r7, #4]
 1018 000c 002B     		cmp	r3, #0
 1019 000e 04DB     		blt	.L98
 1020              		.loc 1 627 0 is_stmt 0 discriminator 1
 1021 0010 7B68     		ldr	r3, [r7, #4]
 1022 0012 072B     		cmp	r3, #7
 1023 0014 01DC     		bgt	.L98
 1024              		.loc 1 627 0 discriminator 3
ARM GAS  C:\Users\Matty\AppData\Local\Temp\ccXs7IQl.s 			page 30


 1025 0016 0123     		mov	r3, #1
 1026 0018 00E0     		b	.L99
 1027              	.L98:
 1028              		.loc 1 627 0 discriminator 2
 1029 001a 0023     		mov	r3, #0
 1030              	.L99:
 1031              		.loc 1 627 0 discriminator 4
 1032 001c 002B     		cmp	r3, #0
 1033 001e 02D1     		bne	.L100
 1034              		.loc 1 627 0 discriminator 1
 1035 0020 0020     		mov	r0, #0
 1036 0022 FFF7FEFF 		bl	CyHalt
 1037              	.L100:
 628:.\Generated_Source\PSoC4/CyDMA.c ****     CYASSERT((priority >= 0) && (priority <= CY_DMA_MAX_PRIO));
 1038              		.loc 1 628 0 is_stmt 1
 1039 0026 3B68     		ldr	r3, [r7]
 1040 0028 002B     		cmp	r3, #0
 1041 002a 04DB     		blt	.L101
 1042              		.loc 1 628 0 is_stmt 0 discriminator 1
 1043 002c 3B68     		ldr	r3, [r7]
 1044 002e 032B     		cmp	r3, #3
 1045 0030 01DC     		bgt	.L101
 1046              		.loc 1 628 0 discriminator 3
 1047 0032 0123     		mov	r3, #1
 1048 0034 00E0     		b	.L102
 1049              	.L101:
 1050              		.loc 1 628 0 discriminator 2
 1051 0036 0023     		mov	r3, #0
 1052              	.L102:
 1053              		.loc 1 628 0 discriminator 4
 1054 0038 002B     		cmp	r3, #0
 1055 003a 02D1     		bne	.L103
 1056              		.loc 1 628 0 discriminator 1
 1057 003c 0020     		mov	r0, #0
 1058 003e FFF7FEFF 		bl	CyHalt
 1059              	.L103:
 629:.\Generated_Source\PSoC4/CyDMA.c **** 
 630:.\Generated_Source\PSoC4/CyDMA.c ****     regValue = CYDMA_CH_CTL_BASE.ctl[channel] & (uint32)~CYDMA_PRIO;
 1060              		.loc 1 630 0 is_stmt 1
 1061 0042 094B     		ldr	r3, .L104
 1062 0044 7A68     		ldr	r2, [r7, #4]
 1063 0046 9200     		lsl	r2, r2, #2
 1064 0048 D258     		ldr	r2, [r2, r3]
 1065 004a 084B     		ldr	r3, .L104+4
 1066 004c 1340     		and	r3, r2
 1067 004e FB60     		str	r3, [r7, #12]
 631:.\Generated_Source\PSoC4/CyDMA.c ****     CYDMA_CH_CTL_BASE.ctl[channel] = regValue | (uint32)((uint32)priority << CYDMA_PRIO_POS);
 1068              		.loc 1 631 0
 1069 0050 054B     		ldr	r3, .L104
 1070 0052 3A68     		ldr	r2, [r7]
 1071 0054 1107     		lsl	r1, r2, #28
 1072 0056 FA68     		ldr	r2, [r7, #12]
 1073 0058 1143     		orr	r1, r2
 1074 005a 7A68     		ldr	r2, [r7, #4]
 1075 005c 9200     		lsl	r2, r2, #2
 1076 005e D150     		str	r1, [r2, r3]
 632:.\Generated_Source\PSoC4/CyDMA.c **** }
ARM GAS  C:\Users\Matty\AppData\Local\Temp\ccXs7IQl.s 			page 31


 1077              		.loc 1 632 0
 1078 0060 BD46     		mov	sp, r7
 1079 0062 04B0     		add	sp, sp, #16
 1080              		@ sp needed
 1081 0064 80BD     		pop	{r7, pc}
 1082              	.L105:
 1083 0066 C046     		.align	2
 1084              	.L104:
 1085 0068 80101040 		.word	1074794624
 1086 006c FFFFFFCF 		.word	-805306369
 1087              		.cfi_endproc
 1088              	.LFE22:
 1089              		.size	CyDmaSetPriority, .-CyDmaSetPriority
 1090              		.section	.text.CyDmaGetPriority,"ax",%progbits
 1091              		.align	2
 1092              		.global	CyDmaGetPriority
 1093              		.code	16
 1094              		.thumb_func
 1095              		.type	CyDmaGetPriority, %function
 1096              	CyDmaGetPriority:
 1097              	.LFB23:
 633:.\Generated_Source\PSoC4/CyDMA.c **** 
 634:.\Generated_Source\PSoC4/CyDMA.c **** 
 635:.\Generated_Source\PSoC4/CyDMA.c **** /*******************************************************************************
 636:.\Generated_Source\PSoC4/CyDMA.c **** * Function Name: CyDmaGetPriority
 637:.\Generated_Source\PSoC4/CyDMA.c **** ********************************************************************************
 638:.\Generated_Source\PSoC4/CyDMA.c **** *
 639:.\Generated_Source\PSoC4/CyDMA.c **** * Summary:
 640:.\Generated_Source\PSoC4/CyDMA.c **** *  Gets the priority for the channel.
 641:.\Generated_Source\PSoC4/CyDMA.c **** *
 642:.\Generated_Source\PSoC4/CyDMA.c **** * Parameters:
 643:.\Generated_Source\PSoC4/CyDMA.c **** *  channel: Channel used by this function.
 644:.\Generated_Source\PSoC4/CyDMA.c **** *                   
 645:.\Generated_Source\PSoC4/CyDMA.c **** * Return:
 646:.\Generated_Source\PSoC4/CyDMA.c **** *  Priority for channel. Priority can be 0,1,2, or 3. 0 is the highest priority.
 647:.\Generated_Source\PSoC4/CyDMA.c **** *
 648:.\Generated_Source\PSoC4/CyDMA.c **** *******************************************************************************/
 649:.\Generated_Source\PSoC4/CyDMA.c **** int32 CyDmaGetPriority(int32 channel)
 650:.\Generated_Source\PSoC4/CyDMA.c **** {
 1098              		.loc 1 650 0
 1099              		.cfi_startproc
 1100 0000 80B5     		push	{r7, lr}
 1101              		.cfi_def_cfa_offset 8
 1102              		.cfi_offset 7, -8
 1103              		.cfi_offset 14, -4
 1104 0002 84B0     		sub	sp, sp, #16
 1105              		.cfi_def_cfa_offset 24
 1106 0004 00AF     		add	r7, sp, #0
 1107              		.cfi_def_cfa_register 7
 1108 0006 7860     		str	r0, [r7, #4]
 651:.\Generated_Source\PSoC4/CyDMA.c ****     uint32 priority;
 652:.\Generated_Source\PSoC4/CyDMA.c **** 
 653:.\Generated_Source\PSoC4/CyDMA.c ****     CYASSERT((channel >= 0) && (channel < CYDMA_CH_NR));
 1109              		.loc 1 653 0
 1110 0008 7B68     		ldr	r3, [r7, #4]
 1111 000a 002B     		cmp	r3, #0
 1112 000c 04DB     		blt	.L107
ARM GAS  C:\Users\Matty\AppData\Local\Temp\ccXs7IQl.s 			page 32


 1113              		.loc 1 653 0 is_stmt 0 discriminator 1
 1114 000e 7B68     		ldr	r3, [r7, #4]
 1115 0010 072B     		cmp	r3, #7
 1116 0012 01DC     		bgt	.L107
 1117              		.loc 1 653 0 discriminator 3
 1118 0014 0123     		mov	r3, #1
 1119 0016 00E0     		b	.L108
 1120              	.L107:
 1121              		.loc 1 653 0 discriminator 2
 1122 0018 0023     		mov	r3, #0
 1123              	.L108:
 1124              		.loc 1 653 0 discriminator 4
 1125 001a 002B     		cmp	r3, #0
 1126 001c 02D1     		bne	.L109
 1127              		.loc 1 653 0 discriminator 1
 1128 001e 0020     		mov	r0, #0
 1129 0020 FFF7FEFF 		bl	CyHalt
 1130              	.L109:
 654:.\Generated_Source\PSoC4/CyDMA.c **** 
 655:.\Generated_Source\PSoC4/CyDMA.c ****     priority = (CYDMA_CH_CTL_BASE.ctl[channel] & CYDMA_PRIO) >> CYDMA_PRIO_POS;
 1131              		.loc 1 655 0 is_stmt 1
 1132 0024 064B     		ldr	r3, .L111
 1133 0026 7A68     		ldr	r2, [r7, #4]
 1134 0028 9200     		lsl	r2, r2, #2
 1135 002a D258     		ldr	r2, [r2, r3]
 1136 002c C023     		mov	r3, #192
 1137 002e 9B05     		lsl	r3, r3, #22
 1138 0030 1340     		and	r3, r2
 1139 0032 1B0F     		lsr	r3, r3, #28
 1140 0034 FB60     		str	r3, [r7, #12]
 656:.\Generated_Source\PSoC4/CyDMA.c ****     return ((int32)priority);
 1141              		.loc 1 656 0
 1142 0036 FB68     		ldr	r3, [r7, #12]
 657:.\Generated_Source\PSoC4/CyDMA.c **** }
 1143              		.loc 1 657 0
 1144 0038 181C     		mov	r0, r3
 1145 003a BD46     		mov	sp, r7
 1146 003c 04B0     		add	sp, sp, #16
 1147              		@ sp needed
 1148 003e 80BD     		pop	{r7, pc}
 1149              	.L112:
 1150              		.align	2
 1151              	.L111:
 1152 0040 80101040 		.word	1074794624
 1153              		.cfi_endproc
 1154              	.LFE23:
 1155              		.size	CyDmaGetPriority, .-CyDmaGetPriority
 1156              		.section	.text.CyDmaSetNextDescriptor,"ax",%progbits
 1157              		.align	2
 1158              		.global	CyDmaSetNextDescriptor
 1159              		.code	16
 1160              		.thumb_func
 1161              		.type	CyDmaSetNextDescriptor, %function
 1162              	CyDmaSetNextDescriptor:
 1163              	.LFB24:
 658:.\Generated_Source\PSoC4/CyDMA.c **** 
 659:.\Generated_Source\PSoC4/CyDMA.c **** 
ARM GAS  C:\Users\Matty\AppData\Local\Temp\ccXs7IQl.s 			page 33


 660:.\Generated_Source\PSoC4/CyDMA.c **** /*******************************************************************************
 661:.\Generated_Source\PSoC4/CyDMA.c **** * Function Name: CyDmaSetNextDescriptor
 662:.\Generated_Source\PSoC4/CyDMA.c **** ********************************************************************************
 663:.\Generated_Source\PSoC4/CyDMA.c **** *
 664:.\Generated_Source\PSoC4/CyDMA.c **** * Summary:
 665:.\Generated_Source\PSoC4/CyDMA.c **** *  Sets the descriptor that should be run the next time the channel is
 666:.\Generated_Source\PSoC4/CyDMA.c **** *  triggered.
 667:.\Generated_Source\PSoC4/CyDMA.c **** *
 668:.\Generated_Source\PSoC4/CyDMA.c **** * Parameters:
 669:.\Generated_Source\PSoC4/CyDMA.c **** *  channel:    Channel used by this function.
 670:.\Generated_Source\PSoC4/CyDMA.c **** *  descriptor: Next Descriptor to run (0 or 1).
 671:.\Generated_Source\PSoC4/CyDMA.c **** *
 672:.\Generated_Source\PSoC4/CyDMA.c **** * Return:
 673:.\Generated_Source\PSoC4/CyDMA.c **** *  None.
 674:.\Generated_Source\PSoC4/CyDMA.c **** *                   
 675:.\Generated_Source\PSoC4/CyDMA.c **** * Side effect:
 676:.\Generated_Source\PSoC4/CyDMA.c **** *  This function should not be called while the channel is enabled.
 677:.\Generated_Source\PSoC4/CyDMA.c **** *
 678:.\Generated_Source\PSoC4/CyDMA.c **** *******************************************************************************/
 679:.\Generated_Source\PSoC4/CyDMA.c **** void CyDmaSetNextDescriptor(int32 channel, int32 descriptor)
 680:.\Generated_Source\PSoC4/CyDMA.c **** {
 1164              		.loc 1 680 0
 1165              		.cfi_startproc
 1166 0000 80B5     		push	{r7, lr}
 1167              		.cfi_def_cfa_offset 8
 1168              		.cfi_offset 7, -8
 1169              		.cfi_offset 14, -4
 1170 0002 84B0     		sub	sp, sp, #16
 1171              		.cfi_def_cfa_offset 24
 1172 0004 00AF     		add	r7, sp, #0
 1173              		.cfi_def_cfa_register 7
 1174 0006 7860     		str	r0, [r7, #4]
 1175 0008 3960     		str	r1, [r7]
 681:.\Generated_Source\PSoC4/CyDMA.c ****     uint32 regValue;
 682:.\Generated_Source\PSoC4/CyDMA.c **** 
 683:.\Generated_Source\PSoC4/CyDMA.c ****     CYASSERT((channel    >= 0) && (channel    < CYDMA_CH_NR));
 1176              		.loc 1 683 0
 1177 000a 7B68     		ldr	r3, [r7, #4]
 1178 000c 002B     		cmp	r3, #0
 1179 000e 04DB     		blt	.L114
 1180              		.loc 1 683 0 is_stmt 0 discriminator 1
 1181 0010 7B68     		ldr	r3, [r7, #4]
 1182 0012 072B     		cmp	r3, #7
 1183 0014 01DC     		bgt	.L114
 1184              		.loc 1 683 0 discriminator 3
 1185 0016 0123     		mov	r3, #1
 1186 0018 00E0     		b	.L115
 1187              	.L114:
 1188              		.loc 1 683 0 discriminator 2
 1189 001a 0023     		mov	r3, #0
 1190              	.L115:
 1191              		.loc 1 683 0 discriminator 4
 1192 001c 002B     		cmp	r3, #0
 1193 001e 02D1     		bne	.L116
 1194              		.loc 1 683 0 discriminator 1
 1195 0020 0020     		mov	r0, #0
 1196 0022 FFF7FEFF 		bl	CyHalt
ARM GAS  C:\Users\Matty\AppData\Local\Temp\ccXs7IQl.s 			page 34


 1197              	.L116:
 684:.\Generated_Source\PSoC4/CyDMA.c ****     CYASSERT((descriptor >= 0) && (descriptor < CYDMA_DESCR_NR));
 1198              		.loc 1 684 0 is_stmt 1
 1199 0026 3B68     		ldr	r3, [r7]
 1200 0028 002B     		cmp	r3, #0
 1201 002a 04DB     		blt	.L117
 1202              		.loc 1 684 0 is_stmt 0 discriminator 1
 1203 002c 3B68     		ldr	r3, [r7]
 1204 002e 012B     		cmp	r3, #1
 1205 0030 01DC     		bgt	.L117
 1206              		.loc 1 684 0 discriminator 3
 1207 0032 0123     		mov	r3, #1
 1208 0034 00E0     		b	.L118
 1209              	.L117:
 1210              		.loc 1 684 0 discriminator 2
 1211 0036 0023     		mov	r3, #0
 1212              	.L118:
 1213              		.loc 1 684 0 discriminator 4
 1214 0038 002B     		cmp	r3, #0
 1215 003a 02D1     		bne	.L119
 1216              		.loc 1 684 0 discriminator 1
 1217 003c 0020     		mov	r0, #0
 1218 003e FFF7FEFF 		bl	CyHalt
 1219              	.L119:
 685:.\Generated_Source\PSoC4/CyDMA.c **** 
 686:.\Generated_Source\PSoC4/CyDMA.c ****     regValue = CYDMA_CH_CTL_BASE.ctl[channel] & (uint32)~CYDMA_DESCRIPTOR;
 1220              		.loc 1 686 0 is_stmt 1
 1221 0042 094B     		ldr	r3, .L120
 1222 0044 7A68     		ldr	r2, [r7, #4]
 1223 0046 9200     		lsl	r2, r2, #2
 1224 0048 D258     		ldr	r2, [r2, r3]
 1225 004a 084B     		ldr	r3, .L120+4
 1226 004c 1340     		and	r3, r2
 1227 004e FB60     		str	r3, [r7, #12]
 687:.\Generated_Source\PSoC4/CyDMA.c ****     CYDMA_CH_CTL_BASE.ctl[channel] = regValue | (uint32)((uint32)descriptor << CYDMA_DESCRIPTOR_POS
 1228              		.loc 1 687 0
 1229 0050 054B     		ldr	r3, .L120
 1230 0052 3A68     		ldr	r2, [r7]
 1231 0054 9107     		lsl	r1, r2, #30
 1232 0056 FA68     		ldr	r2, [r7, #12]
 1233 0058 1143     		orr	r1, r2
 1234 005a 7A68     		ldr	r2, [r7, #4]
 1235 005c 9200     		lsl	r2, r2, #2
 1236 005e D150     		str	r1, [r2, r3]
 688:.\Generated_Source\PSoC4/CyDMA.c **** }
 1237              		.loc 1 688 0
 1238 0060 BD46     		mov	sp, r7
 1239 0062 04B0     		add	sp, sp, #16
 1240              		@ sp needed
 1241 0064 80BD     		pop	{r7, pc}
 1242              	.L121:
 1243 0066 C046     		.align	2
 1244              	.L120:
 1245 0068 80101040 		.word	1074794624
 1246 006c FFFFFFBF 		.word	-1073741825
 1247              		.cfi_endproc
 1248              	.LFE24:
ARM GAS  C:\Users\Matty\AppData\Local\Temp\ccXs7IQl.s 			page 35


 1249              		.size	CyDmaSetNextDescriptor, .-CyDmaSetNextDescriptor
 1250              		.section	.text.CyDmaGetNextDescriptor,"ax",%progbits
 1251              		.align	2
 1252              		.global	CyDmaGetNextDescriptor
 1253              		.code	16
 1254              		.thumb_func
 1255              		.type	CyDmaGetNextDescriptor, %function
 1256              	CyDmaGetNextDescriptor:
 1257              	.LFB25:
 689:.\Generated_Source\PSoC4/CyDMA.c **** 
 690:.\Generated_Source\PSoC4/CyDMA.c **** 
 691:.\Generated_Source\PSoC4/CyDMA.c **** /*******************************************************************************
 692:.\Generated_Source\PSoC4/CyDMA.c **** * Function Name: CyDmaGetNextDescriptor
 693:.\Generated_Source\PSoC4/CyDMA.c **** ********************************************************************************
 694:.\Generated_Source\PSoC4/CyDMA.c **** *
 695:.\Generated_Source\PSoC4/CyDMA.c **** * Summary:
 696:.\Generated_Source\PSoC4/CyDMA.c **** *  Returns the next descriptor that should be run, as set by 
 697:.\Generated_Source\PSoC4/CyDMA.c **** *  CyDmaSetNextDescriptor().
 698:.\Generated_Source\PSoC4/CyDMA.c **** *
 699:.\Generated_Source\PSoC4/CyDMA.c **** * Parameters:
 700:.\Generated_Source\PSoC4/CyDMA.c **** *  channel: channel used by this function.
 701:.\Generated_Source\PSoC4/CyDMA.c **** *                   
 702:.\Generated_Source\PSoC4/CyDMA.c **** * Return:
 703:.\Generated_Source\PSoC4/CyDMA.c **** *  Next Descriptor to run (0 or 1).
 704:.\Generated_Source\PSoC4/CyDMA.c **** *
 705:.\Generated_Source\PSoC4/CyDMA.c **** *******************************************************************************/
 706:.\Generated_Source\PSoC4/CyDMA.c **** int32 CyDmaGetNextDescriptor(int32 channel)
 707:.\Generated_Source\PSoC4/CyDMA.c **** {
 1258              		.loc 1 707 0
 1259              		.cfi_startproc
 1260 0000 80B5     		push	{r7, lr}
 1261              		.cfi_def_cfa_offset 8
 1262              		.cfi_offset 7, -8
 1263              		.cfi_offset 14, -4
 1264 0002 84B0     		sub	sp, sp, #16
 1265              		.cfi_def_cfa_offset 24
 1266 0004 00AF     		add	r7, sp, #0
 1267              		.cfi_def_cfa_register 7
 1268 0006 7860     		str	r0, [r7, #4]
 708:.\Generated_Source\PSoC4/CyDMA.c ****     uint32 nextDescriptor;
 709:.\Generated_Source\PSoC4/CyDMA.c **** 
 710:.\Generated_Source\PSoC4/CyDMA.c ****     CYASSERT((channel >= 0) && (channel < CYDMA_CH_NR));
 1269              		.loc 1 710 0
 1270 0008 7B68     		ldr	r3, [r7, #4]
 1271 000a 002B     		cmp	r3, #0
 1272 000c 04DB     		blt	.L123
 1273              		.loc 1 710 0 is_stmt 0 discriminator 1
 1274 000e 7B68     		ldr	r3, [r7, #4]
 1275 0010 072B     		cmp	r3, #7
 1276 0012 01DC     		bgt	.L123
 1277              		.loc 1 710 0 discriminator 3
 1278 0014 0123     		mov	r3, #1
 1279 0016 00E0     		b	.L124
 1280              	.L123:
 1281              		.loc 1 710 0 discriminator 2
 1282 0018 0023     		mov	r3, #0
 1283              	.L124:
ARM GAS  C:\Users\Matty\AppData\Local\Temp\ccXs7IQl.s 			page 36


 1284              		.loc 1 710 0 discriminator 4
 1285 001a 002B     		cmp	r3, #0
 1286 001c 02D1     		bne	.L125
 1287              		.loc 1 710 0 discriminator 1
 1288 001e 0020     		mov	r0, #0
 1289 0020 FFF7FEFF 		bl	CyHalt
 1290              	.L125:
 711:.\Generated_Source\PSoC4/CyDMA.c **** 
 712:.\Generated_Source\PSoC4/CyDMA.c ****     nextDescriptor = (CYDMA_CH_CTL_BASE.ctl[channel] & CYDMA_DESCRIPTOR) >> CYDMA_DESCRIPTOR_POS;
 1291              		.loc 1 712 0 is_stmt 1
 1292 0024 064B     		ldr	r3, .L127
 1293 0026 7A68     		ldr	r2, [r7, #4]
 1294 0028 9200     		lsl	r2, r2, #2
 1295 002a D258     		ldr	r2, [r2, r3]
 1296 002c 8023     		mov	r3, #128
 1297 002e DB05     		lsl	r3, r3, #23
 1298 0030 1340     		and	r3, r2
 1299 0032 9B0F     		lsr	r3, r3, #30
 1300 0034 FB60     		str	r3, [r7, #12]
 713:.\Generated_Source\PSoC4/CyDMA.c ****     return ((int32)nextDescriptor);
 1301              		.loc 1 713 0
 1302 0036 FB68     		ldr	r3, [r7, #12]
 714:.\Generated_Source\PSoC4/CyDMA.c **** }
 1303              		.loc 1 714 0
 1304 0038 181C     		mov	r0, r3
 1305 003a BD46     		mov	sp, r7
 1306 003c 04B0     		add	sp, sp, #16
 1307              		@ sp needed
 1308 003e 80BD     		pop	{r7, pc}
 1309              	.L128:
 1310              		.align	2
 1311              	.L127:
 1312 0040 80101040 		.word	1074794624
 1313              		.cfi_endproc
 1314              	.LFE25:
 1315              		.size	CyDmaGetNextDescriptor, .-CyDmaGetNextDescriptor
 1316              		.section	.text.CyDmaSetConfiguration,"ax",%progbits
 1317              		.align	2
 1318              		.global	CyDmaSetConfiguration
 1319              		.code	16
 1320              		.thumb_func
 1321              		.type	CyDmaSetConfiguration, %function
 1322              	CyDmaSetConfiguration:
 1323              	.LFB26:
 715:.\Generated_Source\PSoC4/CyDMA.c **** 
 716:.\Generated_Source\PSoC4/CyDMA.c **** 
 717:.\Generated_Source\PSoC4/CyDMA.c **** /*******************************************************************************
 718:.\Generated_Source\PSoC4/CyDMA.c **** * Function Name: CyDmaSetConfiguration
 719:.\Generated_Source\PSoC4/CyDMA.c **** ********************************************************************************
 720:.\Generated_Source\PSoC4/CyDMA.c **** *
 721:.\Generated_Source\PSoC4/CyDMA.c **** * Summary:
 722:.\Generated_Source\PSoC4/CyDMA.c **** *  Sets configuration information for the specified descriptor.
 723:.\Generated_Source\PSoC4/CyDMA.c **** *
 724:.\Generated_Source\PSoC4/CyDMA.c **** * Parameters:
 725:.\Generated_Source\PSoC4/CyDMA.c **** *  channel:    DMA channel modified by this function.
 726:.\Generated_Source\PSoC4/CyDMA.c **** *  descriptor: Descriptor (0 or 1) modified by this function.
 727:.\Generated_Source\PSoC4/CyDMA.c **** *  config:     Pointer to a configuration structure. Refer to cydma_init_struct
ARM GAS  C:\Users\Matty\AppData\Local\Temp\ccXs7IQl.s 			page 37


 728:.\Generated_Source\PSoC4/CyDMA.c **** *              structure definition in CyDMA_P4.h and/or DMA channel datasheet
 729:.\Generated_Source\PSoC4/CyDMA.c **** *              for more information.
 730:.\Generated_Source\PSoC4/CyDMA.c **** *                   
 731:.\Generated_Source\PSoC4/CyDMA.c **** * Return:
 732:.\Generated_Source\PSoC4/CyDMA.c **** *  None.
 733:.\Generated_Source\PSoC4/CyDMA.c **** *
 734:.\Generated_Source\PSoC4/CyDMA.c **** * Side effect:
 735:.\Generated_Source\PSoC4/CyDMA.c **** *  The status register associated with the specified descriptor is reset to
 736:.\Generated_Source\PSoC4/CyDMA.c **** *  zero after this function call. This function also validates the descriptor.
 737:.\Generated_Source\PSoC4/CyDMA.c **** *  This function should not be called while the descriptor is active.
 738:.\Generated_Source\PSoC4/CyDMA.c **** *  This can be checked by calling CyDmaGetStatus().
 739:.\Generated_Source\PSoC4/CyDMA.c **** *
 740:.\Generated_Source\PSoC4/CyDMA.c **** *******************************************************************************/
 741:.\Generated_Source\PSoC4/CyDMA.c **** void CyDmaSetConfiguration(int32 channel, int32 descriptor, const cydma_init_struct * config)
 742:.\Generated_Source\PSoC4/CyDMA.c **** {  
 1324              		.loc 1 742 0
 1325              		.cfi_startproc
 1326 0000 80B5     		push	{r7, lr}
 1327              		.cfi_def_cfa_offset 8
 1328              		.cfi_offset 7, -8
 1329              		.cfi_offset 14, -4
 1330 0002 84B0     		sub	sp, sp, #16
 1331              		.cfi_def_cfa_offset 24
 1332 0004 00AF     		add	r7, sp, #0
 1333              		.cfi_def_cfa_register 7
 1334 0006 F860     		str	r0, [r7, #12]
 1335 0008 B960     		str	r1, [r7, #8]
 1336 000a 7A60     		str	r2, [r7, #4]
 743:.\Generated_Source\PSoC4/CyDMA.c ****     CYASSERT((channel        >= 0) && (channel         < CYDMA_CH_NR));
 1337              		.loc 1 743 0
 1338 000c FB68     		ldr	r3, [r7, #12]
 1339 000e 002B     		cmp	r3, #0
 1340 0010 04DB     		blt	.L130
 1341              		.loc 1 743 0 is_stmt 0 discriminator 1
 1342 0012 FB68     		ldr	r3, [r7, #12]
 1343 0014 072B     		cmp	r3, #7
 1344 0016 01DC     		bgt	.L130
 1345              		.loc 1 743 0 discriminator 3
 1346 0018 0123     		mov	r3, #1
 1347 001a 00E0     		b	.L131
 1348              	.L130:
 1349              		.loc 1 743 0 discriminator 2
 1350 001c 0023     		mov	r3, #0
 1351              	.L131:
 1352              		.loc 1 743 0 discriminator 4
 1353 001e 002B     		cmp	r3, #0
 1354 0020 02D1     		bne	.L132
 1355              		.loc 1 743 0 discriminator 1
 1356 0022 0020     		mov	r0, #0
 1357 0024 FFF7FEFF 		bl	CyHalt
 1358              	.L132:
 744:.\Generated_Source\PSoC4/CyDMA.c ****     CYASSERT((descriptor     >= 0) && (descriptor      < CYDMA_DESCR_NR));
 1359              		.loc 1 744 0 is_stmt 1
 1360 0028 BB68     		ldr	r3, [r7, #8]
 1361 002a 002B     		cmp	r3, #0
 1362 002c 04DB     		blt	.L133
 1363              		.loc 1 744 0 is_stmt 0 discriminator 1
ARM GAS  C:\Users\Matty\AppData\Local\Temp\ccXs7IQl.s 			page 38


 1364 002e BB68     		ldr	r3, [r7, #8]
 1365 0030 012B     		cmp	r3, #1
 1366 0032 01DC     		bgt	.L133
 1367              		.loc 1 744 0 discriminator 3
 1368 0034 0123     		mov	r3, #1
 1369 0036 00E0     		b	.L134
 1370              	.L133:
 1371              		.loc 1 744 0 discriminator 2
 1372 0038 0023     		mov	r3, #0
 1373              	.L134:
 1374              		.loc 1 744 0 discriminator 4
 1375 003a 002B     		cmp	r3, #0
 1376 003c 02D1     		bne	.L135
 1377              		.loc 1 744 0 discriminator 1
 1378 003e 0020     		mov	r0, #0
 1379 0040 FFF7FEFF 		bl	CyHalt
 1380              	.L135:
 745:.\Generated_Source\PSoC4/CyDMA.c **** 
 746:.\Generated_Source\PSoC4/CyDMA.c ****     CYASSERT(0u == (config->dataElementSize     & (uint32)~CYDMA_DATA_SIZE));   
 1381              		.loc 1 746 0 is_stmt 1
 1382 0044 7B68     		ldr	r3, [r7, #4]
 1383 0046 1A68     		ldr	r2, [r3]
 1384 0048 3B4B     		ldr	r3, .L146
 1385 004a 1340     		and	r3, r2
 1386 004c 02D0     		beq	.L136
 1387              		.loc 1 746 0 is_stmt 0 discriminator 1
 1388 004e 0020     		mov	r0, #0
 1389 0050 FFF7FEFF 		bl	CyHalt
 1390              	.L136:
 747:.\Generated_Source\PSoC4/CyDMA.c ****     CYASSERT((config->numDataElements > 0)     && (config->numDataElements <= CYDMA_MAX_DATA_NR));
 1391              		.loc 1 747 0 is_stmt 1
 1392 0054 7B68     		ldr	r3, [r7, #4]
 1393 0056 5B68     		ldr	r3, [r3, #4]
 1394 0058 002B     		cmp	r3, #0
 1395 005a 07DD     		ble	.L137
 1396              		.loc 1 747 0 is_stmt 0 discriminator 1
 1397 005c 7B68     		ldr	r3, [r7, #4]
 1398 005e 5A68     		ldr	r2, [r3, #4]
 1399 0060 8023     		mov	r3, #128
 1400 0062 5B02     		lsl	r3, r3, #9
 1401 0064 9A42     		cmp	r2, r3
 1402 0066 01DC     		bgt	.L137
 1403              		.loc 1 747 0 discriminator 3
 1404 0068 0123     		mov	r3, #1
 1405 006a 00E0     		b	.L138
 1406              	.L137:
 1407              		.loc 1 747 0 discriminator 2
 1408 006c 0023     		mov	r3, #0
 1409              	.L138:
 1410              		.loc 1 747 0 discriminator 4
 1411 006e 002B     		cmp	r3, #0
 1412 0070 02D1     		bne	.L139
 1413              		.loc 1 747 0 discriminator 1
 1414 0072 0020     		mov	r0, #0
 1415 0074 FFF7FEFF 		bl	CyHalt
 1416              	.L139:
 748:.\Generated_Source\PSoC4/CyDMA.c ****     CYASSERT(0u == (config->srcDstTransferWidth & (uint32)~CYDMA_TRANSFER_WIDTH));
ARM GAS  C:\Users\Matty\AppData\Local\Temp\ccXs7IQl.s 			page 39


 1417              		.loc 1 748 0 is_stmt 1
 1418 0078 7B68     		ldr	r3, [r7, #4]
 1419 007a 9A68     		ldr	r2, [r3, #8]
 1420 007c 2F4B     		ldr	r3, .L146+4
 1421 007e 1340     		and	r3, r2
 1422 0080 02D0     		beq	.L140
 1423              		.loc 1 748 0 is_stmt 0 discriminator 1
 1424 0082 0020     		mov	r0, #0
 1425 0084 FFF7FEFF 		bl	CyHalt
 1426              	.L140:
 749:.\Generated_Source\PSoC4/CyDMA.c ****     CYASSERT(0u == (config->addressIncrement    & (uint32)~CYDMA_ADDR_INCR));
 1427              		.loc 1 749 0 is_stmt 1
 1428 0088 7B68     		ldr	r3, [r7, #4]
 1429 008a DA68     		ldr	r2, [r3, #12]
 1430 008c 2C4B     		ldr	r3, .L146+8
 1431 008e 1340     		and	r3, r2
 1432 0090 02D0     		beq	.L141
 1433              		.loc 1 749 0 is_stmt 0 discriminator 1
 1434 0092 0020     		mov	r0, #0
 1435 0094 FFF7FEFF 		bl	CyHalt
 1436              	.L141:
 750:.\Generated_Source\PSoC4/CyDMA.c ****     CYASSERT(0u == (config->triggerType         & (uint32)~CYDMA_TRIGGER_TYPE));
 1437              		.loc 1 750 0 is_stmt 1
 1438 0098 7B68     		ldr	r3, [r7, #4]
 1439 009a 1A69     		ldr	r2, [r3, #16]
 1440 009c 294B     		ldr	r3, .L146+12
 1441 009e 1340     		and	r3, r2
 1442 00a0 02D0     		beq	.L142
 1443              		.loc 1 750 0 is_stmt 0 discriminator 1
 1444 00a2 0020     		mov	r0, #0
 1445 00a4 FFF7FEFF 		bl	CyHalt
 1446              	.L142:
 751:.\Generated_Source\PSoC4/CyDMA.c ****     CYASSERT(0u == (config->transferMode        & (uint32)~CYDMA_TRANSFER_MODE));
 1447              		.loc 1 751 0 is_stmt 1
 1448 00a8 7B68     		ldr	r3, [r7, #4]
 1449 00aa 5B69     		ldr	r3, [r3, #20]
 1450 00ac 9B00     		lsl	r3, r3, #2
 1451 00ae 9B08     		lsr	r3, r3, #2
 1452 00b0 02D0     		beq	.L143
 1453              		.loc 1 751 0 is_stmt 0 discriminator 1
 1454 00b2 0020     		mov	r0, #0
 1455 00b4 FFF7FEFF 		bl	CyHalt
 1456              	.L143:
 752:.\Generated_Source\PSoC4/CyDMA.c ****     CYASSERT(0u == (config->preemptable         & (uint32)~CYDMA_PREEMPTABLE));
 1457              		.loc 1 752 0 is_stmt 1
 1458 00b8 7B68     		ldr	r3, [r7, #4]
 1459 00ba 9A69     		ldr	r2, [r3, #24]
 1460 00bc 224B     		ldr	r3, .L146+16
 1461 00be 1340     		and	r3, r2
 1462 00c0 02D0     		beq	.L144
 1463              		.loc 1 752 0 is_stmt 0 discriminator 1
 1464 00c2 0020     		mov	r0, #0
 1465 00c4 FFF7FEFF 		bl	CyHalt
 1466              	.L144:
 753:.\Generated_Source\PSoC4/CyDMA.c ****     CYASSERT(0u == (config->actions             & (uint32)~CYDMA_POST_COMPLETE_ACTIONS));
 1467              		.loc 1 753 0 is_stmt 1
 1468 00c8 7B68     		ldr	r3, [r7, #4]
ARM GAS  C:\Users\Matty\AppData\Local\Temp\ccXs7IQl.s 			page 40


 1469 00ca DA69     		ldr	r2, [r3, #28]
 1470 00cc 1F4B     		ldr	r3, .L146+20
 1471 00ce 1340     		and	r3, r2
 1472 00d0 02D0     		beq	.L145
 1473              		.loc 1 753 0 is_stmt 0 discriminator 1
 1474 00d2 0020     		mov	r0, #0
 1475 00d4 FFF7FEFF 		bl	CyHalt
 1476              	.L145:
 754:.\Generated_Source\PSoC4/CyDMA.c ****     
 755:.\Generated_Source\PSoC4/CyDMA.c ****     CYDMA_DESCR_BASE.descriptor[channel][descriptor].ctl = config->dataElementSize     |
 1477              		.loc 1 755 0 is_stmt 1
 1478 00d8 1D49     		ldr	r1, .L146+24
 1479 00da 7B68     		ldr	r3, [r7, #4]
 1480 00dc 1A68     		ldr	r2, [r3]
 756:.\Generated_Source\PSoC4/CyDMA.c ****                                                   ((uint32)config->numDataElements-1u) |
 1481              		.loc 1 756 0
 1482 00de 7B68     		ldr	r3, [r7, #4]
 1483 00e0 5B68     		ldr	r3, [r3, #4]
 1484 00e2 013B     		sub	r3, r3, #1
 755:.\Generated_Source\PSoC4/CyDMA.c ****     CYDMA_DESCR_BASE.descriptor[channel][descriptor].ctl = config->dataElementSize     |
 1485              		.loc 1 755 0
 1486 00e4 1A43     		orr	r2, r3
 757:.\Generated_Source\PSoC4/CyDMA.c ****                                                            config->srcDstTransferWidth |
 1487              		.loc 1 757 0
 1488 00e6 7B68     		ldr	r3, [r7, #4]
 1489 00e8 9B68     		ldr	r3, [r3, #8]
 756:.\Generated_Source\PSoC4/CyDMA.c ****                                                   ((uint32)config->numDataElements-1u) |
 1490              		.loc 1 756 0
 1491 00ea 1A43     		orr	r2, r3
 758:.\Generated_Source\PSoC4/CyDMA.c ****                                                            config->addressIncrement    |
 1492              		.loc 1 758 0
 1493 00ec 7B68     		ldr	r3, [r7, #4]
 1494 00ee DB68     		ldr	r3, [r3, #12]
 757:.\Generated_Source\PSoC4/CyDMA.c ****                                                            config->srcDstTransferWidth |
 1495              		.loc 1 757 0
 1496 00f0 1A43     		orr	r2, r3
 759:.\Generated_Source\PSoC4/CyDMA.c ****                                                            config->triggerType         |
 1497              		.loc 1 759 0
 1498 00f2 7B68     		ldr	r3, [r7, #4]
 1499 00f4 1B69     		ldr	r3, [r3, #16]
 758:.\Generated_Source\PSoC4/CyDMA.c ****                                                            config->addressIncrement    |
 1500              		.loc 1 758 0
 1501 00f6 1A43     		orr	r2, r3
 760:.\Generated_Source\PSoC4/CyDMA.c ****                                                            config->transferMode        |
 1502              		.loc 1 760 0
 1503 00f8 7B68     		ldr	r3, [r7, #4]
 1504 00fa 5B69     		ldr	r3, [r3, #20]
 759:.\Generated_Source\PSoC4/CyDMA.c ****                                                            config->triggerType         |
 1505              		.loc 1 759 0
 1506 00fc 1A43     		orr	r2, r3
 761:.\Generated_Source\PSoC4/CyDMA.c ****                                                            config->preemptable         |
 1507              		.loc 1 761 0
 1508 00fe 7B68     		ldr	r3, [r7, #4]
 1509 0100 9B69     		ldr	r3, [r3, #24]
 760:.\Generated_Source\PSoC4/CyDMA.c ****                                                            config->transferMode        |
 1510              		.loc 1 760 0
 1511 0102 1A43     		orr	r2, r3
ARM GAS  C:\Users\Matty\AppData\Local\Temp\ccXs7IQl.s 			page 41


 762:.\Generated_Source\PSoC4/CyDMA.c ****                                                            config->actions;
 1512              		.loc 1 762 0
 1513 0104 7B68     		ldr	r3, [r7, #4]
 1514 0106 DB69     		ldr	r3, [r3, #28]
 761:.\Generated_Source\PSoC4/CyDMA.c ****                                                            config->preemptable         |
 1515              		.loc 1 761 0
 1516 0108 1A43     		orr	r2, r3
 755:.\Generated_Source\PSoC4/CyDMA.c ****     CYDMA_DESCR_BASE.descriptor[channel][descriptor].ctl = config->dataElementSize     |
 1517              		.loc 1 755 0
 1518 010a FB68     		ldr	r3, [r7, #12]
 1519 010c 5800     		lsl	r0, r3, #1
 1520 010e BB68     		ldr	r3, [r7, #8]
 1521 0110 C318     		add	r3, r0, r3
 1522 0112 1B01     		lsl	r3, r3, #4
 1523 0114 CB18     		add	r3, r1, r3
 1524 0116 0833     		add	r3, r3, #8
 1525 0118 1A60     		str	r2, [r3]
 763:.\Generated_Source\PSoC4/CyDMA.c **** 
 764:.\Generated_Source\PSoC4/CyDMA.c ****     CYDMA_DESCR_BASE.descriptor[channel][descriptor].status = CYDMA_VALID;
 1526              		.loc 1 764 0
 1527 011a 0D4A     		ldr	r2, .L146+24
 1528 011c FB68     		ldr	r3, [r7, #12]
 1529 011e 5900     		lsl	r1, r3, #1
 1530 0120 BB68     		ldr	r3, [r7, #8]
 1531 0122 CB18     		add	r3, r1, r3
 1532 0124 1B01     		lsl	r3, r3, #4
 1533 0126 D318     		add	r3, r2, r3
 1534 0128 0833     		add	r3, r3, #8
 1535 012a 8022     		mov	r2, #128
 1536 012c 1206     		lsl	r2, r2, #24
 1537 012e 5A60     		str	r2, [r3, #4]
 765:.\Generated_Source\PSoC4/CyDMA.c **** }
 1538              		.loc 1 765 0
 1539 0130 BD46     		mov	sp, r7
 1540 0132 04B0     		add	sp, sp, #16
 1541              		@ sp needed
 1542 0134 80BD     		pop	{r7, pc}
 1543              	.L147:
 1544 0136 C046     		.align	2
 1545              	.L146:
 1546 0138 FFFFFCFF 		.word	-196609
 1547 013c FFFFAFFF 		.word	-5242881
 1548 0140 FFFF5FFF 		.word	-10485761
 1549 0144 FFFFFFFC 		.word	-50331649
 1550 0148 FFFFFFEF 		.word	-268435457
 1551 014c FFFFFFD3 		.word	-738197505
 1552 0150 00181040 		.word	1074796544
 1553              		.cfi_endproc
 1554              	.LFE26:
 1555              		.size	CyDmaSetConfiguration, .-CyDmaSetConfiguration
 1556              		.section	.text.CyDmaValidateDescriptor,"ax",%progbits
 1557              		.align	2
 1558              		.global	CyDmaValidateDescriptor
 1559              		.code	16
 1560              		.thumb_func
 1561              		.type	CyDmaValidateDescriptor, %function
 1562              	CyDmaValidateDescriptor:
ARM GAS  C:\Users\Matty\AppData\Local\Temp\ccXs7IQl.s 			page 42


 1563              	.LFB27:
 766:.\Generated_Source\PSoC4/CyDMA.c **** 
 767:.\Generated_Source\PSoC4/CyDMA.c **** 
 768:.\Generated_Source\PSoC4/CyDMA.c **** /*******************************************************************************
 769:.\Generated_Source\PSoC4/CyDMA.c **** * Function Name: CyDmaValidateDescriptor
 770:.\Generated_Source\PSoC4/CyDMA.c **** ********************************************************************************
 771:.\Generated_Source\PSoC4/CyDMA.c **** *
 772:.\Generated_Source\PSoC4/CyDMA.c **** * Summary:
 773:.\Generated_Source\PSoC4/CyDMA.c **** *  Validates the specified descriptor after it has been invalidated.
 774:.\Generated_Source\PSoC4/CyDMA.c **** *
 775:.\Generated_Source\PSoC4/CyDMA.c **** * Parameters:
 776:.\Generated_Source\PSoC4/CyDMA.c **** *  channel:    Channel used by this function.
 777:.\Generated_Source\PSoC4/CyDMA.c **** *  descriptor: Descriptor (0 or 1) modified by this function.
 778:.\Generated_Source\PSoC4/CyDMA.c **** *                   
 779:.\Generated_Source\PSoC4/CyDMA.c **** * Return:
 780:.\Generated_Source\PSoC4/CyDMA.c **** *  None. 
 781:.\Generated_Source\PSoC4/CyDMA.c **** *
 782:.\Generated_Source\PSoC4/CyDMA.c **** * Side effect:
 783:.\Generated_Source\PSoC4/CyDMA.c **** *  The status register associated with the specified descriptor is reset to
 784:.\Generated_Source\PSoC4/CyDMA.c **** *  zero after this function call.
 785:.\Generated_Source\PSoC4/CyDMA.c **** *  This function should not be called when the specified descriptor is active
 786:.\Generated_Source\PSoC4/CyDMA.c **** *  in the DMA transfer engine. This can be checked by calling CyDmaGetStatus().
 787:.\Generated_Source\PSoC4/CyDMA.c **** *
 788:.\Generated_Source\PSoC4/CyDMA.c **** *******************************************************************************/
 789:.\Generated_Source\PSoC4/CyDMA.c **** void CyDmaValidateDescriptor(int32 channel, int32 descriptor)
 790:.\Generated_Source\PSoC4/CyDMA.c **** {
 1564              		.loc 1 790 0
 1565              		.cfi_startproc
 1566 0000 80B5     		push	{r7, lr}
 1567              		.cfi_def_cfa_offset 8
 1568              		.cfi_offset 7, -8
 1569              		.cfi_offset 14, -4
 1570 0002 82B0     		sub	sp, sp, #8
 1571              		.cfi_def_cfa_offset 16
 1572 0004 00AF     		add	r7, sp, #0
 1573              		.cfi_def_cfa_register 7
 1574 0006 7860     		str	r0, [r7, #4]
 1575 0008 3960     		str	r1, [r7]
 791:.\Generated_Source\PSoC4/CyDMA.c ****     CYASSERT((channel    >= 0) && (channel    < CYDMA_CH_NR));
 1576              		.loc 1 791 0
 1577 000a 7B68     		ldr	r3, [r7, #4]
 1578 000c 002B     		cmp	r3, #0
 1579 000e 04DB     		blt	.L149
 1580              		.loc 1 791 0 is_stmt 0 discriminator 1
 1581 0010 7B68     		ldr	r3, [r7, #4]
 1582 0012 072B     		cmp	r3, #7
 1583 0014 01DC     		bgt	.L149
 1584              		.loc 1 791 0 discriminator 3
 1585 0016 0123     		mov	r3, #1
 1586 0018 00E0     		b	.L150
 1587              	.L149:
 1588              		.loc 1 791 0 discriminator 2
 1589 001a 0023     		mov	r3, #0
 1590              	.L150:
 1591              		.loc 1 791 0 discriminator 4
 1592 001c 002B     		cmp	r3, #0
 1593 001e 02D1     		bne	.L151
ARM GAS  C:\Users\Matty\AppData\Local\Temp\ccXs7IQl.s 			page 43


 1594              		.loc 1 791 0 discriminator 1
 1595 0020 0020     		mov	r0, #0
 1596 0022 FFF7FEFF 		bl	CyHalt
 1597              	.L151:
 792:.\Generated_Source\PSoC4/CyDMA.c ****     CYASSERT((descriptor >= 0) && (descriptor < CYDMA_DESCR_NR));
 1598              		.loc 1 792 0 is_stmt 1
 1599 0026 3B68     		ldr	r3, [r7]
 1600 0028 002B     		cmp	r3, #0
 1601 002a 04DB     		blt	.L152
 1602              		.loc 1 792 0 is_stmt 0 discriminator 1
 1603 002c 3B68     		ldr	r3, [r7]
 1604 002e 012B     		cmp	r3, #1
 1605 0030 01DC     		bgt	.L152
 1606              		.loc 1 792 0 discriminator 3
 1607 0032 0123     		mov	r3, #1
 1608 0034 00E0     		b	.L153
 1609              	.L152:
 1610              		.loc 1 792 0 discriminator 2
 1611 0036 0023     		mov	r3, #0
 1612              	.L153:
 1613              		.loc 1 792 0 discriminator 4
 1614 0038 002B     		cmp	r3, #0
 1615 003a 02D1     		bne	.L154
 1616              		.loc 1 792 0 discriminator 1
 1617 003c 0020     		mov	r0, #0
 1618 003e FFF7FEFF 		bl	CyHalt
 1619              	.L154:
 793:.\Generated_Source\PSoC4/CyDMA.c **** 
 794:.\Generated_Source\PSoC4/CyDMA.c ****     CYDMA_DESCR_BASE.descriptor[channel][descriptor].status = CYDMA_VALID;
 1620              		.loc 1 794 0 is_stmt 1
 1621 0042 074A     		ldr	r2, .L155
 1622 0044 7B68     		ldr	r3, [r7, #4]
 1623 0046 5900     		lsl	r1, r3, #1
 1624 0048 3B68     		ldr	r3, [r7]
 1625 004a CB18     		add	r3, r1, r3
 1626 004c 1B01     		lsl	r3, r3, #4
 1627 004e D318     		add	r3, r2, r3
 1628 0050 0833     		add	r3, r3, #8
 1629 0052 8022     		mov	r2, #128
 1630 0054 1206     		lsl	r2, r2, #24
 1631 0056 5A60     		str	r2, [r3, #4]
 795:.\Generated_Source\PSoC4/CyDMA.c **** }
 1632              		.loc 1 795 0
 1633 0058 BD46     		mov	sp, r7
 1634 005a 02B0     		add	sp, sp, #8
 1635              		@ sp needed
 1636 005c 80BD     		pop	{r7, pc}
 1637              	.L156:
 1638 005e C046     		.align	2
 1639              	.L155:
 1640 0060 00181040 		.word	1074796544
 1641              		.cfi_endproc
 1642              	.LFE27:
 1643              		.size	CyDmaValidateDescriptor, .-CyDmaValidateDescriptor
 1644              		.section	.text.CyDmaGetDescriptorStatus,"ax",%progbits
 1645              		.align	2
 1646              		.global	CyDmaGetDescriptorStatus
ARM GAS  C:\Users\Matty\AppData\Local\Temp\ccXs7IQl.s 			page 44


 1647              		.code	16
 1648              		.thumb_func
 1649              		.type	CyDmaGetDescriptorStatus, %function
 1650              	CyDmaGetDescriptorStatus:
 1651              	.LFB28:
 796:.\Generated_Source\PSoC4/CyDMA.c **** 
 797:.\Generated_Source\PSoC4/CyDMA.c **** 
 798:.\Generated_Source\PSoC4/CyDMA.c **** /*******************************************************************************
 799:.\Generated_Source\PSoC4/CyDMA.c **** * Function Name: CyDmaGetDescriptorStatus
 800:.\Generated_Source\PSoC4/CyDMA.c **** ********************************************************************************
 801:.\Generated_Source\PSoC4/CyDMA.c **** *
 802:.\Generated_Source\PSoC4/CyDMA.c **** * Summary:
 803:.\Generated_Source\PSoC4/CyDMA.c **** *  Returns the status of the specified descriptor.
 804:.\Generated_Source\PSoC4/CyDMA.c **** *
 805:.\Generated_Source\PSoC4/CyDMA.c **** * Parameters:
 806:.\Generated_Source\PSoC4/CyDMA.c **** *  channel:    Channel used by this function.
 807:.\Generated_Source\PSoC4/CyDMA.c **** *  descriptor: Descriptor (0 or 1) modified by this function.
 808:.\Generated_Source\PSoC4/CyDMA.c **** *                   
 809:.\Generated_Source\PSoC4/CyDMA.c **** * Return:
 810:.\Generated_Source\PSoC4/CyDMA.c **** *  Returns the contents of the specified descriptors status register. Refer to 
 811:.\Generated_Source\PSoC4/CyDMA.c **** *  descriptor status register bit definitions in CyDMA_P4.h or the API
 812:.\Generated_Source\PSoC4/CyDMA.c **** *  description in the DMA channel datasheet for more information.
 813:.\Generated_Source\PSoC4/CyDMA.c **** *
 814:.\Generated_Source\PSoC4/CyDMA.c **** *******************************************************************************/
 815:.\Generated_Source\PSoC4/CyDMA.c **** uint32 CyDmaGetDescriptorStatus(int32 channel, int32 descriptor)
 816:.\Generated_Source\PSoC4/CyDMA.c **** {
 1652              		.loc 1 816 0
 1653              		.cfi_startproc
 1654 0000 80B5     		push	{r7, lr}
 1655              		.cfi_def_cfa_offset 8
 1656              		.cfi_offset 7, -8
 1657              		.cfi_offset 14, -4
 1658 0002 82B0     		sub	sp, sp, #8
 1659              		.cfi_def_cfa_offset 16
 1660 0004 00AF     		add	r7, sp, #0
 1661              		.cfi_def_cfa_register 7
 1662 0006 7860     		str	r0, [r7, #4]
 1663 0008 3960     		str	r1, [r7]
 817:.\Generated_Source\PSoC4/CyDMA.c ****     CYASSERT((channel    >= 0) && (channel    < CYDMA_CH_NR));
 1664              		.loc 1 817 0
 1665 000a 7B68     		ldr	r3, [r7, #4]
 1666 000c 002B     		cmp	r3, #0
 1667 000e 04DB     		blt	.L158
 1668              		.loc 1 817 0 is_stmt 0 discriminator 1
 1669 0010 7B68     		ldr	r3, [r7, #4]
 1670 0012 072B     		cmp	r3, #7
 1671 0014 01DC     		bgt	.L158
 1672              		.loc 1 817 0 discriminator 3
 1673 0016 0123     		mov	r3, #1
 1674 0018 00E0     		b	.L159
 1675              	.L158:
 1676              		.loc 1 817 0 discriminator 2
 1677 001a 0023     		mov	r3, #0
 1678              	.L159:
 1679              		.loc 1 817 0 discriminator 4
 1680 001c 002B     		cmp	r3, #0
 1681 001e 02D1     		bne	.L160
ARM GAS  C:\Users\Matty\AppData\Local\Temp\ccXs7IQl.s 			page 45


 1682              		.loc 1 817 0 discriminator 1
 1683 0020 0020     		mov	r0, #0
 1684 0022 FFF7FEFF 		bl	CyHalt
 1685              	.L160:
 818:.\Generated_Source\PSoC4/CyDMA.c ****     CYASSERT((descriptor >= 0) && (descriptor < CYDMA_DESCR_NR));
 1686              		.loc 1 818 0 is_stmt 1
 1687 0026 3B68     		ldr	r3, [r7]
 1688 0028 002B     		cmp	r3, #0
 1689 002a 04DB     		blt	.L161
 1690              		.loc 1 818 0 is_stmt 0 discriminator 1
 1691 002c 3B68     		ldr	r3, [r7]
 1692 002e 012B     		cmp	r3, #1
 1693 0030 01DC     		bgt	.L161
 1694              		.loc 1 818 0 discriminator 3
 1695 0032 0123     		mov	r3, #1
 1696 0034 00E0     		b	.L162
 1697              	.L161:
 1698              		.loc 1 818 0 discriminator 2
 1699 0036 0023     		mov	r3, #0
 1700              	.L162:
 1701              		.loc 1 818 0 discriminator 4
 1702 0038 002B     		cmp	r3, #0
 1703 003a 02D1     		bne	.L163
 1704              		.loc 1 818 0 discriminator 1
 1705 003c 0020     		mov	r0, #0
 1706 003e FFF7FEFF 		bl	CyHalt
 1707              	.L163:
 819:.\Generated_Source\PSoC4/CyDMA.c **** 
 820:.\Generated_Source\PSoC4/CyDMA.c ****     return (CYDMA_DESCR_BASE.descriptor[channel][descriptor].status);
 1708              		.loc 1 820 0 is_stmt 1
 1709 0042 064A     		ldr	r2, .L165
 1710 0044 7B68     		ldr	r3, [r7, #4]
 1711 0046 5900     		lsl	r1, r3, #1
 1712 0048 3B68     		ldr	r3, [r7]
 1713 004a CB18     		add	r3, r1, r3
 1714 004c 1B01     		lsl	r3, r3, #4
 1715 004e D318     		add	r3, r2, r3
 1716 0050 0833     		add	r3, r3, #8
 1717 0052 5B68     		ldr	r3, [r3, #4]
 821:.\Generated_Source\PSoC4/CyDMA.c **** }
 1718              		.loc 1 821 0
 1719 0054 181C     		mov	r0, r3
 1720 0056 BD46     		mov	sp, r7
 1721 0058 02B0     		add	sp, sp, #8
 1722              		@ sp needed
 1723 005a 80BD     		pop	{r7, pc}
 1724              	.L166:
 1725              		.align	2
 1726              	.L165:
 1727 005c 00181040 		.word	1074796544
 1728              		.cfi_endproc
 1729              	.LFE28:
 1730              		.size	CyDmaGetDescriptorStatus, .-CyDmaGetDescriptorStatus
 1731              		.section	.text.CyDmaSetSrcAddress,"ax",%progbits
 1732              		.align	2
 1733              		.global	CyDmaSetSrcAddress
 1734              		.code	16
ARM GAS  C:\Users\Matty\AppData\Local\Temp\ccXs7IQl.s 			page 46


 1735              		.thumb_func
 1736              		.type	CyDmaSetSrcAddress, %function
 1737              	CyDmaSetSrcAddress:
 1738              	.LFB29:
 822:.\Generated_Source\PSoC4/CyDMA.c **** 
 823:.\Generated_Source\PSoC4/CyDMA.c **** 
 824:.\Generated_Source\PSoC4/CyDMA.c **** /*******************************************************************************
 825:.\Generated_Source\PSoC4/CyDMA.c **** * Function Name: CyDmaSetSrcAddress
 826:.\Generated_Source\PSoC4/CyDMA.c **** ********************************************************************************
 827:.\Generated_Source\PSoC4/CyDMA.c **** *
 828:.\Generated_Source\PSoC4/CyDMA.c **** * Summary:
 829:.\Generated_Source\PSoC4/CyDMA.c **** *  Configures the source address for the specified descriptor.
 830:.\Generated_Source\PSoC4/CyDMA.c **** *
 831:.\Generated_Source\PSoC4/CyDMA.c **** * Parameters:
 832:.\Generated_Source\PSoC4/CyDMA.c **** *  channel:    Channel used by this function.
 833:.\Generated_Source\PSoC4/CyDMA.c **** *  descriptor: Descriptor (0 or 1) modified by this function.
 834:.\Generated_Source\PSoC4/CyDMA.c **** *  srcAddress: Address of DMA transfer source.
 835:.\Generated_Source\PSoC4/CyDMA.c **** *                   
 836:.\Generated_Source\PSoC4/CyDMA.c **** * Return:
 837:.\Generated_Source\PSoC4/CyDMA.c **** *  None.
 838:.\Generated_Source\PSoC4/CyDMA.c **** *
 839:.\Generated_Source\PSoC4/CyDMA.c **** * Side effect:
 840:.\Generated_Source\PSoC4/CyDMA.c **** *  This function should not be called when the specified descriptor is active
 841:.\Generated_Source\PSoC4/CyDMA.c **** *  in the DMA transfer engine. This can be checked by calling CyDmaGetStatus(). 
 842:.\Generated_Source\PSoC4/CyDMA.c **** *
 843:.\Generated_Source\PSoC4/CyDMA.c **** *******************************************************************************/
 844:.\Generated_Source\PSoC4/CyDMA.c **** void CyDmaSetSrcAddress(int32 channel, int32 descriptor, void * srcAddress)
 845:.\Generated_Source\PSoC4/CyDMA.c **** {
 1739              		.loc 1 845 0
 1740              		.cfi_startproc
 1741 0000 80B5     		push	{r7, lr}
 1742              		.cfi_def_cfa_offset 8
 1743              		.cfi_offset 7, -8
 1744              		.cfi_offset 14, -4
 1745 0002 84B0     		sub	sp, sp, #16
 1746              		.cfi_def_cfa_offset 24
 1747 0004 00AF     		add	r7, sp, #0
 1748              		.cfi_def_cfa_register 7
 1749 0006 F860     		str	r0, [r7, #12]
 1750 0008 B960     		str	r1, [r7, #8]
 1751 000a 7A60     		str	r2, [r7, #4]
 846:.\Generated_Source\PSoC4/CyDMA.c ****     CYASSERT((channel    >= 0) && (channel    < CYDMA_CH_NR));
 1752              		.loc 1 846 0
 1753 000c FB68     		ldr	r3, [r7, #12]
 1754 000e 002B     		cmp	r3, #0
 1755 0010 04DB     		blt	.L168
 1756              		.loc 1 846 0 is_stmt 0 discriminator 1
 1757 0012 FB68     		ldr	r3, [r7, #12]
 1758 0014 072B     		cmp	r3, #7
 1759 0016 01DC     		bgt	.L168
 1760              		.loc 1 846 0 discriminator 3
 1761 0018 0123     		mov	r3, #1
 1762 001a 00E0     		b	.L169
 1763              	.L168:
 1764              		.loc 1 846 0 discriminator 2
 1765 001c 0023     		mov	r3, #0
 1766              	.L169:
ARM GAS  C:\Users\Matty\AppData\Local\Temp\ccXs7IQl.s 			page 47


 1767              		.loc 1 846 0 discriminator 4
 1768 001e 002B     		cmp	r3, #0
 1769 0020 02D1     		bne	.L170
 1770              		.loc 1 846 0 discriminator 1
 1771 0022 0020     		mov	r0, #0
 1772 0024 FFF7FEFF 		bl	CyHalt
 1773              	.L170:
 847:.\Generated_Source\PSoC4/CyDMA.c ****     CYASSERT((descriptor >= 0) && (descriptor < CYDMA_DESCR_NR));
 1774              		.loc 1 847 0 is_stmt 1
 1775 0028 BB68     		ldr	r3, [r7, #8]
 1776 002a 002B     		cmp	r3, #0
 1777 002c 04DB     		blt	.L171
 1778              		.loc 1 847 0 is_stmt 0 discriminator 1
 1779 002e BB68     		ldr	r3, [r7, #8]
 1780 0030 012B     		cmp	r3, #1
 1781 0032 01DC     		bgt	.L171
 1782              		.loc 1 847 0 discriminator 3
 1783 0034 0123     		mov	r3, #1
 1784 0036 00E0     		b	.L172
 1785              	.L171:
 1786              		.loc 1 847 0 discriminator 2
 1787 0038 0023     		mov	r3, #0
 1788              	.L172:
 1789              		.loc 1 847 0 discriminator 4
 1790 003a 002B     		cmp	r3, #0
 1791 003c 02D1     		bne	.L173
 1792              		.loc 1 847 0 discriminator 1
 1793 003e 0020     		mov	r0, #0
 1794 0040 FFF7FEFF 		bl	CyHalt
 1795              	.L173:
 848:.\Generated_Source\PSoC4/CyDMA.c **** 
 849:.\Generated_Source\PSoC4/CyDMA.c ****     CYDMA_DESCR_BASE.descriptor[channel][descriptor].src = srcAddress;
 1796              		.loc 1 849 0 is_stmt 1
 1797 0044 054B     		ldr	r3, .L174
 1798 0046 FA68     		ldr	r2, [r7, #12]
 1799 0048 5100     		lsl	r1, r2, #1
 1800 004a BA68     		ldr	r2, [r7, #8]
 1801 004c 8A18     		add	r2, r1, r2
 1802 004e 1201     		lsl	r2, r2, #4
 1803 0050 7968     		ldr	r1, [r7, #4]
 1804 0052 D150     		str	r1, [r2, r3]
 850:.\Generated_Source\PSoC4/CyDMA.c **** }
 1805              		.loc 1 850 0
 1806 0054 BD46     		mov	sp, r7
 1807 0056 04B0     		add	sp, sp, #16
 1808              		@ sp needed
 1809 0058 80BD     		pop	{r7, pc}
 1810              	.L175:
 1811 005a C046     		.align	2
 1812              	.L174:
 1813 005c 00181040 		.word	1074796544
 1814              		.cfi_endproc
 1815              	.LFE29:
 1816              		.size	CyDmaSetSrcAddress, .-CyDmaSetSrcAddress
 1817              		.section	.text.CyDmaGetSrcAddress,"ax",%progbits
 1818              		.align	2
 1819              		.global	CyDmaGetSrcAddress
ARM GAS  C:\Users\Matty\AppData\Local\Temp\ccXs7IQl.s 			page 48


 1820              		.code	16
 1821              		.thumb_func
 1822              		.type	CyDmaGetSrcAddress, %function
 1823              	CyDmaGetSrcAddress:
 1824              	.LFB30:
 851:.\Generated_Source\PSoC4/CyDMA.c **** 
 852:.\Generated_Source\PSoC4/CyDMA.c **** 
 853:.\Generated_Source\PSoC4/CyDMA.c **** /*******************************************************************************
 854:.\Generated_Source\PSoC4/CyDMA.c **** * Function Name: CyDmaGetSrcAddress
 855:.\Generated_Source\PSoC4/CyDMA.c **** ********************************************************************************
 856:.\Generated_Source\PSoC4/CyDMA.c **** *
 857:.\Generated_Source\PSoC4/CyDMA.c **** * Summary:
 858:.\Generated_Source\PSoC4/CyDMA.c **** *  Returns the source address for the specified descriptor, set by 
 859:.\Generated_Source\PSoC4/CyDMA.c **** *  CyDmaSetSrcAddress().
 860:.\Generated_Source\PSoC4/CyDMA.c **** *
 861:.\Generated_Source\PSoC4/CyDMA.c **** * Parameters:
 862:.\Generated_Source\PSoC4/CyDMA.c **** *  channel:    Channel used by this function.
 863:.\Generated_Source\PSoC4/CyDMA.c **** *  descriptor: Specifies descriptor (0 or 1) used by this function.
 864:.\Generated_Source\PSoC4/CyDMA.c **** *                   
 865:.\Generated_Source\PSoC4/CyDMA.c **** * Return:
 866:.\Generated_Source\PSoC4/CyDMA.c **** *  Source address written to specified descriptor.
 867:.\Generated_Source\PSoC4/CyDMA.c **** *
 868:.\Generated_Source\PSoC4/CyDMA.c **** *******************************************************************************/
 869:.\Generated_Source\PSoC4/CyDMA.c **** void * CyDmaGetSrcAddress(int32 channel, int32 descriptor)
 870:.\Generated_Source\PSoC4/CyDMA.c **** {
 1825              		.loc 1 870 0
 1826              		.cfi_startproc
 1827 0000 80B5     		push	{r7, lr}
 1828              		.cfi_def_cfa_offset 8
 1829              		.cfi_offset 7, -8
 1830              		.cfi_offset 14, -4
 1831 0002 82B0     		sub	sp, sp, #8
 1832              		.cfi_def_cfa_offset 16
 1833 0004 00AF     		add	r7, sp, #0
 1834              		.cfi_def_cfa_register 7
 1835 0006 7860     		str	r0, [r7, #4]
 1836 0008 3960     		str	r1, [r7]
 871:.\Generated_Source\PSoC4/CyDMA.c ****     CYASSERT((channel    >= 0) && (channel    < CYDMA_CH_NR));
 1837              		.loc 1 871 0
 1838 000a 7B68     		ldr	r3, [r7, #4]
 1839 000c 002B     		cmp	r3, #0
 1840 000e 04DB     		blt	.L177
 1841              		.loc 1 871 0 is_stmt 0 discriminator 1
 1842 0010 7B68     		ldr	r3, [r7, #4]
 1843 0012 072B     		cmp	r3, #7
 1844 0014 01DC     		bgt	.L177
 1845              		.loc 1 871 0 discriminator 3
 1846 0016 0123     		mov	r3, #1
 1847 0018 00E0     		b	.L178
 1848              	.L177:
 1849              		.loc 1 871 0 discriminator 2
 1850 001a 0023     		mov	r3, #0
 1851              	.L178:
 1852              		.loc 1 871 0 discriminator 4
 1853 001c 002B     		cmp	r3, #0
 1854 001e 02D1     		bne	.L179
 1855              		.loc 1 871 0 discriminator 1
ARM GAS  C:\Users\Matty\AppData\Local\Temp\ccXs7IQl.s 			page 49


 1856 0020 0020     		mov	r0, #0
 1857 0022 FFF7FEFF 		bl	CyHalt
 1858              	.L179:
 872:.\Generated_Source\PSoC4/CyDMA.c ****     CYASSERT((descriptor >= 0) && (descriptor < CYDMA_DESCR_NR));
 1859              		.loc 1 872 0 is_stmt 1
 1860 0026 3B68     		ldr	r3, [r7]
 1861 0028 002B     		cmp	r3, #0
 1862 002a 04DB     		blt	.L180
 1863              		.loc 1 872 0 is_stmt 0 discriminator 1
 1864 002c 3B68     		ldr	r3, [r7]
 1865 002e 012B     		cmp	r3, #1
 1866 0030 01DC     		bgt	.L180
 1867              		.loc 1 872 0 discriminator 3
 1868 0032 0123     		mov	r3, #1
 1869 0034 00E0     		b	.L181
 1870              	.L180:
 1871              		.loc 1 872 0 discriminator 2
 1872 0036 0023     		mov	r3, #0
 1873              	.L181:
 1874              		.loc 1 872 0 discriminator 4
 1875 0038 002B     		cmp	r3, #0
 1876 003a 02D1     		bne	.L182
 1877              		.loc 1 872 0 discriminator 1
 1878 003c 0020     		mov	r0, #0
 1879 003e FFF7FEFF 		bl	CyHalt
 1880              	.L182:
 873:.\Generated_Source\PSoC4/CyDMA.c **** 
 874:.\Generated_Source\PSoC4/CyDMA.c ****     return (CYDMA_DESCR_BASE.descriptor[channel][descriptor].src);
 1881              		.loc 1 874 0 is_stmt 1
 1882 0042 054B     		ldr	r3, .L184
 1883 0044 7A68     		ldr	r2, [r7, #4]
 1884 0046 5100     		lsl	r1, r2, #1
 1885 0048 3A68     		ldr	r2, [r7]
 1886 004a 8A18     		add	r2, r1, r2
 1887 004c 1201     		lsl	r2, r2, #4
 1888 004e D358     		ldr	r3, [r2, r3]
 875:.\Generated_Source\PSoC4/CyDMA.c **** }
 1889              		.loc 1 875 0
 1890 0050 181C     		mov	r0, r3
 1891 0052 BD46     		mov	sp, r7
 1892 0054 02B0     		add	sp, sp, #8
 1893              		@ sp needed
 1894 0056 80BD     		pop	{r7, pc}
 1895              	.L185:
 1896              		.align	2
 1897              	.L184:
 1898 0058 00181040 		.word	1074796544
 1899              		.cfi_endproc
 1900              	.LFE30:
 1901              		.size	CyDmaGetSrcAddress, .-CyDmaGetSrcAddress
 1902              		.section	.text.CyDmaSetDstAddress,"ax",%progbits
 1903              		.align	2
 1904              		.global	CyDmaSetDstAddress
 1905              		.code	16
 1906              		.thumb_func
 1907              		.type	CyDmaSetDstAddress, %function
 1908              	CyDmaSetDstAddress:
ARM GAS  C:\Users\Matty\AppData\Local\Temp\ccXs7IQl.s 			page 50


 1909              	.LFB31:
 876:.\Generated_Source\PSoC4/CyDMA.c **** 
 877:.\Generated_Source\PSoC4/CyDMA.c **** 
 878:.\Generated_Source\PSoC4/CyDMA.c **** /*******************************************************************************
 879:.\Generated_Source\PSoC4/CyDMA.c **** * Function Name: CyDmaSetDstAddress
 880:.\Generated_Source\PSoC4/CyDMA.c **** ********************************************************************************
 881:.\Generated_Source\PSoC4/CyDMA.c **** *
 882:.\Generated_Source\PSoC4/CyDMA.c **** * Summary:
 883:.\Generated_Source\PSoC4/CyDMA.c **** *  Configures the destination address for the specified descriptor.
 884:.\Generated_Source\PSoC4/CyDMA.c **** *
 885:.\Generated_Source\PSoC4/CyDMA.c **** * Parameters:
 886:.\Generated_Source\PSoC4/CyDMA.c **** *  channel:    Channel used by this function.
 887:.\Generated_Source\PSoC4/CyDMA.c **** *  descriptor: Descriptor (0 or 1) modified by this function.
 888:.\Generated_Source\PSoC4/CyDMA.c **** *  dstAddress: Address of DMA transfer destination.
 889:.\Generated_Source\PSoC4/CyDMA.c **** *                   
 890:.\Generated_Source\PSoC4/CyDMA.c **** * Return:
 891:.\Generated_Source\PSoC4/CyDMA.c **** *  None.
 892:.\Generated_Source\PSoC4/CyDMA.c **** *
 893:.\Generated_Source\PSoC4/CyDMA.c **** * Side effect:
 894:.\Generated_Source\PSoC4/CyDMA.c **** *  This function should not be called when the specified descriptor is active
 895:.\Generated_Source\PSoC4/CyDMA.c **** *  in the DMA transfer engine. This can be checked by calling CyDmaGetStatus(). 
 896:.\Generated_Source\PSoC4/CyDMA.c **** *
 897:.\Generated_Source\PSoC4/CyDMA.c **** *******************************************************************************/
 898:.\Generated_Source\PSoC4/CyDMA.c **** void CyDmaSetDstAddress(int32 channel, int32 descriptor, void * dstAddress)
 899:.\Generated_Source\PSoC4/CyDMA.c **** {
 1910              		.loc 1 899 0
 1911              		.cfi_startproc
 1912 0000 80B5     		push	{r7, lr}
 1913              		.cfi_def_cfa_offset 8
 1914              		.cfi_offset 7, -8
 1915              		.cfi_offset 14, -4
 1916 0002 84B0     		sub	sp, sp, #16
 1917              		.cfi_def_cfa_offset 24
 1918 0004 00AF     		add	r7, sp, #0
 1919              		.cfi_def_cfa_register 7
 1920 0006 F860     		str	r0, [r7, #12]
 1921 0008 B960     		str	r1, [r7, #8]
 1922 000a 7A60     		str	r2, [r7, #4]
 900:.\Generated_Source\PSoC4/CyDMA.c ****     CYASSERT((channel    >= 0) && (channel    < CYDMA_CH_NR));
 1923              		.loc 1 900 0
 1924 000c FB68     		ldr	r3, [r7, #12]
 1925 000e 002B     		cmp	r3, #0
 1926 0010 04DB     		blt	.L187
 1927              		.loc 1 900 0 is_stmt 0 discriminator 1
 1928 0012 FB68     		ldr	r3, [r7, #12]
 1929 0014 072B     		cmp	r3, #7
 1930 0016 01DC     		bgt	.L187
 1931              		.loc 1 900 0 discriminator 3
 1932 0018 0123     		mov	r3, #1
 1933 001a 00E0     		b	.L188
 1934              	.L187:
 1935              		.loc 1 900 0 discriminator 2
 1936 001c 0023     		mov	r3, #0
 1937              	.L188:
 1938              		.loc 1 900 0 discriminator 4
 1939 001e 002B     		cmp	r3, #0
 1940 0020 02D1     		bne	.L189
ARM GAS  C:\Users\Matty\AppData\Local\Temp\ccXs7IQl.s 			page 51


 1941              		.loc 1 900 0 discriminator 1
 1942 0022 0020     		mov	r0, #0
 1943 0024 FFF7FEFF 		bl	CyHalt
 1944              	.L189:
 901:.\Generated_Source\PSoC4/CyDMA.c ****     CYASSERT((descriptor >= 0) && (descriptor < CYDMA_DESCR_NR));
 1945              		.loc 1 901 0 is_stmt 1
 1946 0028 BB68     		ldr	r3, [r7, #8]
 1947 002a 002B     		cmp	r3, #0
 1948 002c 04DB     		blt	.L190
 1949              		.loc 1 901 0 is_stmt 0 discriminator 1
 1950 002e BB68     		ldr	r3, [r7, #8]
 1951 0030 012B     		cmp	r3, #1
 1952 0032 01DC     		bgt	.L190
 1953              		.loc 1 901 0 discriminator 3
 1954 0034 0123     		mov	r3, #1
 1955 0036 00E0     		b	.L191
 1956              	.L190:
 1957              		.loc 1 901 0 discriminator 2
 1958 0038 0023     		mov	r3, #0
 1959              	.L191:
 1960              		.loc 1 901 0 discriminator 4
 1961 003a 002B     		cmp	r3, #0
 1962 003c 02D1     		bne	.L192
 1963              		.loc 1 901 0 discriminator 1
 1964 003e 0020     		mov	r0, #0
 1965 0040 FFF7FEFF 		bl	CyHalt
 1966              	.L192:
 902:.\Generated_Source\PSoC4/CyDMA.c **** 
 903:.\Generated_Source\PSoC4/CyDMA.c ****     CYDMA_DESCR_BASE.descriptor[channel][descriptor].dst = dstAddress;
 1967              		.loc 1 903 0 is_stmt 1
 1968 0044 054A     		ldr	r2, .L193
 1969 0046 FB68     		ldr	r3, [r7, #12]
 1970 0048 5900     		lsl	r1, r3, #1
 1971 004a BB68     		ldr	r3, [r7, #8]
 1972 004c CB18     		add	r3, r1, r3
 1973 004e 1B01     		lsl	r3, r3, #4
 1974 0050 D318     		add	r3, r2, r3
 1975 0052 7A68     		ldr	r2, [r7, #4]
 1976 0054 5A60     		str	r2, [r3, #4]
 904:.\Generated_Source\PSoC4/CyDMA.c **** }
 1977              		.loc 1 904 0
 1978 0056 BD46     		mov	sp, r7
 1979 0058 04B0     		add	sp, sp, #16
 1980              		@ sp needed
 1981 005a 80BD     		pop	{r7, pc}
 1982              	.L194:
 1983              		.align	2
 1984              	.L193:
 1985 005c 00181040 		.word	1074796544
 1986              		.cfi_endproc
 1987              	.LFE31:
 1988              		.size	CyDmaSetDstAddress, .-CyDmaSetDstAddress
 1989              		.section	.text.CyDmaGetDstAddress,"ax",%progbits
 1990              		.align	2
 1991              		.global	CyDmaGetDstAddress
 1992              		.code	16
 1993              		.thumb_func
ARM GAS  C:\Users\Matty\AppData\Local\Temp\ccXs7IQl.s 			page 52


 1994              		.type	CyDmaGetDstAddress, %function
 1995              	CyDmaGetDstAddress:
 1996              	.LFB32:
 905:.\Generated_Source\PSoC4/CyDMA.c **** 
 906:.\Generated_Source\PSoC4/CyDMA.c **** 
 907:.\Generated_Source\PSoC4/CyDMA.c **** /*******************************************************************************
 908:.\Generated_Source\PSoC4/CyDMA.c **** * Function Name: CyDmaGetDstAddress
 909:.\Generated_Source\PSoC4/CyDMA.c **** ********************************************************************************
 910:.\Generated_Source\PSoC4/CyDMA.c **** *
 911:.\Generated_Source\PSoC4/CyDMA.c **** * Summary:
 912:.\Generated_Source\PSoC4/CyDMA.c **** *  Returns the destination address for the specified descriptor, set by 
 913:.\Generated_Source\PSoC4/CyDMA.c **** *  CyDmaSetDstAddress().
 914:.\Generated_Source\PSoC4/CyDMA.c **** *
 915:.\Generated_Source\PSoC4/CyDMA.c **** * Parameters:
 916:.\Generated_Source\PSoC4/CyDMA.c **** *  channel:    Channel used by this function.
 917:.\Generated_Source\PSoC4/CyDMA.c **** *  descriptor: Specifies descriptor (0 or 1) used by this function.
 918:.\Generated_Source\PSoC4/CyDMA.c **** *                   
 919:.\Generated_Source\PSoC4/CyDMA.c **** * Return:
 920:.\Generated_Source\PSoC4/CyDMA.c **** *  Destination address written to specified descriptor.
 921:.\Generated_Source\PSoC4/CyDMA.c **** *
 922:.\Generated_Source\PSoC4/CyDMA.c **** *******************************************************************************/
 923:.\Generated_Source\PSoC4/CyDMA.c **** void * CyDmaGetDstAddress(int32 channel, int32 descriptor)
 924:.\Generated_Source\PSoC4/CyDMA.c **** {
 1997              		.loc 1 924 0
 1998              		.cfi_startproc
 1999 0000 80B5     		push	{r7, lr}
 2000              		.cfi_def_cfa_offset 8
 2001              		.cfi_offset 7, -8
 2002              		.cfi_offset 14, -4
 2003 0002 82B0     		sub	sp, sp, #8
 2004              		.cfi_def_cfa_offset 16
 2005 0004 00AF     		add	r7, sp, #0
 2006              		.cfi_def_cfa_register 7
 2007 0006 7860     		str	r0, [r7, #4]
 2008 0008 3960     		str	r1, [r7]
 925:.\Generated_Source\PSoC4/CyDMA.c ****     CYASSERT((channel    >= 0) && (channel    < CYDMA_CH_NR));
 2009              		.loc 1 925 0
 2010 000a 7B68     		ldr	r3, [r7, #4]
 2011 000c 002B     		cmp	r3, #0
 2012 000e 04DB     		blt	.L196
 2013              		.loc 1 925 0 is_stmt 0 discriminator 1
 2014 0010 7B68     		ldr	r3, [r7, #4]
 2015 0012 072B     		cmp	r3, #7
 2016 0014 01DC     		bgt	.L196
 2017              		.loc 1 925 0 discriminator 3
 2018 0016 0123     		mov	r3, #1
 2019 0018 00E0     		b	.L197
 2020              	.L196:
 2021              		.loc 1 925 0 discriminator 2
 2022 001a 0023     		mov	r3, #0
 2023              	.L197:
 2024              		.loc 1 925 0 discriminator 4
 2025 001c 002B     		cmp	r3, #0
 2026 001e 02D1     		bne	.L198
 2027              		.loc 1 925 0 discriminator 1
 2028 0020 0020     		mov	r0, #0
 2029 0022 FFF7FEFF 		bl	CyHalt
ARM GAS  C:\Users\Matty\AppData\Local\Temp\ccXs7IQl.s 			page 53


 2030              	.L198:
 926:.\Generated_Source\PSoC4/CyDMA.c ****     CYASSERT((descriptor >= 0) && (descriptor < CYDMA_DESCR_NR));
 2031              		.loc 1 926 0 is_stmt 1
 2032 0026 3B68     		ldr	r3, [r7]
 2033 0028 002B     		cmp	r3, #0
 2034 002a 04DB     		blt	.L199
 2035              		.loc 1 926 0 is_stmt 0 discriminator 1
 2036 002c 3B68     		ldr	r3, [r7]
 2037 002e 012B     		cmp	r3, #1
 2038 0030 01DC     		bgt	.L199
 2039              		.loc 1 926 0 discriminator 3
 2040 0032 0123     		mov	r3, #1
 2041 0034 00E0     		b	.L200
 2042              	.L199:
 2043              		.loc 1 926 0 discriminator 2
 2044 0036 0023     		mov	r3, #0
 2045              	.L200:
 2046              		.loc 1 926 0 discriminator 4
 2047 0038 002B     		cmp	r3, #0
 2048 003a 02D1     		bne	.L201
 2049              		.loc 1 926 0 discriminator 1
 2050 003c 0020     		mov	r0, #0
 2051 003e FFF7FEFF 		bl	CyHalt
 2052              	.L201:
 927:.\Generated_Source\PSoC4/CyDMA.c **** 
 928:.\Generated_Source\PSoC4/CyDMA.c ****     return (CYDMA_DESCR_BASE.descriptor[channel][descriptor].dst);
 2053              		.loc 1 928 0 is_stmt 1
 2054 0042 064A     		ldr	r2, .L203
 2055 0044 7B68     		ldr	r3, [r7, #4]
 2056 0046 5900     		lsl	r1, r3, #1
 2057 0048 3B68     		ldr	r3, [r7]
 2058 004a CB18     		add	r3, r1, r3
 2059 004c 1B01     		lsl	r3, r3, #4
 2060 004e D318     		add	r3, r2, r3
 2061 0050 5B68     		ldr	r3, [r3, #4]
 929:.\Generated_Source\PSoC4/CyDMA.c **** }
 2062              		.loc 1 929 0
 2063 0052 181C     		mov	r0, r3
 2064 0054 BD46     		mov	sp, r7
 2065 0056 02B0     		add	sp, sp, #8
 2066              		@ sp needed
 2067 0058 80BD     		pop	{r7, pc}
 2068              	.L204:
 2069 005a C046     		.align	2
 2070              	.L203:
 2071 005c 00181040 		.word	1074796544
 2072              		.cfi_endproc
 2073              	.LFE32:
 2074              		.size	CyDmaGetDstAddress, .-CyDmaGetDstAddress
 2075              		.section	.text.CyDmaSetDataElementSize,"ax",%progbits
 2076              		.align	2
 2077              		.global	CyDmaSetDataElementSize
 2078              		.code	16
 2079              		.thumb_func
 2080              		.type	CyDmaSetDataElementSize, %function
 2081              	CyDmaSetDataElementSize:
 2082              	.LFB33:
ARM GAS  C:\Users\Matty\AppData\Local\Temp\ccXs7IQl.s 			page 54


 930:.\Generated_Source\PSoC4/CyDMA.c **** 
 931:.\Generated_Source\PSoC4/CyDMA.c **** /*******************************************************************************
 932:.\Generated_Source\PSoC4/CyDMA.c **** * Function Name: CyDmaSetDataElementSize
 933:.\Generated_Source\PSoC4/CyDMA.c **** ********************************************************************************
 934:.\Generated_Source\PSoC4/CyDMA.c **** *
 935:.\Generated_Source\PSoC4/CyDMA.c **** * Summary:
 936:.\Generated_Source\PSoC4/CyDMA.c **** *  Sets the data element size for the specified descriptor.
 937:.\Generated_Source\PSoC4/CyDMA.c **** *
 938:.\Generated_Source\PSoC4/CyDMA.c **** * Parameters:
 939:.\Generated_Source\PSoC4/CyDMA.c **** *  channel:         Channel used by this function.
 940:.\Generated_Source\PSoC4/CyDMA.c **** *  descriptor:      Descriptor (0 or 1) modified by this function.
 941:.\Generated_Source\PSoC4/CyDMA.c **** *  dataElementSize: Specifies the size of the data element. The DMA transfer
 942:.\Generated_Source\PSoC4/CyDMA.c **** *                   engine transfers one data element at a time. How these
 943:.\Generated_Source\PSoC4/CyDMA.c **** *                   transfers occur is controlled by the transfer mode.
 944:.\Generated_Source\PSoC4/CyDMA.c **** *                   Refer to the API bit field definitions in CyDMA_P4.h
 945:.\Generated_Source\PSoC4/CyDMA.c **** *                   or API description in the DMA channel datasheet for the 
 946:.\Generated_Source\PSoC4/CyDMA.c **** *                   parameter options.
 947:.\Generated_Source\PSoC4/CyDMA.c **** *
 948:.\Generated_Source\PSoC4/CyDMA.c **** * Return:
 949:.\Generated_Source\PSoC4/CyDMA.c **** *  None.
 950:.\Generated_Source\PSoC4/CyDMA.c **** *
 951:.\Generated_Source\PSoC4/CyDMA.c **** * Side effect:
 952:.\Generated_Source\PSoC4/CyDMA.c **** *  This function should not be called when the specified descriptor is active
 953:.\Generated_Source\PSoC4/CyDMA.c **** *  in the DMA transfer engine. This can be checked by calling CyDmaGetStatus(). 
 954:.\Generated_Source\PSoC4/CyDMA.c **** *
 955:.\Generated_Source\PSoC4/CyDMA.c **** *******************************************************************************/
 956:.\Generated_Source\PSoC4/CyDMA.c **** void CyDmaSetDataElementSize(int32 channel, int32 descriptor, uint32 dataElementSize)
 957:.\Generated_Source\PSoC4/CyDMA.c **** {
 2083              		.loc 1 957 0
 2084              		.cfi_startproc
 2085 0000 80B5     		push	{r7, lr}
 2086              		.cfi_def_cfa_offset 8
 2087              		.cfi_offset 7, -8
 2088              		.cfi_offset 14, -4
 2089 0002 86B0     		sub	sp, sp, #24
 2090              		.cfi_def_cfa_offset 32
 2091 0004 00AF     		add	r7, sp, #0
 2092              		.cfi_def_cfa_register 7
 2093 0006 F860     		str	r0, [r7, #12]
 2094 0008 B960     		str	r1, [r7, #8]
 2095 000a 7A60     		str	r2, [r7, #4]
 958:.\Generated_Source\PSoC4/CyDMA.c ****     uint32 regValue;
 959:.\Generated_Source\PSoC4/CyDMA.c ****     
 960:.\Generated_Source\PSoC4/CyDMA.c ****     CYASSERT((channel    >= 0) && (channel    < CYDMA_CH_NR));
 2096              		.loc 1 960 0
 2097 000c FB68     		ldr	r3, [r7, #12]
 2098 000e 002B     		cmp	r3, #0
 2099 0010 04DB     		blt	.L206
 2100              		.loc 1 960 0 is_stmt 0 discriminator 1
 2101 0012 FB68     		ldr	r3, [r7, #12]
 2102 0014 072B     		cmp	r3, #7
 2103 0016 01DC     		bgt	.L206
 2104              		.loc 1 960 0 discriminator 3
 2105 0018 0123     		mov	r3, #1
 2106 001a 00E0     		b	.L207
 2107              	.L206:
 2108              		.loc 1 960 0 discriminator 2
ARM GAS  C:\Users\Matty\AppData\Local\Temp\ccXs7IQl.s 			page 55


 2109 001c 0023     		mov	r3, #0
 2110              	.L207:
 2111              		.loc 1 960 0 discriminator 4
 2112 001e 002B     		cmp	r3, #0
 2113 0020 02D1     		bne	.L208
 2114              		.loc 1 960 0 discriminator 1
 2115 0022 0020     		mov	r0, #0
 2116 0024 FFF7FEFF 		bl	CyHalt
 2117              	.L208:
 961:.\Generated_Source\PSoC4/CyDMA.c ****     CYASSERT((descriptor >= 0) && (descriptor < CYDMA_DESCR_NR));
 2118              		.loc 1 961 0 is_stmt 1
 2119 0028 BB68     		ldr	r3, [r7, #8]
 2120 002a 002B     		cmp	r3, #0
 2121 002c 04DB     		blt	.L209
 2122              		.loc 1 961 0 is_stmt 0 discriminator 1
 2123 002e BB68     		ldr	r3, [r7, #8]
 2124 0030 012B     		cmp	r3, #1
 2125 0032 01DC     		bgt	.L209
 2126              		.loc 1 961 0 discriminator 3
 2127 0034 0123     		mov	r3, #1
 2128 0036 00E0     		b	.L210
 2129              	.L209:
 2130              		.loc 1 961 0 discriminator 2
 2131 0038 0023     		mov	r3, #0
 2132              	.L210:
 2133              		.loc 1 961 0 discriminator 4
 2134 003a 002B     		cmp	r3, #0
 2135 003c 02D1     		bne	.L211
 2136              		.loc 1 961 0 discriminator 1
 2137 003e 0020     		mov	r0, #0
 2138 0040 FFF7FEFF 		bl	CyHalt
 2139              	.L211:
 962:.\Generated_Source\PSoC4/CyDMA.c ****     CYASSERT(0u == (dataElementSize & (uint32)~CYDMA_DATA_SIZE));
 2140              		.loc 1 962 0 is_stmt 1
 2141 0044 7A68     		ldr	r2, [r7, #4]
 2142 0046 104B     		ldr	r3, .L213
 2143 0048 1340     		and	r3, r2
 2144 004a 02D0     		beq	.L212
 2145              		.loc 1 962 0 is_stmt 0 discriminator 1
 2146 004c 0020     		mov	r0, #0
 2147 004e FFF7FEFF 		bl	CyHalt
 2148              	.L212:
 963:.\Generated_Source\PSoC4/CyDMA.c **** 
 964:.\Generated_Source\PSoC4/CyDMA.c ****     regValue = CYDMA_DESCR_BASE.descriptor[channel][descriptor].ctl & (uint32)~CYDMA_DATA_SIZE;
 2149              		.loc 1 964 0 is_stmt 1
 2150 0052 0E4A     		ldr	r2, .L213+4
 2151 0054 FB68     		ldr	r3, [r7, #12]
 2152 0056 5900     		lsl	r1, r3, #1
 2153 0058 BB68     		ldr	r3, [r7, #8]
 2154 005a CB18     		add	r3, r1, r3
 2155 005c 1B01     		lsl	r3, r3, #4
 2156 005e D318     		add	r3, r2, r3
 2157 0060 0833     		add	r3, r3, #8
 2158 0062 1A68     		ldr	r2, [r3]
 2159 0064 084B     		ldr	r3, .L213
 2160 0066 1340     		and	r3, r2
 2161 0068 7B61     		str	r3, [r7, #20]
ARM GAS  C:\Users\Matty\AppData\Local\Temp\ccXs7IQl.s 			page 56


 965:.\Generated_Source\PSoC4/CyDMA.c ****     CYDMA_DESCR_BASE.descriptor[channel][descriptor].ctl = regValue | dataElementSize;
 2162              		.loc 1 965 0
 2163 006a 0849     		ldr	r1, .L213+4
 2164 006c 7A69     		ldr	r2, [r7, #20]
 2165 006e 7B68     		ldr	r3, [r7, #4]
 2166 0070 1A43     		orr	r2, r3
 2167 0072 FB68     		ldr	r3, [r7, #12]
 2168 0074 5800     		lsl	r0, r3, #1
 2169 0076 BB68     		ldr	r3, [r7, #8]
 2170 0078 C318     		add	r3, r0, r3
 2171 007a 1B01     		lsl	r3, r3, #4
 2172 007c CB18     		add	r3, r1, r3
 2173 007e 0833     		add	r3, r3, #8
 2174 0080 1A60     		str	r2, [r3]
 966:.\Generated_Source\PSoC4/CyDMA.c **** }
 2175              		.loc 1 966 0
 2176 0082 BD46     		mov	sp, r7
 2177 0084 06B0     		add	sp, sp, #24
 2178              		@ sp needed
 2179 0086 80BD     		pop	{r7, pc}
 2180              	.L214:
 2181              		.align	2
 2182              	.L213:
 2183 0088 FFFFFCFF 		.word	-196609
 2184 008c 00181040 		.word	1074796544
 2185              		.cfi_endproc
 2186              	.LFE33:
 2187              		.size	CyDmaSetDataElementSize, .-CyDmaSetDataElementSize
 2188              		.section	.text.CyDmaGetDataElementSize,"ax",%progbits
 2189              		.align	2
 2190              		.global	CyDmaGetDataElementSize
 2191              		.code	16
 2192              		.thumb_func
 2193              		.type	CyDmaGetDataElementSize, %function
 2194              	CyDmaGetDataElementSize:
 2195              	.LFB34:
 967:.\Generated_Source\PSoC4/CyDMA.c **** 
 968:.\Generated_Source\PSoC4/CyDMA.c **** 
 969:.\Generated_Source\PSoC4/CyDMA.c **** /*******************************************************************************
 970:.\Generated_Source\PSoC4/CyDMA.c **** * Function Name: CyDmaGetDataElementSize
 971:.\Generated_Source\PSoC4/CyDMA.c **** ********************************************************************************
 972:.\Generated_Source\PSoC4/CyDMA.c **** *
 973:.\Generated_Source\PSoC4/CyDMA.c **** * Summary:
 974:.\Generated_Source\PSoC4/CyDMA.c **** *  Returns the data element size configured for the specified descriptor, set by
 975:.\Generated_Source\PSoC4/CyDMA.c **** *  CyDmaSetDataElementSize() or CyDmaSetConfiguration.
 976:.\Generated_Source\PSoC4/CyDMA.c **** *
 977:.\Generated_Source\PSoC4/CyDMA.c **** * Parameters:
 978:.\Generated_Source\PSoC4/CyDMA.c **** *  channel:    Channel used by this function.
 979:.\Generated_Source\PSoC4/CyDMA.c **** *  descriptor: Descriptor (0 or 1) modified by this function.
 980:.\Generated_Source\PSoC4/CyDMA.c **** *                   
 981:.\Generated_Source\PSoC4/CyDMA.c **** * Return:
 982:.\Generated_Source\PSoC4/CyDMA.c **** *  The size of the data element. The DMA transfer engine transfers one data
 983:.\Generated_Source\PSoC4/CyDMA.c **** *  element at a time. How these transfers occur is controlled by the transfer
 984:.\Generated_Source\PSoC4/CyDMA.c **** *  mode. Refer to the API bit field definitions in CyDMA_P4.h or the API 
 985:.\Generated_Source\PSoC4/CyDMA.c **** *  description in the DMA channel datasheet for more information.
 986:.\Generated_Source\PSoC4/CyDMA.c **** *
 987:.\Generated_Source\PSoC4/CyDMA.c **** * Note:
ARM GAS  C:\Users\Matty\AppData\Local\Temp\ccXs7IQl.s 			page 57


 988:.\Generated_Source\PSoC4/CyDMA.c **** *  The size of the source and destination can be configured to use the
 989:.\Generated_Source\PSoC4/CyDMA.c **** *  data element size, or a Word, this is set in CyDmaSetSrcDstTransferWidth().
 990:.\Generated_Source\PSoC4/CyDMA.c **** *
 991:.\Generated_Source\PSoC4/CyDMA.c **** *******************************************************************************/
 992:.\Generated_Source\PSoC4/CyDMA.c **** uint32 CyDmaGetDataElementSize(int32 channel, int32 descriptor)
 993:.\Generated_Source\PSoC4/CyDMA.c **** {
 2196              		.loc 1 993 0
 2197              		.cfi_startproc
 2198 0000 80B5     		push	{r7, lr}
 2199              		.cfi_def_cfa_offset 8
 2200              		.cfi_offset 7, -8
 2201              		.cfi_offset 14, -4
 2202 0002 82B0     		sub	sp, sp, #8
 2203              		.cfi_def_cfa_offset 16
 2204 0004 00AF     		add	r7, sp, #0
 2205              		.cfi_def_cfa_register 7
 2206 0006 7860     		str	r0, [r7, #4]
 2207 0008 3960     		str	r1, [r7]
 994:.\Generated_Source\PSoC4/CyDMA.c ****     CYASSERT((channel    >= 0) && (channel    < CYDMA_CH_NR));
 2208              		.loc 1 994 0
 2209 000a 7B68     		ldr	r3, [r7, #4]
 2210 000c 002B     		cmp	r3, #0
 2211 000e 04DB     		blt	.L216
 2212              		.loc 1 994 0 is_stmt 0 discriminator 1
 2213 0010 7B68     		ldr	r3, [r7, #4]
 2214 0012 072B     		cmp	r3, #7
 2215 0014 01DC     		bgt	.L216
 2216              		.loc 1 994 0 discriminator 3
 2217 0016 0123     		mov	r3, #1
 2218 0018 00E0     		b	.L217
 2219              	.L216:
 2220              		.loc 1 994 0 discriminator 2
 2221 001a 0023     		mov	r3, #0
 2222              	.L217:
 2223              		.loc 1 994 0 discriminator 4
 2224 001c 002B     		cmp	r3, #0
 2225 001e 02D1     		bne	.L218
 2226              		.loc 1 994 0 discriminator 1
 2227 0020 0020     		mov	r0, #0
 2228 0022 FFF7FEFF 		bl	CyHalt
 2229              	.L218:
 995:.\Generated_Source\PSoC4/CyDMA.c ****     CYASSERT((descriptor >= 0) && (descriptor < CYDMA_DESCR_NR));
 2230              		.loc 1 995 0 is_stmt 1
 2231 0026 3B68     		ldr	r3, [r7]
 2232 0028 002B     		cmp	r3, #0
 2233 002a 04DB     		blt	.L219
 2234              		.loc 1 995 0 is_stmt 0 discriminator 1
 2235 002c 3B68     		ldr	r3, [r7]
 2236 002e 012B     		cmp	r3, #1
 2237 0030 01DC     		bgt	.L219
 2238              		.loc 1 995 0 discriminator 3
 2239 0032 0123     		mov	r3, #1
 2240 0034 00E0     		b	.L220
 2241              	.L219:
 2242              		.loc 1 995 0 discriminator 2
 2243 0036 0023     		mov	r3, #0
 2244              	.L220:
ARM GAS  C:\Users\Matty\AppData\Local\Temp\ccXs7IQl.s 			page 58


 2245              		.loc 1 995 0 discriminator 4
 2246 0038 002B     		cmp	r3, #0
 2247 003a 02D1     		bne	.L221
 2248              		.loc 1 995 0 discriminator 1
 2249 003c 0020     		mov	r0, #0
 2250 003e FFF7FEFF 		bl	CyHalt
 2251              	.L221:
 996:.\Generated_Source\PSoC4/CyDMA.c **** 
 997:.\Generated_Source\PSoC4/CyDMA.c ****     return (CYDMA_DESCR_BASE.descriptor[channel][descriptor].ctl & CYDMA_DATA_SIZE);
 2252              		.loc 1 997 0 is_stmt 1
 2253 0042 084A     		ldr	r2, .L223
 2254 0044 7B68     		ldr	r3, [r7, #4]
 2255 0046 5900     		lsl	r1, r3, #1
 2256 0048 3B68     		ldr	r3, [r7]
 2257 004a CB18     		add	r3, r1, r3
 2258 004c 1B01     		lsl	r3, r3, #4
 2259 004e D318     		add	r3, r2, r3
 2260 0050 0833     		add	r3, r3, #8
 2261 0052 1A68     		ldr	r2, [r3]
 2262 0054 C023     		mov	r3, #192
 2263 0056 9B02     		lsl	r3, r3, #10
 2264 0058 1340     		and	r3, r2
 998:.\Generated_Source\PSoC4/CyDMA.c **** }
 2265              		.loc 1 998 0
 2266 005a 181C     		mov	r0, r3
 2267 005c BD46     		mov	sp, r7
 2268 005e 02B0     		add	sp, sp, #8
 2269              		@ sp needed
 2270 0060 80BD     		pop	{r7, pc}
 2271              	.L224:
 2272 0062 C046     		.align	2
 2273              	.L223:
 2274 0064 00181040 		.word	1074796544
 2275              		.cfi_endproc
 2276              	.LFE34:
 2277              		.size	CyDmaGetDataElementSize, .-CyDmaGetDataElementSize
 2278              		.section	.text.CyDmaSetNumDataElements,"ax",%progbits
 2279              		.align	2
 2280              		.global	CyDmaSetNumDataElements
 2281              		.code	16
 2282              		.thumb_func
 2283              		.type	CyDmaSetNumDataElements, %function
 2284              	CyDmaSetNumDataElements:
 2285              	.LFB35:
 999:.\Generated_Source\PSoC4/CyDMA.c **** 
1000:.\Generated_Source\PSoC4/CyDMA.c **** 
1001:.\Generated_Source\PSoC4/CyDMA.c **** /*******************************************************************************
1002:.\Generated_Source\PSoC4/CyDMA.c **** * Function Name: CyDmaSetNumDataElements
1003:.\Generated_Source\PSoC4/CyDMA.c **** ********************************************************************************
1004:.\Generated_Source\PSoC4/CyDMA.c **** *
1005:.\Generated_Source\PSoC4/CyDMA.c **** * Summary:
1006:.\Generated_Source\PSoC4/CyDMA.c **** *  Sets the number of data elements to transfer for specified descriptor.
1007:.\Generated_Source\PSoC4/CyDMA.c **** *
1008:.\Generated_Source\PSoC4/CyDMA.c **** * Parameters:
1009:.\Generated_Source\PSoC4/CyDMA.c **** *  channel:         Channel used by this function.
1010:.\Generated_Source\PSoC4/CyDMA.c **** *  descriptor:      Descriptor (0 or 1) modified by this function.
1011:.\Generated_Source\PSoC4/CyDMA.c **** *  numDataElements: Total number of data elements this descriptor transfers.
ARM GAS  C:\Users\Matty\AppData\Local\Temp\ccXs7IQl.s 			page 59


1012:.\Generated_Source\PSoC4/CyDMA.c **** *                   Valid ranges are 1 to 65536.
1013:.\Generated_Source\PSoC4/CyDMA.c **** *                   
1014:.\Generated_Source\PSoC4/CyDMA.c **** * Return:
1015:.\Generated_Source\PSoC4/CyDMA.c **** *  None.
1016:.\Generated_Source\PSoC4/CyDMA.c **** *
1017:.\Generated_Source\PSoC4/CyDMA.c **** * Side effect:
1018:.\Generated_Source\PSoC4/CyDMA.c **** *  This function should not be called when the specified descriptor is active
1019:.\Generated_Source\PSoC4/CyDMA.c **** *  in the DMA transfer engine. This can be checked by calling CyDmaGetStatus(). 
1020:.\Generated_Source\PSoC4/CyDMA.c **** *
1021:.\Generated_Source\PSoC4/CyDMA.c **** *******************************************************************************/
1022:.\Generated_Source\PSoC4/CyDMA.c **** void CyDmaSetNumDataElements(int32 channel, int32 descriptor, int32 numDataElements)
1023:.\Generated_Source\PSoC4/CyDMA.c **** {
 2286              		.loc 1 1023 0
 2287              		.cfi_startproc
 2288 0000 80B5     		push	{r7, lr}
 2289              		.cfi_def_cfa_offset 8
 2290              		.cfi_offset 7, -8
 2291              		.cfi_offset 14, -4
 2292 0002 86B0     		sub	sp, sp, #24
 2293              		.cfi_def_cfa_offset 32
 2294 0004 00AF     		add	r7, sp, #0
 2295              		.cfi_def_cfa_register 7
 2296 0006 F860     		str	r0, [r7, #12]
 2297 0008 B960     		str	r1, [r7, #8]
 2298 000a 7A60     		str	r2, [r7, #4]
1024:.\Generated_Source\PSoC4/CyDMA.c ****     uint32 regValue;
1025:.\Generated_Source\PSoC4/CyDMA.c ****     
1026:.\Generated_Source\PSoC4/CyDMA.c ****     CYASSERT((channel        >= 0) && (channel         <  CYDMA_CH_NR));
 2299              		.loc 1 1026 0
 2300 000c FB68     		ldr	r3, [r7, #12]
 2301 000e 002B     		cmp	r3, #0
 2302 0010 04DB     		blt	.L226
 2303              		.loc 1 1026 0 is_stmt 0 discriminator 1
 2304 0012 FB68     		ldr	r3, [r7, #12]
 2305 0014 072B     		cmp	r3, #7
 2306 0016 01DC     		bgt	.L226
 2307              		.loc 1 1026 0 discriminator 3
 2308 0018 0123     		mov	r3, #1
 2309 001a 00E0     		b	.L227
 2310              	.L226:
 2311              		.loc 1 1026 0 discriminator 2
 2312 001c 0023     		mov	r3, #0
 2313              	.L227:
 2314              		.loc 1 1026 0 discriminator 4
 2315 001e 002B     		cmp	r3, #0
 2316 0020 02D1     		bne	.L228
 2317              		.loc 1 1026 0 discriminator 1
 2318 0022 0020     		mov	r0, #0
 2319 0024 FFF7FEFF 		bl	CyHalt
 2320              	.L228:
1027:.\Generated_Source\PSoC4/CyDMA.c ****     CYASSERT((descriptor     >= 0) && (descriptor      <  CYDMA_DESCR_NR));
 2321              		.loc 1 1027 0 is_stmt 1
 2322 0028 BB68     		ldr	r3, [r7, #8]
 2323 002a 002B     		cmp	r3, #0
 2324 002c 04DB     		blt	.L229
 2325              		.loc 1 1027 0 is_stmt 0 discriminator 1
 2326 002e BB68     		ldr	r3, [r7, #8]
ARM GAS  C:\Users\Matty\AppData\Local\Temp\ccXs7IQl.s 			page 60


 2327 0030 012B     		cmp	r3, #1
 2328 0032 01DC     		bgt	.L229
 2329              		.loc 1 1027 0 discriminator 3
 2330 0034 0123     		mov	r3, #1
 2331 0036 00E0     		b	.L230
 2332              	.L229:
 2333              		.loc 1 1027 0 discriminator 2
 2334 0038 0023     		mov	r3, #0
 2335              	.L230:
 2336              		.loc 1 1027 0 discriminator 4
 2337 003a 002B     		cmp	r3, #0
 2338 003c 02D1     		bne	.L231
 2339              		.loc 1 1027 0 discriminator 1
 2340 003e 0020     		mov	r0, #0
 2341 0040 FFF7FEFF 		bl	CyHalt
 2342              	.L231:
1028:.\Generated_Source\PSoC4/CyDMA.c ****     CYASSERT((numDataElements > 0) && (numDataElements <= CYDMA_MAX_DATA_NR));
 2343              		.loc 1 1028 0 is_stmt 1
 2344 0044 7B68     		ldr	r3, [r7, #4]
 2345 0046 002B     		cmp	r3, #0
 2346 0048 06DD     		ble	.L232
 2347              		.loc 1 1028 0 is_stmt 0 discriminator 1
 2348 004a 7A68     		ldr	r2, [r7, #4]
 2349 004c 8023     		mov	r3, #128
 2350 004e 5B02     		lsl	r3, r3, #9
 2351 0050 9A42     		cmp	r2, r3
 2352 0052 01DC     		bgt	.L232
 2353              		.loc 1 1028 0 discriminator 3
 2354 0054 0123     		mov	r3, #1
 2355 0056 00E0     		b	.L233
 2356              	.L232:
 2357              		.loc 1 1028 0 discriminator 2
 2358 0058 0023     		mov	r3, #0
 2359              	.L233:
 2360              		.loc 1 1028 0 discriminator 4
 2361 005a 002B     		cmp	r3, #0
 2362 005c 02D1     		bne	.L234
 2363              		.loc 1 1028 0 discriminator 1
 2364 005e 0020     		mov	r0, #0
 2365 0060 FFF7FEFF 		bl	CyHalt
 2366              	.L234:
1029:.\Generated_Source\PSoC4/CyDMA.c ****     
1030:.\Generated_Source\PSoC4/CyDMA.c ****     --numDataElements;
 2367              		.loc 1 1030 0 is_stmt 1
 2368 0064 7B68     		ldr	r3, [r7, #4]
 2369 0066 013B     		sub	r3, r3, #1
 2370 0068 7B60     		str	r3, [r7, #4]
1031:.\Generated_Source\PSoC4/CyDMA.c ****     regValue = CYDMA_DESCR_BASE.descriptor[channel][descriptor].ctl & (uint32)~CYDMA_DATA_NR;
 2371              		.loc 1 1031 0
 2372 006a 0D4A     		ldr	r2, .L235
 2373 006c FB68     		ldr	r3, [r7, #12]
 2374 006e 5900     		lsl	r1, r3, #1
 2375 0070 BB68     		ldr	r3, [r7, #8]
 2376 0072 CB18     		add	r3, r1, r3
 2377 0074 1B01     		lsl	r3, r3, #4
 2378 0076 D318     		add	r3, r2, r3
 2379 0078 0833     		add	r3, r3, #8
ARM GAS  C:\Users\Matty\AppData\Local\Temp\ccXs7IQl.s 			page 61


 2380 007a 1B68     		ldr	r3, [r3]
 2381 007c 1B0C     		lsr	r3, r3, #16
 2382 007e 1B04     		lsl	r3, r3, #16
 2383 0080 7B61     		str	r3, [r7, #20]
1032:.\Generated_Source\PSoC4/CyDMA.c ****     CYDMA_DESCR_BASE.descriptor[channel][descriptor].ctl = regValue | (uint32)numDataElements;
 2384              		.loc 1 1032 0
 2385 0082 0749     		ldr	r1, .L235
 2386 0084 7A68     		ldr	r2, [r7, #4]
 2387 0086 7B69     		ldr	r3, [r7, #20]
 2388 0088 1A43     		orr	r2, r3
 2389 008a FB68     		ldr	r3, [r7, #12]
 2390 008c 5800     		lsl	r0, r3, #1
 2391 008e BB68     		ldr	r3, [r7, #8]
 2392 0090 C318     		add	r3, r0, r3
 2393 0092 1B01     		lsl	r3, r3, #4
 2394 0094 CB18     		add	r3, r1, r3
 2395 0096 0833     		add	r3, r3, #8
 2396 0098 1A60     		str	r2, [r3]
1033:.\Generated_Source\PSoC4/CyDMA.c **** }
 2397              		.loc 1 1033 0
 2398 009a BD46     		mov	sp, r7
 2399 009c 06B0     		add	sp, sp, #24
 2400              		@ sp needed
 2401 009e 80BD     		pop	{r7, pc}
 2402              	.L236:
 2403              		.align	2
 2404              	.L235:
 2405 00a0 00181040 		.word	1074796544
 2406              		.cfi_endproc
 2407              	.LFE35:
 2408              		.size	CyDmaSetNumDataElements, .-CyDmaSetNumDataElements
 2409              		.section	.text.CyDmaGetNumDataElements,"ax",%progbits
 2410              		.align	2
 2411              		.global	CyDmaGetNumDataElements
 2412              		.code	16
 2413              		.thumb_func
 2414              		.type	CyDmaGetNumDataElements, %function
 2415              	CyDmaGetNumDataElements:
 2416              	.LFB36:
1034:.\Generated_Source\PSoC4/CyDMA.c **** 
1035:.\Generated_Source\PSoC4/CyDMA.c **** 
1036:.\Generated_Source\PSoC4/CyDMA.c **** /*******************************************************************************
1037:.\Generated_Source\PSoC4/CyDMA.c **** * Function Name: CyDmaGetNumDataElements
1038:.\Generated_Source\PSoC4/CyDMA.c **** ********************************************************************************
1039:.\Generated_Source\PSoC4/CyDMA.c **** *
1040:.\Generated_Source\PSoC4/CyDMA.c **** * Summary:
1041:.\Generated_Source\PSoC4/CyDMA.c **** *  Returns the number of data elements to be transferred. Only reflects the
1042:.\Generated_Source\PSoC4/CyDMA.c **** *  value written by CyDmaSetNumDataElements() or CyDmaSetConfiguration(). This
1043:.\Generated_Source\PSoC4/CyDMA.c **** *  does not reflect how many elements have been transferred. For that
1044:.\Generated_Source\PSoC4/CyDMA.c **** *  information use the CyDmaGetDescriptorStatus() function.
1045:.\Generated_Source\PSoC4/CyDMA.c **** *
1046:.\Generated_Source\PSoC4/CyDMA.c **** * Parameters:
1047:.\Generated_Source\PSoC4/CyDMA.c **** *  channel:    Channel used by this function.
1048:.\Generated_Source\PSoC4/CyDMA.c **** *  descriptor: Descriptor (0 or 1) modified by this function.
1049:.\Generated_Source\PSoC4/CyDMA.c **** *                   
1050:.\Generated_Source\PSoC4/CyDMA.c **** * Return:
1051:.\Generated_Source\PSoC4/CyDMA.c **** *  Number of data elements to transfer.
ARM GAS  C:\Users\Matty\AppData\Local\Temp\ccXs7IQl.s 			page 62


1052:.\Generated_Source\PSoC4/CyDMA.c **** *
1053:.\Generated_Source\PSoC4/CyDMA.c **** *******************************************************************************/
1054:.\Generated_Source\PSoC4/CyDMA.c **** int32 CyDmaGetNumDataElements(int32 channel, int32 descriptor)
1055:.\Generated_Source\PSoC4/CyDMA.c **** {
 2417              		.loc 1 1055 0
 2418              		.cfi_startproc
 2419 0000 80B5     		push	{r7, lr}
 2420              		.cfi_def_cfa_offset 8
 2421              		.cfi_offset 7, -8
 2422              		.cfi_offset 14, -4
 2423 0002 84B0     		sub	sp, sp, #16
 2424              		.cfi_def_cfa_offset 24
 2425 0004 00AF     		add	r7, sp, #0
 2426              		.cfi_def_cfa_register 7
 2427 0006 7860     		str	r0, [r7, #4]
 2428 0008 3960     		str	r1, [r7]
1056:.\Generated_Source\PSoC4/CyDMA.c ****     uint32 numElements;
1057:.\Generated_Source\PSoC4/CyDMA.c **** 
1058:.\Generated_Source\PSoC4/CyDMA.c ****     CYASSERT((channel    >= 0) && (channel    < CYDMA_CH_NR));
 2429              		.loc 1 1058 0
 2430 000a 7B68     		ldr	r3, [r7, #4]
 2431 000c 002B     		cmp	r3, #0
 2432 000e 04DB     		blt	.L238
 2433              		.loc 1 1058 0 is_stmt 0 discriminator 1
 2434 0010 7B68     		ldr	r3, [r7, #4]
 2435 0012 072B     		cmp	r3, #7
 2436 0014 01DC     		bgt	.L238
 2437              		.loc 1 1058 0 discriminator 3
 2438 0016 0123     		mov	r3, #1
 2439 0018 00E0     		b	.L239
 2440              	.L238:
 2441              		.loc 1 1058 0 discriminator 2
 2442 001a 0023     		mov	r3, #0
 2443              	.L239:
 2444              		.loc 1 1058 0 discriminator 4
 2445 001c 002B     		cmp	r3, #0
 2446 001e 02D1     		bne	.L240
 2447              		.loc 1 1058 0 discriminator 1
 2448 0020 0020     		mov	r0, #0
 2449 0022 FFF7FEFF 		bl	CyHalt
 2450              	.L240:
1059:.\Generated_Source\PSoC4/CyDMA.c ****     CYASSERT((descriptor >= 0) && (descriptor < CYDMA_DESCR_NR));
 2451              		.loc 1 1059 0 is_stmt 1
 2452 0026 3B68     		ldr	r3, [r7]
 2453 0028 002B     		cmp	r3, #0
 2454 002a 04DB     		blt	.L241
 2455              		.loc 1 1059 0 is_stmt 0 discriminator 1
 2456 002c 3B68     		ldr	r3, [r7]
 2457 002e 012B     		cmp	r3, #1
 2458 0030 01DC     		bgt	.L241
 2459              		.loc 1 1059 0 discriminator 3
 2460 0032 0123     		mov	r3, #1
 2461 0034 00E0     		b	.L242
 2462              	.L241:
 2463              		.loc 1 1059 0 discriminator 2
 2464 0036 0023     		mov	r3, #0
 2465              	.L242:
ARM GAS  C:\Users\Matty\AppData\Local\Temp\ccXs7IQl.s 			page 63


 2466              		.loc 1 1059 0 discriminator 4
 2467 0038 002B     		cmp	r3, #0
 2468 003a 02D1     		bne	.L243
 2469              		.loc 1 1059 0 discriminator 1
 2470 003c 0020     		mov	r0, #0
 2471 003e FFF7FEFF 		bl	CyHalt
 2472              	.L243:
1060:.\Generated_Source\PSoC4/CyDMA.c ****     
1061:.\Generated_Source\PSoC4/CyDMA.c ****     numElements = (CYDMA_DESCR_BASE.descriptor[channel][descriptor].ctl & CYDMA_DATA_NR) + 1u;
 2473              		.loc 1 1061 0 is_stmt 1
 2474 0042 094A     		ldr	r2, .L245
 2475 0044 7B68     		ldr	r3, [r7, #4]
 2476 0046 5900     		lsl	r1, r3, #1
 2477 0048 3B68     		ldr	r3, [r7]
 2478 004a CB18     		add	r3, r1, r3
 2479 004c 1B01     		lsl	r3, r3, #4
 2480 004e D318     		add	r3, r2, r3
 2481 0050 0833     		add	r3, r3, #8
 2482 0052 1B68     		ldr	r3, [r3]
 2483 0054 1B04     		lsl	r3, r3, #16
 2484 0056 1B0C     		lsr	r3, r3, #16
 2485 0058 0133     		add	r3, r3, #1
 2486 005a FB60     		str	r3, [r7, #12]
1062:.\Generated_Source\PSoC4/CyDMA.c ****     return ((int32)numElements);
 2487              		.loc 1 1062 0
 2488 005c FB68     		ldr	r3, [r7, #12]
1063:.\Generated_Source\PSoC4/CyDMA.c **** }
 2489              		.loc 1 1063 0
 2490 005e 181C     		mov	r0, r3
 2491 0060 BD46     		mov	sp, r7
 2492 0062 04B0     		add	sp, sp, #16
 2493              		@ sp needed
 2494 0064 80BD     		pop	{r7, pc}
 2495              	.L246:
 2496 0066 C046     		.align	2
 2497              	.L245:
 2498 0068 00181040 		.word	1074796544
 2499              		.cfi_endproc
 2500              	.LFE36:
 2501              		.size	CyDmaGetNumDataElements, .-CyDmaGetNumDataElements
 2502              		.section	.text.CyDmaSetSrcDstTransferWidth,"ax",%progbits
 2503              		.align	2
 2504              		.global	CyDmaSetSrcDstTransferWidth
 2505              		.code	16
 2506              		.thumb_func
 2507              		.type	CyDmaSetSrcDstTransferWidth, %function
 2508              	CyDmaSetSrcDstTransferWidth:
 2509              	.LFB37:
1064:.\Generated_Source\PSoC4/CyDMA.c **** 
1065:.\Generated_Source\PSoC4/CyDMA.c **** 
1066:.\Generated_Source\PSoC4/CyDMA.c **** /*******************************************************************************
1067:.\Generated_Source\PSoC4/CyDMA.c **** * Function Name: CyDmaSetSrcDstTransferWidth
1068:.\Generated_Source\PSoC4/CyDMA.c **** ********************************************************************************
1069:.\Generated_Source\PSoC4/CyDMA.c **** *
1070:.\Generated_Source\PSoC4/CyDMA.c **** * Summary:
1071:.\Generated_Source\PSoC4/CyDMA.c **** *  Sets the width of the source and destination. The DMA can either read and
1072:.\Generated_Source\PSoC4/CyDMA.c **** *  write data from the source and destination at the size specified by
ARM GAS  C:\Users\Matty\AppData\Local\Temp\ccXs7IQl.s 			page 64


1073:.\Generated_Source\PSoC4/CyDMA.c **** *  CyDmaSetDataElementSize() or by a word (4bytes). This also determines how
1074:.\Generated_Source\PSoC4/CyDMA.c **** *  many bytes the addresses are incremented if increment source and destination
1075:.\Generated_Source\PSoC4/CyDMA.c **** *  address are turned on.
1076:.\Generated_Source\PSoC4/CyDMA.c **** *
1077:.\Generated_Source\PSoC4/CyDMA.c **** * Parameters:
1078:.\Generated_Source\PSoC4/CyDMA.c **** *  channel:       Channel used by this function.
1079:.\Generated_Source\PSoC4/CyDMA.c **** *  descriptor:    Descriptor (0 or 1) modified by this function.
1080:.\Generated_Source\PSoC4/CyDMA.c **** *  transferWidth: Specifies the source and destination widths. Refer to 
1081:.\Generated_Source\PSoC4/CyDMA.c **** *                 the API bit field definitions in CyDMA_P4.h or the API
1082:.\Generated_Source\PSoC4/CyDMA.c **** *                 description in the DMA channel datasheet for the parameter
1083:.\Generated_Source\PSoC4/CyDMA.c **** *                 options.
1084:.\Generated_Source\PSoC4/CyDMA.c **** *                   
1085:.\Generated_Source\PSoC4/CyDMA.c **** * Return:
1086:.\Generated_Source\PSoC4/CyDMA.c **** *  None.
1087:.\Generated_Source\PSoC4/CyDMA.c **** *
1088:.\Generated_Source\PSoC4/CyDMA.c **** * Side effect:
1089:.\Generated_Source\PSoC4/CyDMA.c **** *  This function should not be called when the specified descriptor is active
1090:.\Generated_Source\PSoC4/CyDMA.c **** *  in the DMA transfer engine. This can be checked by calling CyDmaGetStatus(). 
1091:.\Generated_Source\PSoC4/CyDMA.c **** *
1092:.\Generated_Source\PSoC4/CyDMA.c **** *******************************************************************************/
1093:.\Generated_Source\PSoC4/CyDMA.c **** void CyDmaSetSrcDstTransferWidth(int32 channel, int32 descriptor, uint32 transferWidth)
1094:.\Generated_Source\PSoC4/CyDMA.c **** {
 2510              		.loc 1 1094 0
 2511              		.cfi_startproc
 2512 0000 80B5     		push	{r7, lr}
 2513              		.cfi_def_cfa_offset 8
 2514              		.cfi_offset 7, -8
 2515              		.cfi_offset 14, -4
 2516 0002 86B0     		sub	sp, sp, #24
 2517              		.cfi_def_cfa_offset 32
 2518 0004 00AF     		add	r7, sp, #0
 2519              		.cfi_def_cfa_register 7
 2520 0006 F860     		str	r0, [r7, #12]
 2521 0008 B960     		str	r1, [r7, #8]
 2522 000a 7A60     		str	r2, [r7, #4]
1095:.\Generated_Source\PSoC4/CyDMA.c ****     uint32 regValue;
1096:.\Generated_Source\PSoC4/CyDMA.c **** 
1097:.\Generated_Source\PSoC4/CyDMA.c ****     CYASSERT((channel    >= 0) && (channel    < CYDMA_CH_NR));
 2523              		.loc 1 1097 0
 2524 000c FB68     		ldr	r3, [r7, #12]
 2525 000e 002B     		cmp	r3, #0
 2526 0010 04DB     		blt	.L248
 2527              		.loc 1 1097 0 is_stmt 0 discriminator 1
 2528 0012 FB68     		ldr	r3, [r7, #12]
 2529 0014 072B     		cmp	r3, #7
 2530 0016 01DC     		bgt	.L248
 2531              		.loc 1 1097 0 discriminator 3
 2532 0018 0123     		mov	r3, #1
 2533 001a 00E0     		b	.L249
 2534              	.L248:
 2535              		.loc 1 1097 0 discriminator 2
 2536 001c 0023     		mov	r3, #0
 2537              	.L249:
 2538              		.loc 1 1097 0 discriminator 4
 2539 001e 002B     		cmp	r3, #0
 2540 0020 02D1     		bne	.L250
 2541              		.loc 1 1097 0 discriminator 1
ARM GAS  C:\Users\Matty\AppData\Local\Temp\ccXs7IQl.s 			page 65


 2542 0022 0020     		mov	r0, #0
 2543 0024 FFF7FEFF 		bl	CyHalt
 2544              	.L250:
1098:.\Generated_Source\PSoC4/CyDMA.c ****     CYASSERT((descriptor >= 0) && (descriptor < CYDMA_DESCR_NR));
 2545              		.loc 1 1098 0 is_stmt 1
 2546 0028 BB68     		ldr	r3, [r7, #8]
 2547 002a 002B     		cmp	r3, #0
 2548 002c 04DB     		blt	.L251
 2549              		.loc 1 1098 0 is_stmt 0 discriminator 1
 2550 002e BB68     		ldr	r3, [r7, #8]
 2551 0030 012B     		cmp	r3, #1
 2552 0032 01DC     		bgt	.L251
 2553              		.loc 1 1098 0 discriminator 3
 2554 0034 0123     		mov	r3, #1
 2555 0036 00E0     		b	.L252
 2556              	.L251:
 2557              		.loc 1 1098 0 discriminator 2
 2558 0038 0023     		mov	r3, #0
 2559              	.L252:
 2560              		.loc 1 1098 0 discriminator 4
 2561 003a 002B     		cmp	r3, #0
 2562 003c 02D1     		bne	.L253
 2563              		.loc 1 1098 0 discriminator 1
 2564 003e 0020     		mov	r0, #0
 2565 0040 FFF7FEFF 		bl	CyHalt
 2566              	.L253:
1099:.\Generated_Source\PSoC4/CyDMA.c ****     CYASSERT(0u == (transferWidth & (uint32)~CYDMA_TRANSFER_WIDTH));
 2567              		.loc 1 1099 0 is_stmt 1
 2568 0044 7A68     		ldr	r2, [r7, #4]
 2569 0046 104B     		ldr	r3, .L255
 2570 0048 1340     		and	r3, r2
 2571 004a 02D0     		beq	.L254
 2572              		.loc 1 1099 0 is_stmt 0 discriminator 1
 2573 004c 0020     		mov	r0, #0
 2574 004e FFF7FEFF 		bl	CyHalt
 2575              	.L254:
1100:.\Generated_Source\PSoC4/CyDMA.c **** 
1101:.\Generated_Source\PSoC4/CyDMA.c ****     regValue = CYDMA_DESCR_BASE.descriptor[channel][descriptor].ctl & (uint32)~CYDMA_TRANSFER_WIDTH
 2576              		.loc 1 1101 0 is_stmt 1
 2577 0052 0E4A     		ldr	r2, .L255+4
 2578 0054 FB68     		ldr	r3, [r7, #12]
 2579 0056 5900     		lsl	r1, r3, #1
 2580 0058 BB68     		ldr	r3, [r7, #8]
 2581 005a CB18     		add	r3, r1, r3
 2582 005c 1B01     		lsl	r3, r3, #4
 2583 005e D318     		add	r3, r2, r3
 2584 0060 0833     		add	r3, r3, #8
 2585 0062 1A68     		ldr	r2, [r3]
 2586 0064 084B     		ldr	r3, .L255
 2587 0066 1340     		and	r3, r2
 2588 0068 7B61     		str	r3, [r7, #20]
1102:.\Generated_Source\PSoC4/CyDMA.c ****     CYDMA_DESCR_BASE.descriptor[channel][descriptor].ctl = regValue | transferWidth;
 2589              		.loc 1 1102 0
 2590 006a 0849     		ldr	r1, .L255+4
 2591 006c 7A69     		ldr	r2, [r7, #20]
 2592 006e 7B68     		ldr	r3, [r7, #4]
 2593 0070 1A43     		orr	r2, r3
ARM GAS  C:\Users\Matty\AppData\Local\Temp\ccXs7IQl.s 			page 66


 2594 0072 FB68     		ldr	r3, [r7, #12]
 2595 0074 5800     		lsl	r0, r3, #1
 2596 0076 BB68     		ldr	r3, [r7, #8]
 2597 0078 C318     		add	r3, r0, r3
 2598 007a 1B01     		lsl	r3, r3, #4
 2599 007c CB18     		add	r3, r1, r3
 2600 007e 0833     		add	r3, r3, #8
 2601 0080 1A60     		str	r2, [r3]
1103:.\Generated_Source\PSoC4/CyDMA.c **** }
 2602              		.loc 1 1103 0
 2603 0082 BD46     		mov	sp, r7
 2604 0084 06B0     		add	sp, sp, #24
 2605              		@ sp needed
 2606 0086 80BD     		pop	{r7, pc}
 2607              	.L256:
 2608              		.align	2
 2609              	.L255:
 2610 0088 FFFFAFFF 		.word	-5242881
 2611 008c 00181040 		.word	1074796544
 2612              		.cfi_endproc
 2613              	.LFE37:
 2614              		.size	CyDmaSetSrcDstTransferWidth, .-CyDmaSetSrcDstTransferWidth
 2615              		.section	.text.CyDmaGetSrcDstTransferWidth,"ax",%progbits
 2616              		.align	2
 2617              		.global	CyDmaGetSrcDstTransferWidth
 2618              		.code	16
 2619              		.thumb_func
 2620              		.type	CyDmaGetSrcDstTransferWidth, %function
 2621              	CyDmaGetSrcDstTransferWidth:
 2622              	.LFB38:
1104:.\Generated_Source\PSoC4/CyDMA.c **** 
1105:.\Generated_Source\PSoC4/CyDMA.c **** 
1106:.\Generated_Source\PSoC4/CyDMA.c **** /*******************************************************************************
1107:.\Generated_Source\PSoC4/CyDMA.c **** * Function Name: CyDmaGetSrcDstTransferWidth
1108:.\Generated_Source\PSoC4/CyDMA.c **** ********************************************************************************
1109:.\Generated_Source\PSoC4/CyDMA.c **** *
1110:.\Generated_Source\PSoC4/CyDMA.c **** * Summary:
1111:.\Generated_Source\PSoC4/CyDMA.c **** *  Returns the width of the source and destination, as set by 
1112:.\Generated_Source\PSoC4/CyDMA.c **** *  CyDmaSetSrcDstTransferWidth() or CyDmaSetConfiguration().
1113:.\Generated_Source\PSoC4/CyDMA.c **** *
1114:.\Generated_Source\PSoC4/CyDMA.c **** * Parameters:
1115:.\Generated_Source\PSoC4/CyDMA.c **** *  channel:    Channel used by this function.
1116:.\Generated_Source\PSoC4/CyDMA.c **** *  descriptor: Descriptor (0 or 1) modified by this function.
1117:.\Generated_Source\PSoC4/CyDMA.c **** *                   
1118:.\Generated_Source\PSoC4/CyDMA.c **** * Return:
1119:.\Generated_Source\PSoC4/CyDMA.c **** *  Width of source and destination. Refer to the API bit field definitions in
1120:.\Generated_Source\PSoC4/CyDMA.c **** *  CyDMA_P4.h or the API description in the DMA channel datasheet for more
1121:.\Generated_Source\PSoC4/CyDMA.c **** *  information.
1122:.\Generated_Source\PSoC4/CyDMA.c **** *
1123:.\Generated_Source\PSoC4/CyDMA.c **** *******************************************************************************/
1124:.\Generated_Source\PSoC4/CyDMA.c **** uint32 CyDmaGetSrcDstTransferWidth(int32 channel, int32 descriptor)
1125:.\Generated_Source\PSoC4/CyDMA.c **** {
 2623              		.loc 1 1125 0
 2624              		.cfi_startproc
 2625 0000 80B5     		push	{r7, lr}
 2626              		.cfi_def_cfa_offset 8
 2627              		.cfi_offset 7, -8
ARM GAS  C:\Users\Matty\AppData\Local\Temp\ccXs7IQl.s 			page 67


 2628              		.cfi_offset 14, -4
 2629 0002 82B0     		sub	sp, sp, #8
 2630              		.cfi_def_cfa_offset 16
 2631 0004 00AF     		add	r7, sp, #0
 2632              		.cfi_def_cfa_register 7
 2633 0006 7860     		str	r0, [r7, #4]
 2634 0008 3960     		str	r1, [r7]
1126:.\Generated_Source\PSoC4/CyDMA.c ****     CYASSERT((channel    >= 0) && (channel    < CYDMA_CH_NR));
 2635              		.loc 1 1126 0
 2636 000a 7B68     		ldr	r3, [r7, #4]
 2637 000c 002B     		cmp	r3, #0
 2638 000e 04DB     		blt	.L258
 2639              		.loc 1 1126 0 is_stmt 0 discriminator 1
 2640 0010 7B68     		ldr	r3, [r7, #4]
 2641 0012 072B     		cmp	r3, #7
 2642 0014 01DC     		bgt	.L258
 2643              		.loc 1 1126 0 discriminator 3
 2644 0016 0123     		mov	r3, #1
 2645 0018 00E0     		b	.L259
 2646              	.L258:
 2647              		.loc 1 1126 0 discriminator 2
 2648 001a 0023     		mov	r3, #0
 2649              	.L259:
 2650              		.loc 1 1126 0 discriminator 4
 2651 001c 002B     		cmp	r3, #0
 2652 001e 02D1     		bne	.L260
 2653              		.loc 1 1126 0 discriminator 1
 2654 0020 0020     		mov	r0, #0
 2655 0022 FFF7FEFF 		bl	CyHalt
 2656              	.L260:
1127:.\Generated_Source\PSoC4/CyDMA.c ****     CYASSERT((descriptor >= 0) && (descriptor < CYDMA_DESCR_NR));
 2657              		.loc 1 1127 0 is_stmt 1
 2658 0026 3B68     		ldr	r3, [r7]
 2659 0028 002B     		cmp	r3, #0
 2660 002a 04DB     		blt	.L261
 2661              		.loc 1 1127 0 is_stmt 0 discriminator 1
 2662 002c 3B68     		ldr	r3, [r7]
 2663 002e 012B     		cmp	r3, #1
 2664 0030 01DC     		bgt	.L261
 2665              		.loc 1 1127 0 discriminator 3
 2666 0032 0123     		mov	r3, #1
 2667 0034 00E0     		b	.L262
 2668              	.L261:
 2669              		.loc 1 1127 0 discriminator 2
 2670 0036 0023     		mov	r3, #0
 2671              	.L262:
 2672              		.loc 1 1127 0 discriminator 4
 2673 0038 002B     		cmp	r3, #0
 2674 003a 02D1     		bne	.L263
 2675              		.loc 1 1127 0 discriminator 1
 2676 003c 0020     		mov	r0, #0
 2677 003e FFF7FEFF 		bl	CyHalt
 2678              	.L263:
1128:.\Generated_Source\PSoC4/CyDMA.c ****     return (CYDMA_DESCR_BASE.descriptor[channel][descriptor].ctl & CYDMA_TRANSFER_WIDTH);
 2679              		.loc 1 1128 0 is_stmt 1
 2680 0042 084A     		ldr	r2, .L265
 2681 0044 7B68     		ldr	r3, [r7, #4]
ARM GAS  C:\Users\Matty\AppData\Local\Temp\ccXs7IQl.s 			page 68


 2682 0046 5900     		lsl	r1, r3, #1
 2683 0048 3B68     		ldr	r3, [r7]
 2684 004a CB18     		add	r3, r1, r3
 2685 004c 1B01     		lsl	r3, r3, #4
 2686 004e D318     		add	r3, r2, r3
 2687 0050 0833     		add	r3, r3, #8
 2688 0052 1A68     		ldr	r2, [r3]
 2689 0054 A023     		mov	r3, #160
 2690 0056 DB03     		lsl	r3, r3, #15
 2691 0058 1340     		and	r3, r2
1129:.\Generated_Source\PSoC4/CyDMA.c **** }
 2692              		.loc 1 1129 0
 2693 005a 181C     		mov	r0, r3
 2694 005c BD46     		mov	sp, r7
 2695 005e 02B0     		add	sp, sp, #8
 2696              		@ sp needed
 2697 0060 80BD     		pop	{r7, pc}
 2698              	.L266:
 2699 0062 C046     		.align	2
 2700              	.L265:
 2701 0064 00181040 		.word	1074796544
 2702              		.cfi_endproc
 2703              	.LFE38:
 2704              		.size	CyDmaGetSrcDstTransferWidth, .-CyDmaGetSrcDstTransferWidth
 2705              		.section	.text.CyDmaSetAddressIncrement,"ax",%progbits
 2706              		.align	2
 2707              		.global	CyDmaSetAddressIncrement
 2708              		.code	16
 2709              		.thumb_func
 2710              		.type	CyDmaSetAddressIncrement, %function
 2711              	CyDmaSetAddressIncrement:
 2712              	.LFB39:
1130:.\Generated_Source\PSoC4/CyDMA.c **** 
1131:.\Generated_Source\PSoC4/CyDMA.c **** 
1132:.\Generated_Source\PSoC4/CyDMA.c **** /*******************************************************************************
1133:.\Generated_Source\PSoC4/CyDMA.c **** * Function Name: CyDmaSetAddressIncrement
1134:.\Generated_Source\PSoC4/CyDMA.c **** ********************************************************************************
1135:.\Generated_Source\PSoC4/CyDMA.c **** *
1136:.\Generated_Source\PSoC4/CyDMA.c **** * Summary:
1137:.\Generated_Source\PSoC4/CyDMA.c **** *  Sets whether the source or destination addresses are incremented after the
1138:.\Generated_Source\PSoC4/CyDMA.c **** *  transfer of each data element. The amount that the source and destination
1139:.\Generated_Source\PSoC4/CyDMA.c **** *  address are incremented is determined by the CyDmaSetSrcDstTransferWidth()
1140:.\Generated_Source\PSoC4/CyDMA.c **** *  function. The addresses will either be incremented by the data element size
1141:.\Generated_Source\PSoC4/CyDMA.c **** *  or by a word (4 bytes).
1142:.\Generated_Source\PSoC4/CyDMA.c **** *
1143:.\Generated_Source\PSoC4/CyDMA.c **** * Parameters:
1144:.\Generated_Source\PSoC4/CyDMA.c **** *  channel:          Channel used by this function.
1145:.\Generated_Source\PSoC4/CyDMA.c **** *  descriptor:       Descriptor (0 or 1) modified by this function.
1146:.\Generated_Source\PSoC4/CyDMA.c **** *  addressIncrement: Address increment settings. Refer to the API bit fields 
1147:.\Generated_Source\PSoC4/CyDMA.c **** *                    definition in CyDMA_P4.h or the API description in the DMA
1148:.\Generated_Source\PSoC4/CyDMA.c **** *                    channel datasheet for the parameter options.
1149:.\Generated_Source\PSoC4/CyDMA.c **** *    
1150:.\Generated_Source\PSoC4/CyDMA.c **** * Return:
1151:.\Generated_Source\PSoC4/CyDMA.c **** *  None.
1152:.\Generated_Source\PSoC4/CyDMA.c **** *
1153:.\Generated_Source\PSoC4/CyDMA.c **** * Side effect:
1154:.\Generated_Source\PSoC4/CyDMA.c **** *  This function should not be called when the specified descriptor is active
ARM GAS  C:\Users\Matty\AppData\Local\Temp\ccXs7IQl.s 			page 69


1155:.\Generated_Source\PSoC4/CyDMA.c **** *  in the DMA transfer engine. This can be checked by calling CyDmaGetStatus(). 
1156:.\Generated_Source\PSoC4/CyDMA.c **** *
1157:.\Generated_Source\PSoC4/CyDMA.c **** *******************************************************************************/
1158:.\Generated_Source\PSoC4/CyDMA.c **** void CyDmaSetAddressIncrement(int32 channel, int32 descriptor, uint32 addressIncrement)
1159:.\Generated_Source\PSoC4/CyDMA.c **** {
 2713              		.loc 1 1159 0
 2714              		.cfi_startproc
 2715 0000 80B5     		push	{r7, lr}
 2716              		.cfi_def_cfa_offset 8
 2717              		.cfi_offset 7, -8
 2718              		.cfi_offset 14, -4
 2719 0002 86B0     		sub	sp, sp, #24
 2720              		.cfi_def_cfa_offset 32
 2721 0004 00AF     		add	r7, sp, #0
 2722              		.cfi_def_cfa_register 7
 2723 0006 F860     		str	r0, [r7, #12]
 2724 0008 B960     		str	r1, [r7, #8]
 2725 000a 7A60     		str	r2, [r7, #4]
1160:.\Generated_Source\PSoC4/CyDMA.c ****     uint32 regValue;
1161:.\Generated_Source\PSoC4/CyDMA.c **** 
1162:.\Generated_Source\PSoC4/CyDMA.c ****     CYASSERT((channel    >= 0) && (channel    < CYDMA_CH_NR));
 2726              		.loc 1 1162 0
 2727 000c FB68     		ldr	r3, [r7, #12]
 2728 000e 002B     		cmp	r3, #0
 2729 0010 04DB     		blt	.L268
 2730              		.loc 1 1162 0 is_stmt 0 discriminator 1
 2731 0012 FB68     		ldr	r3, [r7, #12]
 2732 0014 072B     		cmp	r3, #7
 2733 0016 01DC     		bgt	.L268
 2734              		.loc 1 1162 0 discriminator 3
 2735 0018 0123     		mov	r3, #1
 2736 001a 00E0     		b	.L269
 2737              	.L268:
 2738              		.loc 1 1162 0 discriminator 2
 2739 001c 0023     		mov	r3, #0
 2740              	.L269:
 2741              		.loc 1 1162 0 discriminator 4
 2742 001e 002B     		cmp	r3, #0
 2743 0020 02D1     		bne	.L270
 2744              		.loc 1 1162 0 discriminator 1
 2745 0022 0020     		mov	r0, #0
 2746 0024 FFF7FEFF 		bl	CyHalt
 2747              	.L270:
1163:.\Generated_Source\PSoC4/CyDMA.c ****     CYASSERT((descriptor >= 0) && (descriptor < CYDMA_DESCR_NR));
 2748              		.loc 1 1163 0 is_stmt 1
 2749 0028 BB68     		ldr	r3, [r7, #8]
 2750 002a 002B     		cmp	r3, #0
 2751 002c 04DB     		blt	.L271
 2752              		.loc 1 1163 0 is_stmt 0 discriminator 1
 2753 002e BB68     		ldr	r3, [r7, #8]
 2754 0030 012B     		cmp	r3, #1
 2755 0032 01DC     		bgt	.L271
 2756              		.loc 1 1163 0 discriminator 3
 2757 0034 0123     		mov	r3, #1
 2758 0036 00E0     		b	.L272
 2759              	.L271:
 2760              		.loc 1 1163 0 discriminator 2
ARM GAS  C:\Users\Matty\AppData\Local\Temp\ccXs7IQl.s 			page 70


 2761 0038 0023     		mov	r3, #0
 2762              	.L272:
 2763              		.loc 1 1163 0 discriminator 4
 2764 003a 002B     		cmp	r3, #0
 2765 003c 02D1     		bne	.L273
 2766              		.loc 1 1163 0 discriminator 1
 2767 003e 0020     		mov	r0, #0
 2768 0040 FFF7FEFF 		bl	CyHalt
 2769              	.L273:
1164:.\Generated_Source\PSoC4/CyDMA.c ****     CYASSERT(0u == (addressIncrement & (uint32)~CYDMA_ADDR_INCR));
 2770              		.loc 1 1164 0 is_stmt 1
 2771 0044 7A68     		ldr	r2, [r7, #4]
 2772 0046 104B     		ldr	r3, .L275
 2773 0048 1340     		and	r3, r2
 2774 004a 02D0     		beq	.L274
 2775              		.loc 1 1164 0 is_stmt 0 discriminator 1
 2776 004c 0020     		mov	r0, #0
 2777 004e FFF7FEFF 		bl	CyHalt
 2778              	.L274:
1165:.\Generated_Source\PSoC4/CyDMA.c **** 
1166:.\Generated_Source\PSoC4/CyDMA.c ****     regValue = CYDMA_DESCR_BASE.descriptor[channel][descriptor].ctl & (uint32)~CYDMA_ADDR_INCR;
 2779              		.loc 1 1166 0 is_stmt 1
 2780 0052 0E4A     		ldr	r2, .L275+4
 2781 0054 FB68     		ldr	r3, [r7, #12]
 2782 0056 5900     		lsl	r1, r3, #1
 2783 0058 BB68     		ldr	r3, [r7, #8]
 2784 005a CB18     		add	r3, r1, r3
 2785 005c 1B01     		lsl	r3, r3, #4
 2786 005e D318     		add	r3, r2, r3
 2787 0060 0833     		add	r3, r3, #8
 2788 0062 1A68     		ldr	r2, [r3]
 2789 0064 084B     		ldr	r3, .L275
 2790 0066 1340     		and	r3, r2
 2791 0068 7B61     		str	r3, [r7, #20]
1167:.\Generated_Source\PSoC4/CyDMA.c ****     CYDMA_DESCR_BASE.descriptor[channel][descriptor].ctl = regValue | addressIncrement;
 2792              		.loc 1 1167 0
 2793 006a 0849     		ldr	r1, .L275+4
 2794 006c 7A69     		ldr	r2, [r7, #20]
 2795 006e 7B68     		ldr	r3, [r7, #4]
 2796 0070 1A43     		orr	r2, r3
 2797 0072 FB68     		ldr	r3, [r7, #12]
 2798 0074 5800     		lsl	r0, r3, #1
 2799 0076 BB68     		ldr	r3, [r7, #8]
 2800 0078 C318     		add	r3, r0, r3
 2801 007a 1B01     		lsl	r3, r3, #4
 2802 007c CB18     		add	r3, r1, r3
 2803 007e 0833     		add	r3, r3, #8
 2804 0080 1A60     		str	r2, [r3]
1168:.\Generated_Source\PSoC4/CyDMA.c **** }
 2805              		.loc 1 1168 0
 2806 0082 BD46     		mov	sp, r7
 2807 0084 06B0     		add	sp, sp, #24
 2808              		@ sp needed
 2809 0086 80BD     		pop	{r7, pc}
 2810              	.L276:
 2811              		.align	2
 2812              	.L275:
ARM GAS  C:\Users\Matty\AppData\Local\Temp\ccXs7IQl.s 			page 71


 2813 0088 FFFF5FFF 		.word	-10485761
 2814 008c 00181040 		.word	1074796544
 2815              		.cfi_endproc
 2816              	.LFE39:
 2817              		.size	CyDmaSetAddressIncrement, .-CyDmaSetAddressIncrement
 2818              		.section	.text.CyDmaGetAddressIncrement,"ax",%progbits
 2819              		.align	2
 2820              		.global	CyDmaGetAddressIncrement
 2821              		.code	16
 2822              		.thumb_func
 2823              		.type	CyDmaGetAddressIncrement, %function
 2824              	CyDmaGetAddressIncrement:
 2825              	.LFB40:
1169:.\Generated_Source\PSoC4/CyDMA.c **** 
1170:.\Generated_Source\PSoC4/CyDMA.c **** 
1171:.\Generated_Source\PSoC4/CyDMA.c **** /*******************************************************************************
1172:.\Generated_Source\PSoC4/CyDMA.c **** * Function Name: CyDmaGetAddressIncrement
1173:.\Generated_Source\PSoC4/CyDMA.c **** ********************************************************************************
1174:.\Generated_Source\PSoC4/CyDMA.c **** *
1175:.\Generated_Source\PSoC4/CyDMA.c **** * Summary:
1176:.\Generated_Source\PSoC4/CyDMA.c **** *  Returns address increment settings as set by CyDmaSetAddressIncrement() or
1177:.\Generated_Source\PSoC4/CyDMA.c **** *  CyDmaSetConfiguration().
1178:.\Generated_Source\PSoC4/CyDMA.c **** *
1179:.\Generated_Source\PSoC4/CyDMA.c **** * Parameters:
1180:.\Generated_Source\PSoC4/CyDMA.c **** *  channel:    Channel used by this function.
1181:.\Generated_Source\PSoC4/CyDMA.c **** *  descriptor: Descriptor (0 or 1) modified by this function.
1182:.\Generated_Source\PSoC4/CyDMA.c **** *                   
1183:.\Generated_Source\PSoC4/CyDMA.c **** * Return:
1184:.\Generated_Source\PSoC4/CyDMA.c **** *  Address increment settings. Refer to the API bit field definitions in
1185:.\Generated_Source\PSoC4/CyDMA.c **** *  CyDMA_P4.h or the API description in the DMA channel datasheet for more
1186:.\Generated_Source\PSoC4/CyDMA.c **** *  information.
1187:.\Generated_Source\PSoC4/CyDMA.c **** *
1188:.\Generated_Source\PSoC4/CyDMA.c **** *******************************************************************************/
1189:.\Generated_Source\PSoC4/CyDMA.c **** uint32 CyDmaGetAddressIncrement(int32 channel, int32 descriptor)
1190:.\Generated_Source\PSoC4/CyDMA.c **** {
 2826              		.loc 1 1190 0
 2827              		.cfi_startproc
 2828 0000 80B5     		push	{r7, lr}
 2829              		.cfi_def_cfa_offset 8
 2830              		.cfi_offset 7, -8
 2831              		.cfi_offset 14, -4
 2832 0002 82B0     		sub	sp, sp, #8
 2833              		.cfi_def_cfa_offset 16
 2834 0004 00AF     		add	r7, sp, #0
 2835              		.cfi_def_cfa_register 7
 2836 0006 7860     		str	r0, [r7, #4]
 2837 0008 3960     		str	r1, [r7]
1191:.\Generated_Source\PSoC4/CyDMA.c ****     CYASSERT((channel    >= 0) && (channel    < CYDMA_CH_NR));
 2838              		.loc 1 1191 0
 2839 000a 7B68     		ldr	r3, [r7, #4]
 2840 000c 002B     		cmp	r3, #0
 2841 000e 04DB     		blt	.L278
 2842              		.loc 1 1191 0 is_stmt 0 discriminator 1
 2843 0010 7B68     		ldr	r3, [r7, #4]
 2844 0012 072B     		cmp	r3, #7
 2845 0014 01DC     		bgt	.L278
 2846              		.loc 1 1191 0 discriminator 3
ARM GAS  C:\Users\Matty\AppData\Local\Temp\ccXs7IQl.s 			page 72


 2847 0016 0123     		mov	r3, #1
 2848 0018 00E0     		b	.L279
 2849              	.L278:
 2850              		.loc 1 1191 0 discriminator 2
 2851 001a 0023     		mov	r3, #0
 2852              	.L279:
 2853              		.loc 1 1191 0 discriminator 4
 2854 001c 002B     		cmp	r3, #0
 2855 001e 02D1     		bne	.L280
 2856              		.loc 1 1191 0 discriminator 1
 2857 0020 0020     		mov	r0, #0
 2858 0022 FFF7FEFF 		bl	CyHalt
 2859              	.L280:
1192:.\Generated_Source\PSoC4/CyDMA.c ****     CYASSERT((descriptor >= 0) && (descriptor < CYDMA_DESCR_NR));
 2860              		.loc 1 1192 0 is_stmt 1
 2861 0026 3B68     		ldr	r3, [r7]
 2862 0028 002B     		cmp	r3, #0
 2863 002a 04DB     		blt	.L281
 2864              		.loc 1 1192 0 is_stmt 0 discriminator 1
 2865 002c 3B68     		ldr	r3, [r7]
 2866 002e 012B     		cmp	r3, #1
 2867 0030 01DC     		bgt	.L281
 2868              		.loc 1 1192 0 discriminator 3
 2869 0032 0123     		mov	r3, #1
 2870 0034 00E0     		b	.L282
 2871              	.L281:
 2872              		.loc 1 1192 0 discriminator 2
 2873 0036 0023     		mov	r3, #0
 2874              	.L282:
 2875              		.loc 1 1192 0 discriminator 4
 2876 0038 002B     		cmp	r3, #0
 2877 003a 02D1     		bne	.L283
 2878              		.loc 1 1192 0 discriminator 1
 2879 003c 0020     		mov	r0, #0
 2880 003e FFF7FEFF 		bl	CyHalt
 2881              	.L283:
1193:.\Generated_Source\PSoC4/CyDMA.c **** 
1194:.\Generated_Source\PSoC4/CyDMA.c ****     return (CYDMA_DESCR_BASE.descriptor[channel][descriptor].ctl & CYDMA_ADDR_INCR);
 2882              		.loc 1 1194 0 is_stmt 1
 2883 0042 084A     		ldr	r2, .L285
 2884 0044 7B68     		ldr	r3, [r7, #4]
 2885 0046 5900     		lsl	r1, r3, #1
 2886 0048 3B68     		ldr	r3, [r7]
 2887 004a CB18     		add	r3, r1, r3
 2888 004c 1B01     		lsl	r3, r3, #4
 2889 004e D318     		add	r3, r2, r3
 2890 0050 0833     		add	r3, r3, #8
 2891 0052 1A68     		ldr	r2, [r3]
 2892 0054 A023     		mov	r3, #160
 2893 0056 1B04     		lsl	r3, r3, #16
 2894 0058 1340     		and	r3, r2
1195:.\Generated_Source\PSoC4/CyDMA.c **** }
 2895              		.loc 1 1195 0
 2896 005a 181C     		mov	r0, r3
 2897 005c BD46     		mov	sp, r7
 2898 005e 02B0     		add	sp, sp, #8
 2899              		@ sp needed
ARM GAS  C:\Users\Matty\AppData\Local\Temp\ccXs7IQl.s 			page 73


 2900 0060 80BD     		pop	{r7, pc}
 2901              	.L286:
 2902 0062 C046     		.align	2
 2903              	.L285:
 2904 0064 00181040 		.word	1074796544
 2905              		.cfi_endproc
 2906              	.LFE40:
 2907              		.size	CyDmaGetAddressIncrement, .-CyDmaGetAddressIncrement
 2908              		.section	.text.CyDmaSetTriggerType,"ax",%progbits
 2909              		.align	2
 2910              		.global	CyDmaSetTriggerType
 2911              		.code	16
 2912              		.thumb_func
 2913              		.type	CyDmaSetTriggerType, %function
 2914              	CyDmaSetTriggerType:
 2915              	.LFB41:
1196:.\Generated_Source\PSoC4/CyDMA.c **** 
1197:.\Generated_Source\PSoC4/CyDMA.c **** 
1198:.\Generated_Source\PSoC4/CyDMA.c **** /*******************************************************************************
1199:.\Generated_Source\PSoC4/CyDMA.c **** * Function Name: CyDmaSetTriggerType
1200:.\Generated_Source\PSoC4/CyDMA.c **** ********************************************************************************
1201:.\Generated_Source\PSoC4/CyDMA.c **** *
1202:.\Generated_Source\PSoC4/CyDMA.c **** * Summary:
1203:.\Generated_Source\PSoC4/CyDMA.c **** *  Sets the type of input trigger for the DMA For level sensitive triggers sets
1204:.\Generated_Source\PSoC4/CyDMA.c **** *  how long the DMA waits for the trigger to go low (deactivate) before
1205:.\Generated_Source\PSoC4/CyDMA.c **** *  triggering the channel again.
1206:.\Generated_Source\PSoC4/CyDMA.c **** *
1207:.\Generated_Source\PSoC4/CyDMA.c **** * Parameters:
1208:.\Generated_Source\PSoC4/CyDMA.c **** *  channel:     Channel used by this function.
1209:.\Generated_Source\PSoC4/CyDMA.c **** *  descriptor:  Descriptor (0 or 1) modified by this function.
1210:.\Generated_Source\PSoC4/CyDMA.c **** *  triggerType: Type of DMA trigger. Refer to the API bit field definitions
1211:.\Generated_Source\PSoC4/CyDMA.c **** *               in CyDMA_P4.h or the API description in the DMA channel
1212:.\Generated_Source\PSoC4/CyDMA.c **** *               datasheet for the parameter options.
1213:.\Generated_Source\PSoC4/CyDMA.c **** *                   
1214:.\Generated_Source\PSoC4/CyDMA.c **** * Return:
1215:.\Generated_Source\PSoC4/CyDMA.c **** *  None.
1216:.\Generated_Source\PSoC4/CyDMA.c **** *
1217:.\Generated_Source\PSoC4/CyDMA.c **** * Side effect:
1218:.\Generated_Source\PSoC4/CyDMA.c **** *  This function should not be called when the specified descriptor is active
1219:.\Generated_Source\PSoC4/CyDMA.c **** *  in the DMA transfer engine. This can be checked by calling CyDmaGetStatus(). 
1220:.\Generated_Source\PSoC4/CyDMA.c **** *
1221:.\Generated_Source\PSoC4/CyDMA.c **** *******************************************************************************/
1222:.\Generated_Source\PSoC4/CyDMA.c **** void CyDmaSetTriggerType(int32 channel, int32 descriptor, uint32 triggerType)
1223:.\Generated_Source\PSoC4/CyDMA.c **** {
 2916              		.loc 1 1223 0
 2917              		.cfi_startproc
 2918 0000 80B5     		push	{r7, lr}
 2919              		.cfi_def_cfa_offset 8
 2920              		.cfi_offset 7, -8
 2921              		.cfi_offset 14, -4
 2922 0002 86B0     		sub	sp, sp, #24
 2923              		.cfi_def_cfa_offset 32
 2924 0004 00AF     		add	r7, sp, #0
 2925              		.cfi_def_cfa_register 7
 2926 0006 F860     		str	r0, [r7, #12]
 2927 0008 B960     		str	r1, [r7, #8]
 2928 000a 7A60     		str	r2, [r7, #4]
ARM GAS  C:\Users\Matty\AppData\Local\Temp\ccXs7IQl.s 			page 74


1224:.\Generated_Source\PSoC4/CyDMA.c ****     uint32 regValue;
1225:.\Generated_Source\PSoC4/CyDMA.c **** 
1226:.\Generated_Source\PSoC4/CyDMA.c ****     CYASSERT((channel    >= 0) && (channel    < CYDMA_CH_NR));
 2929              		.loc 1 1226 0
 2930 000c FB68     		ldr	r3, [r7, #12]
 2931 000e 002B     		cmp	r3, #0
 2932 0010 04DB     		blt	.L288
 2933              		.loc 1 1226 0 is_stmt 0 discriminator 1
 2934 0012 FB68     		ldr	r3, [r7, #12]
 2935 0014 072B     		cmp	r3, #7
 2936 0016 01DC     		bgt	.L288
 2937              		.loc 1 1226 0 discriminator 3
 2938 0018 0123     		mov	r3, #1
 2939 001a 00E0     		b	.L289
 2940              	.L288:
 2941              		.loc 1 1226 0 discriminator 2
 2942 001c 0023     		mov	r3, #0
 2943              	.L289:
 2944              		.loc 1 1226 0 discriminator 4
 2945 001e 002B     		cmp	r3, #0
 2946 0020 02D1     		bne	.L290
 2947              		.loc 1 1226 0 discriminator 1
 2948 0022 0020     		mov	r0, #0
 2949 0024 FFF7FEFF 		bl	CyHalt
 2950              	.L290:
1227:.\Generated_Source\PSoC4/CyDMA.c ****     CYASSERT((descriptor >= 0) && (descriptor < CYDMA_DESCR_NR));
 2951              		.loc 1 1227 0 is_stmt 1
 2952 0028 BB68     		ldr	r3, [r7, #8]
 2953 002a 002B     		cmp	r3, #0
 2954 002c 04DB     		blt	.L291
 2955              		.loc 1 1227 0 is_stmt 0 discriminator 1
 2956 002e BB68     		ldr	r3, [r7, #8]
 2957 0030 012B     		cmp	r3, #1
 2958 0032 01DC     		bgt	.L291
 2959              		.loc 1 1227 0 discriminator 3
 2960 0034 0123     		mov	r3, #1
 2961 0036 00E0     		b	.L292
 2962              	.L291:
 2963              		.loc 1 1227 0 discriminator 2
 2964 0038 0023     		mov	r3, #0
 2965              	.L292:
 2966              		.loc 1 1227 0 discriminator 4
 2967 003a 002B     		cmp	r3, #0
 2968 003c 02D1     		bne	.L293
 2969              		.loc 1 1227 0 discriminator 1
 2970 003e 0020     		mov	r0, #0
 2971 0040 FFF7FEFF 		bl	CyHalt
 2972              	.L293:
1228:.\Generated_Source\PSoC4/CyDMA.c ****     CYASSERT(0u == (triggerType & (uint32)~CYDMA_TRIGGER_TYPE));
 2973              		.loc 1 1228 0 is_stmt 1
 2974 0044 7A68     		ldr	r2, [r7, #4]
 2975 0046 104B     		ldr	r3, .L295
 2976 0048 1340     		and	r3, r2
 2977 004a 02D0     		beq	.L294
 2978              		.loc 1 1228 0 is_stmt 0 discriminator 1
 2979 004c 0020     		mov	r0, #0
 2980 004e FFF7FEFF 		bl	CyHalt
ARM GAS  C:\Users\Matty\AppData\Local\Temp\ccXs7IQl.s 			page 75


 2981              	.L294:
1229:.\Generated_Source\PSoC4/CyDMA.c **** 
1230:.\Generated_Source\PSoC4/CyDMA.c ****     regValue = CYDMA_DESCR_BASE.descriptor[channel][descriptor].ctl & (uint32)~CYDMA_TRIGGER_TYPE;
 2982              		.loc 1 1230 0 is_stmt 1
 2983 0052 0E4A     		ldr	r2, .L295+4
 2984 0054 FB68     		ldr	r3, [r7, #12]
 2985 0056 5900     		lsl	r1, r3, #1
 2986 0058 BB68     		ldr	r3, [r7, #8]
 2987 005a CB18     		add	r3, r1, r3
 2988 005c 1B01     		lsl	r3, r3, #4
 2989 005e D318     		add	r3, r2, r3
 2990 0060 0833     		add	r3, r3, #8
 2991 0062 1A68     		ldr	r2, [r3]
 2992 0064 084B     		ldr	r3, .L295
 2993 0066 1340     		and	r3, r2
 2994 0068 7B61     		str	r3, [r7, #20]
1231:.\Generated_Source\PSoC4/CyDMA.c ****     CYDMA_DESCR_BASE.descriptor[channel][descriptor].ctl = regValue | triggerType;
 2995              		.loc 1 1231 0
 2996 006a 0849     		ldr	r1, .L295+4
 2997 006c 7A69     		ldr	r2, [r7, #20]
 2998 006e 7B68     		ldr	r3, [r7, #4]
 2999 0070 1A43     		orr	r2, r3
 3000 0072 FB68     		ldr	r3, [r7, #12]
 3001 0074 5800     		lsl	r0, r3, #1
 3002 0076 BB68     		ldr	r3, [r7, #8]
 3003 0078 C318     		add	r3, r0, r3
 3004 007a 1B01     		lsl	r3, r3, #4
 3005 007c CB18     		add	r3, r1, r3
 3006 007e 0833     		add	r3, r3, #8
 3007 0080 1A60     		str	r2, [r3]
1232:.\Generated_Source\PSoC4/CyDMA.c **** }
 3008              		.loc 1 1232 0
 3009 0082 BD46     		mov	sp, r7
 3010 0084 06B0     		add	sp, sp, #24
 3011              		@ sp needed
 3012 0086 80BD     		pop	{r7, pc}
 3013              	.L296:
 3014              		.align	2
 3015              	.L295:
 3016 0088 FFFFFFFC 		.word	-50331649
 3017 008c 00181040 		.word	1074796544
 3018              		.cfi_endproc
 3019              	.LFE41:
 3020              		.size	CyDmaSetTriggerType, .-CyDmaSetTriggerType
 3021              		.section	.text.CyDmaGetTriggerType,"ax",%progbits
 3022              		.align	2
 3023              		.global	CyDmaGetTriggerType
 3024              		.code	16
 3025              		.thumb_func
 3026              		.type	CyDmaGetTriggerType, %function
 3027              	CyDmaGetTriggerType:
 3028              	.LFB42:
1233:.\Generated_Source\PSoC4/CyDMA.c **** 
1234:.\Generated_Source\PSoC4/CyDMA.c **** 
1235:.\Generated_Source\PSoC4/CyDMA.c **** /*******************************************************************************
1236:.\Generated_Source\PSoC4/CyDMA.c **** * Function Name: CyDmaGetTriggerType
1237:.\Generated_Source\PSoC4/CyDMA.c **** ********************************************************************************
ARM GAS  C:\Users\Matty\AppData\Local\Temp\ccXs7IQl.s 			page 76


1238:.\Generated_Source\PSoC4/CyDMA.c **** *
1239:.\Generated_Source\PSoC4/CyDMA.c **** * Summary:
1240:.\Generated_Source\PSoC4/CyDMA.c **** *  Returns the trigger deactivation settings as set by CyDmaSetTriggerType() or
1241:.\Generated_Source\PSoC4/CyDMA.c **** *  CyDmaSetConfiguration().
1242:.\Generated_Source\PSoC4/CyDMA.c **** *
1243:.\Generated_Source\PSoC4/CyDMA.c **** * Parameters:
1244:.\Generated_Source\PSoC4/CyDMA.c **** *  channel:    Channel used by this function.
1245:.\Generated_Source\PSoC4/CyDMA.c **** *  descriptor: Descriptor (0 or 1) modified by this function.
1246:.\Generated_Source\PSoC4/CyDMA.c **** *                   
1247:.\Generated_Source\PSoC4/CyDMA.c **** * Return:
1248:.\Generated_Source\PSoC4/CyDMA.c **** *  Trigger deactivation settings. Refer to the API bit field definitions in
1249:.\Generated_Source\PSoC4/CyDMA.c **** *  CyDMA_P4.h or the API description in the DMA channel datasheet for more
1250:.\Generated_Source\PSoC4/CyDMA.c **** *  information.
1251:.\Generated_Source\PSoC4/CyDMA.c **** *
1252:.\Generated_Source\PSoC4/CyDMA.c **** *******************************************************************************/
1253:.\Generated_Source\PSoC4/CyDMA.c **** uint32 CyDmaGetTriggerType(int32 channel, int32 descriptor)
1254:.\Generated_Source\PSoC4/CyDMA.c **** {
 3029              		.loc 1 1254 0
 3030              		.cfi_startproc
 3031 0000 80B5     		push	{r7, lr}
 3032              		.cfi_def_cfa_offset 8
 3033              		.cfi_offset 7, -8
 3034              		.cfi_offset 14, -4
 3035 0002 82B0     		sub	sp, sp, #8
 3036              		.cfi_def_cfa_offset 16
 3037 0004 00AF     		add	r7, sp, #0
 3038              		.cfi_def_cfa_register 7
 3039 0006 7860     		str	r0, [r7, #4]
 3040 0008 3960     		str	r1, [r7]
1255:.\Generated_Source\PSoC4/CyDMA.c ****     CYASSERT((channel    >= 0) && (channel    < CYDMA_CH_NR));
 3041              		.loc 1 1255 0
 3042 000a 7B68     		ldr	r3, [r7, #4]
 3043 000c 002B     		cmp	r3, #0
 3044 000e 04DB     		blt	.L298
 3045              		.loc 1 1255 0 is_stmt 0 discriminator 1
 3046 0010 7B68     		ldr	r3, [r7, #4]
 3047 0012 072B     		cmp	r3, #7
 3048 0014 01DC     		bgt	.L298
 3049              		.loc 1 1255 0 discriminator 3
 3050 0016 0123     		mov	r3, #1
 3051 0018 00E0     		b	.L299
 3052              	.L298:
 3053              		.loc 1 1255 0 discriminator 2
 3054 001a 0023     		mov	r3, #0
 3055              	.L299:
 3056              		.loc 1 1255 0 discriminator 4
 3057 001c 002B     		cmp	r3, #0
 3058 001e 02D1     		bne	.L300
 3059              		.loc 1 1255 0 discriminator 1
 3060 0020 0020     		mov	r0, #0
 3061 0022 FFF7FEFF 		bl	CyHalt
 3062              	.L300:
1256:.\Generated_Source\PSoC4/CyDMA.c ****     CYASSERT((descriptor >= 0) && (descriptor < CYDMA_DESCR_NR));
 3063              		.loc 1 1256 0 is_stmt 1
 3064 0026 3B68     		ldr	r3, [r7]
 3065 0028 002B     		cmp	r3, #0
 3066 002a 04DB     		blt	.L301
ARM GAS  C:\Users\Matty\AppData\Local\Temp\ccXs7IQl.s 			page 77


 3067              		.loc 1 1256 0 is_stmt 0 discriminator 1
 3068 002c 3B68     		ldr	r3, [r7]
 3069 002e 012B     		cmp	r3, #1
 3070 0030 01DC     		bgt	.L301
 3071              		.loc 1 1256 0 discriminator 3
 3072 0032 0123     		mov	r3, #1
 3073 0034 00E0     		b	.L302
 3074              	.L301:
 3075              		.loc 1 1256 0 discriminator 2
 3076 0036 0023     		mov	r3, #0
 3077              	.L302:
 3078              		.loc 1 1256 0 discriminator 4
 3079 0038 002B     		cmp	r3, #0
 3080 003a 02D1     		bne	.L303
 3081              		.loc 1 1256 0 discriminator 1
 3082 003c 0020     		mov	r0, #0
 3083 003e FFF7FEFF 		bl	CyHalt
 3084              	.L303:
1257:.\Generated_Source\PSoC4/CyDMA.c **** 
1258:.\Generated_Source\PSoC4/CyDMA.c ****     return (CYDMA_DESCR_BASE.descriptor[channel][descriptor].ctl & CYDMA_TRIGGER_TYPE);
 3085              		.loc 1 1258 0 is_stmt 1
 3086 0042 084A     		ldr	r2, .L305
 3087 0044 7B68     		ldr	r3, [r7, #4]
 3088 0046 5900     		lsl	r1, r3, #1
 3089 0048 3B68     		ldr	r3, [r7]
 3090 004a CB18     		add	r3, r1, r3
 3091 004c 1B01     		lsl	r3, r3, #4
 3092 004e D318     		add	r3, r2, r3
 3093 0050 0833     		add	r3, r3, #8
 3094 0052 1A68     		ldr	r2, [r3]
 3095 0054 C023     		mov	r3, #192
 3096 0056 9B04     		lsl	r3, r3, #18
 3097 0058 1340     		and	r3, r2
1259:.\Generated_Source\PSoC4/CyDMA.c **** }
 3098              		.loc 1 1259 0
 3099 005a 181C     		mov	r0, r3
 3100 005c BD46     		mov	sp, r7
 3101 005e 02B0     		add	sp, sp, #8
 3102              		@ sp needed
 3103 0060 80BD     		pop	{r7, pc}
 3104              	.L306:
 3105 0062 C046     		.align	2
 3106              	.L305:
 3107 0064 00181040 		.word	1074796544
 3108              		.cfi_endproc
 3109              	.LFE42:
 3110              		.size	CyDmaGetTriggerType, .-CyDmaGetTriggerType
 3111              		.section	.text.CyDmaSetTransferMode,"ax",%progbits
 3112              		.align	2
 3113              		.global	CyDmaSetTransferMode
 3114              		.code	16
 3115              		.thumb_func
 3116              		.type	CyDmaSetTransferMode, %function
 3117              	CyDmaSetTransferMode:
 3118              	.LFB43:
1260:.\Generated_Source\PSoC4/CyDMA.c **** 
1261:.\Generated_Source\PSoC4/CyDMA.c **** 
ARM GAS  C:\Users\Matty\AppData\Local\Temp\ccXs7IQl.s 			page 78


1262:.\Generated_Source\PSoC4/CyDMA.c **** /*******************************************************************************
1263:.\Generated_Source\PSoC4/CyDMA.c **** * Function Name: CyDmaSetTransferMode
1264:.\Generated_Source\PSoC4/CyDMA.c **** ********************************************************************************
1265:.\Generated_Source\PSoC4/CyDMA.c **** *
1266:.\Generated_Source\PSoC4/CyDMA.c **** * Summary:
1267:.\Generated_Source\PSoC4/CyDMA.c **** *  Sets the DMA transfer mode. This determines how the DMA reacts to each trigger
1268:.\Generated_Source\PSoC4/CyDMA.c **** *  event.
1269:.\Generated_Source\PSoC4/CyDMA.c **** *
1270:.\Generated_Source\PSoC4/CyDMA.c **** * Parameters:
1271:.\Generated_Source\PSoC4/CyDMA.c **** *  channel:      Channel used by this function.
1272:.\Generated_Source\PSoC4/CyDMA.c **** *  descriptor:   Descriptor (0 or 1) modified by this function.
1273:.\Generated_Source\PSoC4/CyDMA.c **** *  transferMode: Specifies the DMA transfer mode settings. Refer to the API bit
1274:.\Generated_Source\PSoC4/CyDMA.c **** *                field definitions in CyDMA_P4.h or the API description in the
1275:.\Generated_Source\PSoC4/CyDMA.c **** *                DMA channel datasheet for the parameter options.
1276:.\Generated_Source\PSoC4/CyDMA.c **** *                   
1277:.\Generated_Source\PSoC4/CyDMA.c **** * Return:
1278:.\Generated_Source\PSoC4/CyDMA.c **** *  None.
1279:.\Generated_Source\PSoC4/CyDMA.c **** *
1280:.\Generated_Source\PSoC4/CyDMA.c **** * Side effect:
1281:.\Generated_Source\PSoC4/CyDMA.c **** *  This function should not be called when the specified descriptor is active
1282:.\Generated_Source\PSoC4/CyDMA.c **** *  in the DMA transfer engine. This can be checked by calling CyDmaGetStatus(). 
1283:.\Generated_Source\PSoC4/CyDMA.c **** *
1284:.\Generated_Source\PSoC4/CyDMA.c **** *******************************************************************************/
1285:.\Generated_Source\PSoC4/CyDMA.c **** void CyDmaSetTransferMode(int32 channel, int32 descriptor, uint32 transferMode)
1286:.\Generated_Source\PSoC4/CyDMA.c **** {
 3119              		.loc 1 1286 0
 3120              		.cfi_startproc
 3121 0000 80B5     		push	{r7, lr}
 3122              		.cfi_def_cfa_offset 8
 3123              		.cfi_offset 7, -8
 3124              		.cfi_offset 14, -4
 3125 0002 86B0     		sub	sp, sp, #24
 3126              		.cfi_def_cfa_offset 32
 3127 0004 00AF     		add	r7, sp, #0
 3128              		.cfi_def_cfa_register 7
 3129 0006 F860     		str	r0, [r7, #12]
 3130 0008 B960     		str	r1, [r7, #8]
 3131 000a 7A60     		str	r2, [r7, #4]
1287:.\Generated_Source\PSoC4/CyDMA.c ****     uint32 regValue;
1288:.\Generated_Source\PSoC4/CyDMA.c **** 
1289:.\Generated_Source\PSoC4/CyDMA.c ****     CYASSERT((channel    >= 0) && (channel    < CYDMA_CH_NR));
 3132              		.loc 1 1289 0
 3133 000c FB68     		ldr	r3, [r7, #12]
 3134 000e 002B     		cmp	r3, #0
 3135 0010 04DB     		blt	.L308
 3136              		.loc 1 1289 0 is_stmt 0 discriminator 1
 3137 0012 FB68     		ldr	r3, [r7, #12]
 3138 0014 072B     		cmp	r3, #7
 3139 0016 01DC     		bgt	.L308
 3140              		.loc 1 1289 0 discriminator 3
 3141 0018 0123     		mov	r3, #1
 3142 001a 00E0     		b	.L309
 3143              	.L308:
 3144              		.loc 1 1289 0 discriminator 2
 3145 001c 0023     		mov	r3, #0
 3146              	.L309:
 3147              		.loc 1 1289 0 discriminator 4
ARM GAS  C:\Users\Matty\AppData\Local\Temp\ccXs7IQl.s 			page 79


 3148 001e 002B     		cmp	r3, #0
 3149 0020 02D1     		bne	.L310
 3150              		.loc 1 1289 0 discriminator 1
 3151 0022 0020     		mov	r0, #0
 3152 0024 FFF7FEFF 		bl	CyHalt
 3153              	.L310:
1290:.\Generated_Source\PSoC4/CyDMA.c ****     CYASSERT((descriptor >= 0) && (descriptor < CYDMA_DESCR_NR));
 3154              		.loc 1 1290 0 is_stmt 1
 3155 0028 BB68     		ldr	r3, [r7, #8]
 3156 002a 002B     		cmp	r3, #0
 3157 002c 04DB     		blt	.L311
 3158              		.loc 1 1290 0 is_stmt 0 discriminator 1
 3159 002e BB68     		ldr	r3, [r7, #8]
 3160 0030 012B     		cmp	r3, #1
 3161 0032 01DC     		bgt	.L311
 3162              		.loc 1 1290 0 discriminator 3
 3163 0034 0123     		mov	r3, #1
 3164 0036 00E0     		b	.L312
 3165              	.L311:
 3166              		.loc 1 1290 0 discriminator 2
 3167 0038 0023     		mov	r3, #0
 3168              	.L312:
 3169              		.loc 1 1290 0 discriminator 4
 3170 003a 002B     		cmp	r3, #0
 3171 003c 02D1     		bne	.L313
 3172              		.loc 1 1290 0 discriminator 1
 3173 003e 0020     		mov	r0, #0
 3174 0040 FFF7FEFF 		bl	CyHalt
 3175              	.L313:
1291:.\Generated_Source\PSoC4/CyDMA.c ****     CYASSERT(0u == (transferMode & (uint32)~CYDMA_TRANSFER_MODE));
 3176              		.loc 1 1291 0 is_stmt 1
 3177 0044 7B68     		ldr	r3, [r7, #4]
 3178 0046 9B00     		lsl	r3, r3, #2
 3179 0048 9B08     		lsr	r3, r3, #2
 3180 004a 02D0     		beq	.L314
 3181              		.loc 1 1291 0 is_stmt 0 discriminator 1
 3182 004c 0020     		mov	r0, #0
 3183 004e FFF7FEFF 		bl	CyHalt
 3184              	.L314:
1292:.\Generated_Source\PSoC4/CyDMA.c **** 
1293:.\Generated_Source\PSoC4/CyDMA.c ****     regValue = CYDMA_DESCR_BASE.descriptor[channel][descriptor].ctl & (uint32)~CYDMA_TRANSFER_MODE;
 3185              		.loc 1 1293 0 is_stmt 1
 3186 0052 0D4A     		ldr	r2, .L315
 3187 0054 FB68     		ldr	r3, [r7, #12]
 3188 0056 5900     		lsl	r1, r3, #1
 3189 0058 BB68     		ldr	r3, [r7, #8]
 3190 005a CB18     		add	r3, r1, r3
 3191 005c 1B01     		lsl	r3, r3, #4
 3192 005e D318     		add	r3, r2, r3
 3193 0060 0833     		add	r3, r3, #8
 3194 0062 1B68     		ldr	r3, [r3]
 3195 0064 9B00     		lsl	r3, r3, #2
 3196 0066 9B08     		lsr	r3, r3, #2
 3197 0068 7B61     		str	r3, [r7, #20]
1294:.\Generated_Source\PSoC4/CyDMA.c ****     CYDMA_DESCR_BASE.descriptor[channel][descriptor].ctl = regValue | transferMode;
 3198              		.loc 1 1294 0
 3199 006a 0749     		ldr	r1, .L315
ARM GAS  C:\Users\Matty\AppData\Local\Temp\ccXs7IQl.s 			page 80


 3200 006c 7A69     		ldr	r2, [r7, #20]
 3201 006e 7B68     		ldr	r3, [r7, #4]
 3202 0070 1A43     		orr	r2, r3
 3203 0072 FB68     		ldr	r3, [r7, #12]
 3204 0074 5800     		lsl	r0, r3, #1
 3205 0076 BB68     		ldr	r3, [r7, #8]
 3206 0078 C318     		add	r3, r0, r3
 3207 007a 1B01     		lsl	r3, r3, #4
 3208 007c CB18     		add	r3, r1, r3
 3209 007e 0833     		add	r3, r3, #8
 3210 0080 1A60     		str	r2, [r3]
1295:.\Generated_Source\PSoC4/CyDMA.c **** }
 3211              		.loc 1 1295 0
 3212 0082 BD46     		mov	sp, r7
 3213 0084 06B0     		add	sp, sp, #24
 3214              		@ sp needed
 3215 0086 80BD     		pop	{r7, pc}
 3216              	.L316:
 3217              		.align	2
 3218              	.L315:
 3219 0088 00181040 		.word	1074796544
 3220              		.cfi_endproc
 3221              	.LFE43:
 3222              		.size	CyDmaSetTransferMode, .-CyDmaSetTransferMode
 3223              		.section	.text.CyDmaGetTransferMode,"ax",%progbits
 3224              		.align	2
 3225              		.global	CyDmaGetTransferMode
 3226              		.code	16
 3227              		.thumb_func
 3228              		.type	CyDmaGetTransferMode, %function
 3229              	CyDmaGetTransferMode:
 3230              	.LFB44:
1296:.\Generated_Source\PSoC4/CyDMA.c **** 
1297:.\Generated_Source\PSoC4/CyDMA.c **** 
1298:.\Generated_Source\PSoC4/CyDMA.c **** /*******************************************************************************
1299:.\Generated_Source\PSoC4/CyDMA.c **** * Function Name: CyDmaGetTransferMode
1300:.\Generated_Source\PSoC4/CyDMA.c **** ********************************************************************************
1301:.\Generated_Source\PSoC4/CyDMA.c **** *
1302:.\Generated_Source\PSoC4/CyDMA.c **** * Summary:
1303:.\Generated_Source\PSoC4/CyDMA.c **** *  Returns the transfer mode for the specified descriptor as set by 
1304:.\Generated_Source\PSoC4/CyDMA.c **** *  CyDmaSetTransferMode() or CyDmaSetConfiguration.
1305:.\Generated_Source\PSoC4/CyDMA.c **** *
1306:.\Generated_Source\PSoC4/CyDMA.c **** * Parameters:
1307:.\Generated_Source\PSoC4/CyDMA.c **** *  channel:    Channel used by this function.
1308:.\Generated_Source\PSoC4/CyDMA.c **** *  descriptor: Descriptor (0 or 1) modified by this function.
1309:.\Generated_Source\PSoC4/CyDMA.c **** *                   
1310:.\Generated_Source\PSoC4/CyDMA.c **** * Return:
1311:.\Generated_Source\PSoC4/CyDMA.c **** *  DMA transfer mode settings. Refer to the API bit field definitions in
1312:.\Generated_Source\PSoC4/CyDMA.c **** *  CyDMA_P4.h or the API description in the DMA channel datasheet for more
1313:.\Generated_Source\PSoC4/CyDMA.c **** *  information.
1314:.\Generated_Source\PSoC4/CyDMA.c **** *
1315:.\Generated_Source\PSoC4/CyDMA.c **** *******************************************************************************/
1316:.\Generated_Source\PSoC4/CyDMA.c **** uint32 CyDmaGetTransferMode(int32 channel, int32 descriptor)
1317:.\Generated_Source\PSoC4/CyDMA.c **** {
 3231              		.loc 1 1317 0
 3232              		.cfi_startproc
 3233 0000 80B5     		push	{r7, lr}
ARM GAS  C:\Users\Matty\AppData\Local\Temp\ccXs7IQl.s 			page 81


 3234              		.cfi_def_cfa_offset 8
 3235              		.cfi_offset 7, -8
 3236              		.cfi_offset 14, -4
 3237 0002 82B0     		sub	sp, sp, #8
 3238              		.cfi_def_cfa_offset 16
 3239 0004 00AF     		add	r7, sp, #0
 3240              		.cfi_def_cfa_register 7
 3241 0006 7860     		str	r0, [r7, #4]
 3242 0008 3960     		str	r1, [r7]
1318:.\Generated_Source\PSoC4/CyDMA.c ****     CYASSERT((channel    >= 0) && (channel    < CYDMA_CH_NR));
 3243              		.loc 1 1318 0
 3244 000a 7B68     		ldr	r3, [r7, #4]
 3245 000c 002B     		cmp	r3, #0
 3246 000e 04DB     		blt	.L318
 3247              		.loc 1 1318 0 is_stmt 0 discriminator 1
 3248 0010 7B68     		ldr	r3, [r7, #4]
 3249 0012 072B     		cmp	r3, #7
 3250 0014 01DC     		bgt	.L318
 3251              		.loc 1 1318 0 discriminator 3
 3252 0016 0123     		mov	r3, #1
 3253 0018 00E0     		b	.L319
 3254              	.L318:
 3255              		.loc 1 1318 0 discriminator 2
 3256 001a 0023     		mov	r3, #0
 3257              	.L319:
 3258              		.loc 1 1318 0 discriminator 4
 3259 001c 002B     		cmp	r3, #0
 3260 001e 02D1     		bne	.L320
 3261              		.loc 1 1318 0 discriminator 1
 3262 0020 0020     		mov	r0, #0
 3263 0022 FFF7FEFF 		bl	CyHalt
 3264              	.L320:
1319:.\Generated_Source\PSoC4/CyDMA.c ****     CYASSERT((descriptor >= 0) && (descriptor < CYDMA_DESCR_NR));
 3265              		.loc 1 1319 0 is_stmt 1
 3266 0026 3B68     		ldr	r3, [r7]
 3267 0028 002B     		cmp	r3, #0
 3268 002a 04DB     		blt	.L321
 3269              		.loc 1 1319 0 is_stmt 0 discriminator 1
 3270 002c 3B68     		ldr	r3, [r7]
 3271 002e 012B     		cmp	r3, #1
 3272 0030 01DC     		bgt	.L321
 3273              		.loc 1 1319 0 discriminator 3
 3274 0032 0123     		mov	r3, #1
 3275 0034 00E0     		b	.L322
 3276              	.L321:
 3277              		.loc 1 1319 0 discriminator 2
 3278 0036 0023     		mov	r3, #0
 3279              	.L322:
 3280              		.loc 1 1319 0 discriminator 4
 3281 0038 002B     		cmp	r3, #0
 3282 003a 02D1     		bne	.L323
 3283              		.loc 1 1319 0 discriminator 1
 3284 003c 0020     		mov	r0, #0
 3285 003e FFF7FEFF 		bl	CyHalt
 3286              	.L323:
1320:.\Generated_Source\PSoC4/CyDMA.c **** 
1321:.\Generated_Source\PSoC4/CyDMA.c ****     return (CYDMA_DESCR_BASE.descriptor[channel][descriptor].ctl & CYDMA_TRANSFER_MODE);
ARM GAS  C:\Users\Matty\AppData\Local\Temp\ccXs7IQl.s 			page 82


 3287              		.loc 1 1321 0 is_stmt 1
 3288 0042 074A     		ldr	r2, .L325
 3289 0044 7B68     		ldr	r3, [r7, #4]
 3290 0046 5900     		lsl	r1, r3, #1
 3291 0048 3B68     		ldr	r3, [r7]
 3292 004a CB18     		add	r3, r1, r3
 3293 004c 1B01     		lsl	r3, r3, #4
 3294 004e D318     		add	r3, r2, r3
 3295 0050 0833     		add	r3, r3, #8
 3296 0052 1B68     		ldr	r3, [r3]
 3297 0054 9B0F     		lsr	r3, r3, #30
 3298 0056 9B07     		lsl	r3, r3, #30
1322:.\Generated_Source\PSoC4/CyDMA.c **** }
 3299              		.loc 1 1322 0
 3300 0058 181C     		mov	r0, r3
 3301 005a BD46     		mov	sp, r7
 3302 005c 02B0     		add	sp, sp, #8
 3303              		@ sp needed
 3304 005e 80BD     		pop	{r7, pc}
 3305              	.L326:
 3306              		.align	2
 3307              	.L325:
 3308 0060 00181040 		.word	1074796544
 3309              		.cfi_endproc
 3310              	.LFE44:
 3311              		.size	CyDmaGetTransferMode, .-CyDmaGetTransferMode
 3312              		.section	.text.CyDmaSetPreemptable,"ax",%progbits
 3313              		.align	2
 3314              		.global	CyDmaSetPreemptable
 3315              		.code	16
 3316              		.thumb_func
 3317              		.type	CyDmaSetPreemptable, %function
 3318              	CyDmaSetPreemptable:
 3319              	.LFB45:
1323:.\Generated_Source\PSoC4/CyDMA.c **** 
1324:.\Generated_Source\PSoC4/CyDMA.c **** 
1325:.\Generated_Source\PSoC4/CyDMA.c **** /*******************************************************************************
1326:.\Generated_Source\PSoC4/CyDMA.c **** * Function Name: CyDmaSetPreemptable
1327:.\Generated_Source\PSoC4/CyDMA.c **** ********************************************************************************
1328:.\Generated_Source\PSoC4/CyDMA.c **** *
1329:.\Generated_Source\PSoC4/CyDMA.c **** * Summary:
1330:.\Generated_Source\PSoC4/CyDMA.c **** *  Determines if the descriptor is preemptable.
1331:.\Generated_Source\PSoC4/CyDMA.c **** *
1332:.\Generated_Source\PSoC4/CyDMA.c **** * Parameters:
1333:.\Generated_Source\PSoC4/CyDMA.c **** *  channel:     Channel used by this function.
1334:.\Generated_Source\PSoC4/CyDMA.c **** *  descriptor:  Descriptor (0 or 1) modified by this function.
1335:.\Generated_Source\PSoC4/CyDMA.c **** *  preemptable: Descriptor preemption settings. Refer to the API bit fields
1336:.\Generated_Source\PSoC4/CyDMA.c **** *               definition in CyDMA_P4.h or the API description in the DMA 
1337:.\Generated_Source\PSoC4/CyDMA.c **** *               channel datasheet for the parameter options.
1338:.\Generated_Source\PSoC4/CyDMA.c **** *                   
1339:.\Generated_Source\PSoC4/CyDMA.c **** * Return:
1340:.\Generated_Source\PSoC4/CyDMA.c **** *  None.
1341:.\Generated_Source\PSoC4/CyDMA.c **** *
1342:.\Generated_Source\PSoC4/CyDMA.c **** * Side effect:
1343:.\Generated_Source\PSoC4/CyDMA.c **** *  This function should not be called when the specified descriptor is active
1344:.\Generated_Source\PSoC4/CyDMA.c **** *  in the DMA transfer engine. This can be checked by calling CyDmaGetStatus(). 
1345:.\Generated_Source\PSoC4/CyDMA.c **** *
ARM GAS  C:\Users\Matty\AppData\Local\Temp\ccXs7IQl.s 			page 83


1346:.\Generated_Source\PSoC4/CyDMA.c **** *******************************************************************************/
1347:.\Generated_Source\PSoC4/CyDMA.c **** void CyDmaSetPreemptable(int32 channel, int32 descriptor, uint32 preemptable)
1348:.\Generated_Source\PSoC4/CyDMA.c **** {
 3320              		.loc 1 1348 0
 3321              		.cfi_startproc
 3322 0000 80B5     		push	{r7, lr}
 3323              		.cfi_def_cfa_offset 8
 3324              		.cfi_offset 7, -8
 3325              		.cfi_offset 14, -4
 3326 0002 86B0     		sub	sp, sp, #24
 3327              		.cfi_def_cfa_offset 32
 3328 0004 00AF     		add	r7, sp, #0
 3329              		.cfi_def_cfa_register 7
 3330 0006 F860     		str	r0, [r7, #12]
 3331 0008 B960     		str	r1, [r7, #8]
 3332 000a 7A60     		str	r2, [r7, #4]
1349:.\Generated_Source\PSoC4/CyDMA.c ****     uint32 regValue;
1350:.\Generated_Source\PSoC4/CyDMA.c **** 
1351:.\Generated_Source\PSoC4/CyDMA.c ****     CYASSERT((channel    >= 0) && (channel    < CYDMA_CH_NR));
 3333              		.loc 1 1351 0
 3334 000c FB68     		ldr	r3, [r7, #12]
 3335 000e 002B     		cmp	r3, #0
 3336 0010 04DB     		blt	.L328
 3337              		.loc 1 1351 0 is_stmt 0 discriminator 1
 3338 0012 FB68     		ldr	r3, [r7, #12]
 3339 0014 072B     		cmp	r3, #7
 3340 0016 01DC     		bgt	.L328
 3341              		.loc 1 1351 0 discriminator 3
 3342 0018 0123     		mov	r3, #1
 3343 001a 00E0     		b	.L329
 3344              	.L328:
 3345              		.loc 1 1351 0 discriminator 2
 3346 001c 0023     		mov	r3, #0
 3347              	.L329:
 3348              		.loc 1 1351 0 discriminator 4
 3349 001e 002B     		cmp	r3, #0
 3350 0020 02D1     		bne	.L330
 3351              		.loc 1 1351 0 discriminator 1
 3352 0022 0020     		mov	r0, #0
 3353 0024 FFF7FEFF 		bl	CyHalt
 3354              	.L330:
1352:.\Generated_Source\PSoC4/CyDMA.c ****     CYASSERT((descriptor >= 0) && (descriptor < CYDMA_DESCR_NR));
 3355              		.loc 1 1352 0 is_stmt 1
 3356 0028 BB68     		ldr	r3, [r7, #8]
 3357 002a 002B     		cmp	r3, #0
 3358 002c 04DB     		blt	.L331
 3359              		.loc 1 1352 0 is_stmt 0 discriminator 1
 3360 002e BB68     		ldr	r3, [r7, #8]
 3361 0030 012B     		cmp	r3, #1
 3362 0032 01DC     		bgt	.L331
 3363              		.loc 1 1352 0 discriminator 3
 3364 0034 0123     		mov	r3, #1
 3365 0036 00E0     		b	.L332
 3366              	.L331:
 3367              		.loc 1 1352 0 discriminator 2
 3368 0038 0023     		mov	r3, #0
 3369              	.L332:
ARM GAS  C:\Users\Matty\AppData\Local\Temp\ccXs7IQl.s 			page 84


 3370              		.loc 1 1352 0 discriminator 4
 3371 003a 002B     		cmp	r3, #0
 3372 003c 02D1     		bne	.L333
 3373              		.loc 1 1352 0 discriminator 1
 3374 003e 0020     		mov	r0, #0
 3375 0040 FFF7FEFF 		bl	CyHalt
 3376              	.L333:
1353:.\Generated_Source\PSoC4/CyDMA.c ****     CYASSERT(0u == (preemptable & (uint32)~CYDMA_PREEMPTABLE));
 3377              		.loc 1 1353 0 is_stmt 1
 3378 0044 7A68     		ldr	r2, [r7, #4]
 3379 0046 104B     		ldr	r3, .L335
 3380 0048 1340     		and	r3, r2
 3381 004a 02D0     		beq	.L334
 3382              		.loc 1 1353 0 is_stmt 0 discriminator 1
 3383 004c 0020     		mov	r0, #0
 3384 004e FFF7FEFF 		bl	CyHalt
 3385              	.L334:
1354:.\Generated_Source\PSoC4/CyDMA.c **** 
1355:.\Generated_Source\PSoC4/CyDMA.c ****     regValue = CYDMA_DESCR_BASE.descriptor[channel][descriptor].ctl & (uint32)~CYDMA_PREEMPTABLE;
 3386              		.loc 1 1355 0 is_stmt 1
 3387 0052 0E4A     		ldr	r2, .L335+4
 3388 0054 FB68     		ldr	r3, [r7, #12]
 3389 0056 5900     		lsl	r1, r3, #1
 3390 0058 BB68     		ldr	r3, [r7, #8]
 3391 005a CB18     		add	r3, r1, r3
 3392 005c 1B01     		lsl	r3, r3, #4
 3393 005e D318     		add	r3, r2, r3
 3394 0060 0833     		add	r3, r3, #8
 3395 0062 1A68     		ldr	r2, [r3]
 3396 0064 084B     		ldr	r3, .L335
 3397 0066 1340     		and	r3, r2
 3398 0068 7B61     		str	r3, [r7, #20]
1356:.\Generated_Source\PSoC4/CyDMA.c ****     CYDMA_DESCR_BASE.descriptor[channel][descriptor].ctl = regValue | preemptable;
 3399              		.loc 1 1356 0
 3400 006a 0849     		ldr	r1, .L335+4
 3401 006c 7A69     		ldr	r2, [r7, #20]
 3402 006e 7B68     		ldr	r3, [r7, #4]
 3403 0070 1A43     		orr	r2, r3
 3404 0072 FB68     		ldr	r3, [r7, #12]
 3405 0074 5800     		lsl	r0, r3, #1
 3406 0076 BB68     		ldr	r3, [r7, #8]
 3407 0078 C318     		add	r3, r0, r3
 3408 007a 1B01     		lsl	r3, r3, #4
 3409 007c CB18     		add	r3, r1, r3
 3410 007e 0833     		add	r3, r3, #8
 3411 0080 1A60     		str	r2, [r3]
1357:.\Generated_Source\PSoC4/CyDMA.c **** }
 3412              		.loc 1 1357 0
 3413 0082 BD46     		mov	sp, r7
 3414 0084 06B0     		add	sp, sp, #24
 3415              		@ sp needed
 3416 0086 80BD     		pop	{r7, pc}
 3417              	.L336:
 3418              		.align	2
 3419              	.L335:
 3420 0088 FFFFFFEF 		.word	-268435457
 3421 008c 00181040 		.word	1074796544
ARM GAS  C:\Users\Matty\AppData\Local\Temp\ccXs7IQl.s 			page 85


 3422              		.cfi_endproc
 3423              	.LFE45:
 3424              		.size	CyDmaSetPreemptable, .-CyDmaSetPreemptable
 3425              		.section	.text.CyDmaGetPreemptable,"ax",%progbits
 3426              		.align	2
 3427              		.global	CyDmaGetPreemptable
 3428              		.code	16
 3429              		.thumb_func
 3430              		.type	CyDmaGetPreemptable, %function
 3431              	CyDmaGetPreemptable:
 3432              	.LFB46:
1358:.\Generated_Source\PSoC4/CyDMA.c **** 
1359:.\Generated_Source\PSoC4/CyDMA.c **** 
1360:.\Generated_Source\PSoC4/CyDMA.c **** /*******************************************************************************
1361:.\Generated_Source\PSoC4/CyDMA.c **** * Function Name: CyDmaGetPreemptable
1362:.\Generated_Source\PSoC4/CyDMA.c **** ********************************************************************************
1363:.\Generated_Source\PSoC4/CyDMA.c **** *
1364:.\Generated_Source\PSoC4/CyDMA.c **** * Summary:
1365:.\Generated_Source\PSoC4/CyDMA.c **** *  Returns whether or not the descriptor is preemptable.
1366:.\Generated_Source\PSoC4/CyDMA.c **** *
1367:.\Generated_Source\PSoC4/CyDMA.c **** * Parameters:
1368:.\Generated_Source\PSoC4/CyDMA.c **** *  channel:    Channel used by this function.
1369:.\Generated_Source\PSoC4/CyDMA.c **** *  descriptor: Descriptor (0 or 1) modified by this function.
1370:.\Generated_Source\PSoC4/CyDMA.c **** *                   
1371:.\Generated_Source\PSoC4/CyDMA.c **** * Return:
1372:.\Generated_Source\PSoC4/CyDMA.c **** *  Descriptor preemption setting. Refer to the API bit field definitions in
1373:.\Generated_Source\PSoC4/CyDMA.c **** *  CyDMA_P4.h or the API description in the DMA channel datasheet for more
1374:.\Generated_Source\PSoC4/CyDMA.c **** *  information.
1375:.\Generated_Source\PSoC4/CyDMA.c **** *
1376:.\Generated_Source\PSoC4/CyDMA.c **** *******************************************************************************/
1377:.\Generated_Source\PSoC4/CyDMA.c **** uint32 CyDmaGetPreemptable(int32 channel, int32 descriptor)
1378:.\Generated_Source\PSoC4/CyDMA.c **** {
 3433              		.loc 1 1378 0
 3434              		.cfi_startproc
 3435 0000 80B5     		push	{r7, lr}
 3436              		.cfi_def_cfa_offset 8
 3437              		.cfi_offset 7, -8
 3438              		.cfi_offset 14, -4
 3439 0002 82B0     		sub	sp, sp, #8
 3440              		.cfi_def_cfa_offset 16
 3441 0004 00AF     		add	r7, sp, #0
 3442              		.cfi_def_cfa_register 7
 3443 0006 7860     		str	r0, [r7, #4]
 3444 0008 3960     		str	r1, [r7]
1379:.\Generated_Source\PSoC4/CyDMA.c ****     CYASSERT((channel    >= 0) && (channel    < CYDMA_CH_NR));
 3445              		.loc 1 1379 0
 3446 000a 7B68     		ldr	r3, [r7, #4]
 3447 000c 002B     		cmp	r3, #0
 3448 000e 04DB     		blt	.L338
 3449              		.loc 1 1379 0 is_stmt 0 discriminator 1
 3450 0010 7B68     		ldr	r3, [r7, #4]
 3451 0012 072B     		cmp	r3, #7
 3452 0014 01DC     		bgt	.L338
 3453              		.loc 1 1379 0 discriminator 3
 3454 0016 0123     		mov	r3, #1
 3455 0018 00E0     		b	.L339
 3456              	.L338:
ARM GAS  C:\Users\Matty\AppData\Local\Temp\ccXs7IQl.s 			page 86


 3457              		.loc 1 1379 0 discriminator 2
 3458 001a 0023     		mov	r3, #0
 3459              	.L339:
 3460              		.loc 1 1379 0 discriminator 4
 3461 001c 002B     		cmp	r3, #0
 3462 001e 02D1     		bne	.L340
 3463              		.loc 1 1379 0 discriminator 1
 3464 0020 0020     		mov	r0, #0
 3465 0022 FFF7FEFF 		bl	CyHalt
 3466              	.L340:
1380:.\Generated_Source\PSoC4/CyDMA.c ****     CYASSERT((descriptor >= 0) && (descriptor < CYDMA_DESCR_NR));
 3467              		.loc 1 1380 0 is_stmt 1
 3468 0026 3B68     		ldr	r3, [r7]
 3469 0028 002B     		cmp	r3, #0
 3470 002a 04DB     		blt	.L341
 3471              		.loc 1 1380 0 is_stmt 0 discriminator 1
 3472 002c 3B68     		ldr	r3, [r7]
 3473 002e 012B     		cmp	r3, #1
 3474 0030 01DC     		bgt	.L341
 3475              		.loc 1 1380 0 discriminator 3
 3476 0032 0123     		mov	r3, #1
 3477 0034 00E0     		b	.L342
 3478              	.L341:
 3479              		.loc 1 1380 0 discriminator 2
 3480 0036 0023     		mov	r3, #0
 3481              	.L342:
 3482              		.loc 1 1380 0 discriminator 4
 3483 0038 002B     		cmp	r3, #0
 3484 003a 02D1     		bne	.L343
 3485              		.loc 1 1380 0 discriminator 1
 3486 003c 0020     		mov	r0, #0
 3487 003e FFF7FEFF 		bl	CyHalt
 3488              	.L343:
1381:.\Generated_Source\PSoC4/CyDMA.c **** 
1382:.\Generated_Source\PSoC4/CyDMA.c ****     return (CYDMA_DESCR_BASE.descriptor[channel][descriptor].ctl & CYDMA_PREEMPTABLE);
 3489              		.loc 1 1382 0 is_stmt 1
 3490 0042 084A     		ldr	r2, .L345
 3491 0044 7B68     		ldr	r3, [r7, #4]
 3492 0046 5900     		lsl	r1, r3, #1
 3493 0048 3B68     		ldr	r3, [r7]
 3494 004a CB18     		add	r3, r1, r3
 3495 004c 1B01     		lsl	r3, r3, #4
 3496 004e D318     		add	r3, r2, r3
 3497 0050 0833     		add	r3, r3, #8
 3498 0052 1A68     		ldr	r2, [r3]
 3499 0054 8023     		mov	r3, #128
 3500 0056 5B05     		lsl	r3, r3, #21
 3501 0058 1340     		and	r3, r2
1383:.\Generated_Source\PSoC4/CyDMA.c **** }
 3502              		.loc 1 1383 0
 3503 005a 181C     		mov	r0, r3
 3504 005c BD46     		mov	sp, r7
 3505 005e 02B0     		add	sp, sp, #8
 3506              		@ sp needed
 3507 0060 80BD     		pop	{r7, pc}
 3508              	.L346:
 3509 0062 C046     		.align	2
ARM GAS  C:\Users\Matty\AppData\Local\Temp\ccXs7IQl.s 			page 87


 3510              	.L345:
 3511 0064 00181040 		.word	1074796544
 3512              		.cfi_endproc
 3513              	.LFE46:
 3514              		.size	CyDmaGetPreemptable, .-CyDmaGetPreemptable
 3515              		.section	.text.CyDmaSetPostCompletionActions,"ax",%progbits
 3516              		.align	2
 3517              		.global	CyDmaSetPostCompletionActions
 3518              		.code	16
 3519              		.thumb_func
 3520              		.type	CyDmaSetPostCompletionActions, %function
 3521              	CyDmaSetPostCompletionActions:
 3522              	.LFB47:
1384:.\Generated_Source\PSoC4/CyDMA.c **** 
1385:.\Generated_Source\PSoC4/CyDMA.c **** 
1386:.\Generated_Source\PSoC4/CyDMA.c **** /*******************************************************************************
1387:.\Generated_Source\PSoC4/CyDMA.c **** * Function Name: CyDmaSetPostCompletionActions
1388:.\Generated_Source\PSoC4/CyDMA.c **** ********************************************************************************
1389:.\Generated_Source\PSoC4/CyDMA.c **** *
1390:.\Generated_Source\PSoC4/CyDMA.c **** * Summary:
1391:.\Generated_Source\PSoC4/CyDMA.c **** *  Determines what occurs after a descriptor completes.
1392:.\Generated_Source\PSoC4/CyDMA.c **** *
1393:.\Generated_Source\PSoC4/CyDMA.c **** * Parameters:
1394:.\Generated_Source\PSoC4/CyDMA.c **** *  channel:    Channel used by this function.
1395:.\Generated_Source\PSoC4/CyDMA.c **** *  descriptor: Descriptor (0 or 1) modified by this function.
1396:.\Generated_Source\PSoC4/CyDMA.c **** *  actions:    Specifies descriptor post completion actions. Refer to the API
1397:.\Generated_Source\PSoC4/CyDMA.c **** *              bit field definitions in CyDMA_P4.h or the API description
1398:.\Generated_Source\PSoC4/CyDMA.c **** *              in the DMA channel datasheet for the parameter options.
1399:.\Generated_Source\PSoC4/CyDMA.c **** *                   
1400:.\Generated_Source\PSoC4/CyDMA.c **** * Return:
1401:.\Generated_Source\PSoC4/CyDMA.c **** *  None.  
1402:.\Generated_Source\PSoC4/CyDMA.c **** *
1403:.\Generated_Source\PSoC4/CyDMA.c **** * Side effect:
1404:.\Generated_Source\PSoC4/CyDMA.c **** *  This function should not be called when the specified descriptor is active
1405:.\Generated_Source\PSoC4/CyDMA.c **** *  in the DMA transfer engine. This can be checked by calling CyDmaGetStatus(). 
1406:.\Generated_Source\PSoC4/CyDMA.c **** *
1407:.\Generated_Source\PSoC4/CyDMA.c **** *******************************************************************************/
1408:.\Generated_Source\PSoC4/CyDMA.c **** void CyDmaSetPostCompletionActions(int32 channel, int32 descriptor, uint32 actions)
1409:.\Generated_Source\PSoC4/CyDMA.c **** {
 3523              		.loc 1 1409 0
 3524              		.cfi_startproc
 3525 0000 80B5     		push	{r7, lr}
 3526              		.cfi_def_cfa_offset 8
 3527              		.cfi_offset 7, -8
 3528              		.cfi_offset 14, -4
 3529 0002 86B0     		sub	sp, sp, #24
 3530              		.cfi_def_cfa_offset 32
 3531 0004 00AF     		add	r7, sp, #0
 3532              		.cfi_def_cfa_register 7
 3533 0006 F860     		str	r0, [r7, #12]
 3534 0008 B960     		str	r1, [r7, #8]
 3535 000a 7A60     		str	r2, [r7, #4]
1410:.\Generated_Source\PSoC4/CyDMA.c ****     uint32 regValue;
1411:.\Generated_Source\PSoC4/CyDMA.c **** 
1412:.\Generated_Source\PSoC4/CyDMA.c ****     CYASSERT((channel    >= 0) && (channel    < CYDMA_CH_NR));
 3536              		.loc 1 1412 0
 3537 000c FB68     		ldr	r3, [r7, #12]
ARM GAS  C:\Users\Matty\AppData\Local\Temp\ccXs7IQl.s 			page 88


 3538 000e 002B     		cmp	r3, #0
 3539 0010 04DB     		blt	.L348
 3540              		.loc 1 1412 0 is_stmt 0 discriminator 1
 3541 0012 FB68     		ldr	r3, [r7, #12]
 3542 0014 072B     		cmp	r3, #7
 3543 0016 01DC     		bgt	.L348
 3544              		.loc 1 1412 0 discriminator 3
 3545 0018 0123     		mov	r3, #1
 3546 001a 00E0     		b	.L349
 3547              	.L348:
 3548              		.loc 1 1412 0 discriminator 2
 3549 001c 0023     		mov	r3, #0
 3550              	.L349:
 3551              		.loc 1 1412 0 discriminator 4
 3552 001e 002B     		cmp	r3, #0
 3553 0020 02D1     		bne	.L350
 3554              		.loc 1 1412 0 discriminator 1
 3555 0022 0020     		mov	r0, #0
 3556 0024 FFF7FEFF 		bl	CyHalt
 3557              	.L350:
1413:.\Generated_Source\PSoC4/CyDMA.c ****     CYASSERT((descriptor >= 0) && (descriptor < CYDMA_DESCR_NR));
 3558              		.loc 1 1413 0 is_stmt 1
 3559 0028 BB68     		ldr	r3, [r7, #8]
 3560 002a 002B     		cmp	r3, #0
 3561 002c 04DB     		blt	.L351
 3562              		.loc 1 1413 0 is_stmt 0 discriminator 1
 3563 002e BB68     		ldr	r3, [r7, #8]
 3564 0030 012B     		cmp	r3, #1
 3565 0032 01DC     		bgt	.L351
 3566              		.loc 1 1413 0 discriminator 3
 3567 0034 0123     		mov	r3, #1
 3568 0036 00E0     		b	.L352
 3569              	.L351:
 3570              		.loc 1 1413 0 discriminator 2
 3571 0038 0023     		mov	r3, #0
 3572              	.L352:
 3573              		.loc 1 1413 0 discriminator 4
 3574 003a 002B     		cmp	r3, #0
 3575 003c 02D1     		bne	.L353
 3576              		.loc 1 1413 0 discriminator 1
 3577 003e 0020     		mov	r0, #0
 3578 0040 FFF7FEFF 		bl	CyHalt
 3579              	.L353:
1414:.\Generated_Source\PSoC4/CyDMA.c ****     CYASSERT(0u == (actions & (uint32)~CYDMA_POST_COMPLETE_ACTIONS));
 3580              		.loc 1 1414 0 is_stmt 1
 3581 0044 7A68     		ldr	r2, [r7, #4]
 3582 0046 104B     		ldr	r3, .L355
 3583 0048 1340     		and	r3, r2
 3584 004a 02D0     		beq	.L354
 3585              		.loc 1 1414 0 is_stmt 0 discriminator 1
 3586 004c 0020     		mov	r0, #0
 3587 004e FFF7FEFF 		bl	CyHalt
 3588              	.L354:
1415:.\Generated_Source\PSoC4/CyDMA.c **** 
1416:.\Generated_Source\PSoC4/CyDMA.c ****     regValue = CYDMA_DESCR_BASE.descriptor[channel][descriptor].ctl & (uint32)~CYDMA_POST_COMPLETE_
 3589              		.loc 1 1416 0 is_stmt 1
 3590 0052 0E4A     		ldr	r2, .L355+4
ARM GAS  C:\Users\Matty\AppData\Local\Temp\ccXs7IQl.s 			page 89


 3591 0054 FB68     		ldr	r3, [r7, #12]
 3592 0056 5900     		lsl	r1, r3, #1
 3593 0058 BB68     		ldr	r3, [r7, #8]
 3594 005a CB18     		add	r3, r1, r3
 3595 005c 1B01     		lsl	r3, r3, #4
 3596 005e D318     		add	r3, r2, r3
 3597 0060 0833     		add	r3, r3, #8
 3598 0062 1A68     		ldr	r2, [r3]
 3599 0064 084B     		ldr	r3, .L355
 3600 0066 1340     		and	r3, r2
 3601 0068 7B61     		str	r3, [r7, #20]
1417:.\Generated_Source\PSoC4/CyDMA.c ****     CYDMA_DESCR_BASE.descriptor[channel][descriptor].ctl = regValue | actions;
 3602              		.loc 1 1417 0
 3603 006a 0849     		ldr	r1, .L355+4
 3604 006c 7A69     		ldr	r2, [r7, #20]
 3605 006e 7B68     		ldr	r3, [r7, #4]
 3606 0070 1A43     		orr	r2, r3
 3607 0072 FB68     		ldr	r3, [r7, #12]
 3608 0074 5800     		lsl	r0, r3, #1
 3609 0076 BB68     		ldr	r3, [r7, #8]
 3610 0078 C318     		add	r3, r0, r3
 3611 007a 1B01     		lsl	r3, r3, #4
 3612 007c CB18     		add	r3, r1, r3
 3613 007e 0833     		add	r3, r3, #8
 3614 0080 1A60     		str	r2, [r3]
1418:.\Generated_Source\PSoC4/CyDMA.c **** }
 3615              		.loc 1 1418 0
 3616 0082 BD46     		mov	sp, r7
 3617 0084 06B0     		add	sp, sp, #24
 3618              		@ sp needed
 3619 0086 80BD     		pop	{r7, pc}
 3620              	.L356:
 3621              		.align	2
 3622              	.L355:
 3623 0088 FFFFFFD3 		.word	-738197505
 3624 008c 00181040 		.word	1074796544
 3625              		.cfi_endproc
 3626              	.LFE47:
 3627              		.size	CyDmaSetPostCompletionActions, .-CyDmaSetPostCompletionActions
 3628              		.section	.text.CyDmaGetPostCompletionActions,"ax",%progbits
 3629              		.align	2
 3630              		.global	CyDmaGetPostCompletionActions
 3631              		.code	16
 3632              		.thumb_func
 3633              		.type	CyDmaGetPostCompletionActions, %function
 3634              	CyDmaGetPostCompletionActions:
 3635              	.LFB48:
1419:.\Generated_Source\PSoC4/CyDMA.c **** 
1420:.\Generated_Source\PSoC4/CyDMA.c **** 
1421:.\Generated_Source\PSoC4/CyDMA.c **** /*******************************************************************************
1422:.\Generated_Source\PSoC4/CyDMA.c **** * Function Name: CyDmaGetPostCompletionActions
1423:.\Generated_Source\PSoC4/CyDMA.c **** ********************************************************************************
1424:.\Generated_Source\PSoC4/CyDMA.c **** *
1425:.\Generated_Source\PSoC4/CyDMA.c **** * Summary:
1426:.\Generated_Source\PSoC4/CyDMA.c **** *  Returns the post descriptor action settings as set by 
1427:.\Generated_Source\PSoC4/CyDMA.c **** *  CyDmaSetPostCompletionActions() or CyDmaSetConfiguration().
1428:.\Generated_Source\PSoC4/CyDMA.c **** *
ARM GAS  C:\Users\Matty\AppData\Local\Temp\ccXs7IQl.s 			page 90


1429:.\Generated_Source\PSoC4/CyDMA.c **** * Parameters:
1430:.\Generated_Source\PSoC4/CyDMA.c **** *  channel:    Channel used by this function.
1431:.\Generated_Source\PSoC4/CyDMA.c **** *  descriptor: Descriptor (0 or 1) modified by this function.
1432:.\Generated_Source\PSoC4/CyDMA.c **** *                   
1433:.\Generated_Source\PSoC4/CyDMA.c **** * Return:
1434:.\Generated_Source\PSoC4/CyDMA.c **** *  Post descriptor actions. Refer to the API bit field definitions in
1435:.\Generated_Source\PSoC4/CyDMA.c **** *  CyDMA_P4.h or the API description in the DMA channel datasheet for more
1436:.\Generated_Source\PSoC4/CyDMA.c **** *  information.
1437:.\Generated_Source\PSoC4/CyDMA.c **** *
1438:.\Generated_Source\PSoC4/CyDMA.c **** *******************************************************************************/
1439:.\Generated_Source\PSoC4/CyDMA.c **** uint32 CyDmaGetPostCompletionActions(int32 channel, int32 descriptor)
1440:.\Generated_Source\PSoC4/CyDMA.c **** {
 3636              		.loc 1 1440 0
 3637              		.cfi_startproc
 3638 0000 80B5     		push	{r7, lr}
 3639              		.cfi_def_cfa_offset 8
 3640              		.cfi_offset 7, -8
 3641              		.cfi_offset 14, -4
 3642 0002 82B0     		sub	sp, sp, #8
 3643              		.cfi_def_cfa_offset 16
 3644 0004 00AF     		add	r7, sp, #0
 3645              		.cfi_def_cfa_register 7
 3646 0006 7860     		str	r0, [r7, #4]
 3647 0008 3960     		str	r1, [r7]
1441:.\Generated_Source\PSoC4/CyDMA.c ****     CYASSERT((channel    >= 0) && (channel    < CYDMA_CH_NR));
 3648              		.loc 1 1441 0
 3649 000a 7B68     		ldr	r3, [r7, #4]
 3650 000c 002B     		cmp	r3, #0
 3651 000e 04DB     		blt	.L358
 3652              		.loc 1 1441 0 is_stmt 0 discriminator 1
 3653 0010 7B68     		ldr	r3, [r7, #4]
 3654 0012 072B     		cmp	r3, #7
 3655 0014 01DC     		bgt	.L358
 3656              		.loc 1 1441 0 discriminator 3
 3657 0016 0123     		mov	r3, #1
 3658 0018 00E0     		b	.L359
 3659              	.L358:
 3660              		.loc 1 1441 0 discriminator 2
 3661 001a 0023     		mov	r3, #0
 3662              	.L359:
 3663              		.loc 1 1441 0 discriminator 4
 3664 001c 002B     		cmp	r3, #0
 3665 001e 02D1     		bne	.L360
 3666              		.loc 1 1441 0 discriminator 1
 3667 0020 0020     		mov	r0, #0
 3668 0022 FFF7FEFF 		bl	CyHalt
 3669              	.L360:
1442:.\Generated_Source\PSoC4/CyDMA.c ****     CYASSERT((descriptor >= 0) && (descriptor < CYDMA_DESCR_NR));
 3670              		.loc 1 1442 0 is_stmt 1
 3671 0026 3B68     		ldr	r3, [r7]
 3672 0028 002B     		cmp	r3, #0
 3673 002a 04DB     		blt	.L361
 3674              		.loc 1 1442 0 is_stmt 0 discriminator 1
 3675 002c 3B68     		ldr	r3, [r7]
 3676 002e 012B     		cmp	r3, #1
 3677 0030 01DC     		bgt	.L361
 3678              		.loc 1 1442 0 discriminator 3
ARM GAS  C:\Users\Matty\AppData\Local\Temp\ccXs7IQl.s 			page 91


 3679 0032 0123     		mov	r3, #1
 3680 0034 00E0     		b	.L362
 3681              	.L361:
 3682              		.loc 1 1442 0 discriminator 2
 3683 0036 0023     		mov	r3, #0
 3684              	.L362:
 3685              		.loc 1 1442 0 discriminator 4
 3686 0038 002B     		cmp	r3, #0
 3687 003a 02D1     		bne	.L363
 3688              		.loc 1 1442 0 discriminator 1
 3689 003c 0020     		mov	r0, #0
 3690 003e FFF7FEFF 		bl	CyHalt
 3691              	.L363:
1443:.\Generated_Source\PSoC4/CyDMA.c **** 
1444:.\Generated_Source\PSoC4/CyDMA.c ****     return (CYDMA_DESCR_BASE.descriptor[channel][descriptor].ctl & CYDMA_POST_COMPLETE_ACTIONS);
 3692              		.loc 1 1444 0 is_stmt 1
 3693 0042 084A     		ldr	r2, .L365
 3694 0044 7B68     		ldr	r3, [r7, #4]
 3695 0046 5900     		lsl	r1, r3, #1
 3696 0048 3B68     		ldr	r3, [r7]
 3697 004a CB18     		add	r3, r1, r3
 3698 004c 1B01     		lsl	r3, r3, #4
 3699 004e D318     		add	r3, r2, r3
 3700 0050 0833     		add	r3, r3, #8
 3701 0052 1A68     		ldr	r2, [r3]
 3702 0054 B023     		mov	r3, #176
 3703 0056 9B05     		lsl	r3, r3, #22
 3704 0058 1340     		and	r3, r2
1445:.\Generated_Source\PSoC4/CyDMA.c **** }
 3705              		.loc 1 1445 0
 3706 005a 181C     		mov	r0, r3
 3707 005c BD46     		mov	sp, r7
 3708 005e 02B0     		add	sp, sp, #8
 3709              		@ sp needed
 3710 0060 80BD     		pop	{r7, pc}
 3711              	.L366:
 3712 0062 C046     		.align	2
 3713              	.L365:
 3714 0064 00181040 		.word	1074796544
 3715              		.cfi_endproc
 3716              	.LFE48:
 3717              		.size	CyDmaGetPostCompletionActions, .-CyDmaGetPostCompletionActions
 3718              		.bss
 3719              	initIntrVector.4856:
 3720 0004 00       		.space	1
 3721 0005 000000   		.text
 3722              	.Letext0:
 3723              		.file 2 ".\\Generated_Source\\PSoC4\\cytypes.h"
 3724              		.file 3 ".\\Generated_Source\\PSoC4\\CyDMA.h"
 3725              		.section	.debug_info,"",%progbits
 3726              	.Ldebug_info0:
 3727 0000 3C0C0000 		.4byte	0xc3c
 3728 0004 0400     		.2byte	0x4
 3729 0006 00000000 		.4byte	.Ldebug_abbrev0
 3730 000a 04       		.byte	0x4
 3731 000b 01       		.uleb128 0x1
 3732 000c 9F040000 		.4byte	.LASF100
ARM GAS  C:\Users\Matty\AppData\Local\Temp\ccXs7IQl.s 			page 92


 3733 0010 01       		.byte	0x1
 3734 0011 66030000 		.4byte	.LASF101
 3735 0015 44000000 		.4byte	.LASF102
 3736 0019 00000000 		.4byte	.Ldebug_ranges0+0
 3737 001d 00000000 		.4byte	0
 3738 0021 00000000 		.4byte	.Ldebug_line0
 3739 0025 02       		.uleb128 0x2
 3740 0026 01       		.byte	0x1
 3741 0027 06       		.byte	0x6
 3742 0028 35010000 		.4byte	.LASF0
 3743 002c 02       		.uleb128 0x2
 3744 002d 01       		.byte	0x1
 3745 002e 08       		.byte	0x8
 3746 002f 52050000 		.4byte	.LASF1
 3747 0033 02       		.uleb128 0x2
 3748 0034 02       		.byte	0x2
 3749 0035 05       		.byte	0x5
 3750 0036 7E050000 		.4byte	.LASF2
 3751 003a 02       		.uleb128 0x2
 3752 003b 02       		.byte	0x2
 3753 003c 07       		.byte	0x7
 3754 003d DD020000 		.4byte	.LASF3
 3755 0041 02       		.uleb128 0x2
 3756 0042 04       		.byte	0x4
 3757 0043 05       		.byte	0x5
 3758 0044 76010000 		.4byte	.LASF4
 3759 0048 02       		.uleb128 0x2
 3760 0049 04       		.byte	0x4
 3761 004a 07       		.byte	0x7
 3762 004b C0020000 		.4byte	.LASF5
 3763 004f 02       		.uleb128 0x2
 3764 0050 08       		.byte	0x8
 3765 0051 05       		.byte	0x5
 3766 0052 27010000 		.4byte	.LASF6
 3767 0056 02       		.uleb128 0x2
 3768 0057 08       		.byte	0x8
 3769 0058 07       		.byte	0x7
 3770 0059 D9000000 		.4byte	.LASF7
 3771 005d 03       		.uleb128 0x3
 3772 005e 04       		.byte	0x4
 3773 005f 05       		.byte	0x5
 3774 0060 696E7400 		.ascii	"int\000"
 3775 0064 02       		.uleb128 0x2
 3776 0065 04       		.byte	0x4
 3777 0066 07       		.byte	0x7
 3778 0067 9C020000 		.4byte	.LASF8
 3779 006b 04       		.uleb128 0x4
 3780 006c E4010000 		.4byte	.LASF9
 3781 0070 02       		.byte	0x2
 3782 0071 B3       		.byte	0xb3
 3783 0072 2C000000 		.4byte	0x2c
 3784 0076 04       		.uleb128 0x4
 3785 0077 21020000 		.4byte	.LASF10
 3786 007b 02       		.byte	0x2
 3787 007c B5       		.byte	0xb5
 3788 007d 48000000 		.4byte	0x48
 3789 0081 04       		.uleb128 0x4
ARM GAS  C:\Users\Matty\AppData\Local\Temp\ccXs7IQl.s 			page 93


 3790 0082 59010000 		.4byte	.LASF11
 3791 0086 02       		.byte	0x2
 3792 0087 B8       		.byte	0xb8
 3793 0088 41000000 		.4byte	0x41
 3794 008c 02       		.uleb128 0x2
 3795 008d 04       		.byte	0x4
 3796 008e 04       		.byte	0x4
 3797 008f 99040000 		.4byte	.LASF12
 3798 0093 02       		.uleb128 0x2
 3799 0094 08       		.byte	0x8
 3800 0095 04       		.byte	0x4
 3801 0096 FE010000 		.4byte	.LASF13
 3802 009a 02       		.uleb128 0x2
 3803 009b 01       		.byte	0x1
 3804 009c 08       		.byte	0x8
 3805 009d 01060000 		.4byte	.LASF14
 3806 00a1 05       		.uleb128 0x5
 3807 00a2 15070000 		.4byte	.LASF15
 3808 00a6 02       		.byte	0x2
 3809 00a7 5501     		.2byte	0x155
 3810 00a9 48000000 		.4byte	0x48
 3811 00ad 05       		.uleb128 0x5
 3812 00ae 87030000 		.4byte	.LASF16
 3813 00b2 02       		.byte	0x2
 3814 00b3 5F01     		.2byte	0x15f
 3815 00b5 B9000000 		.4byte	0xb9
 3816 00b9 06       		.uleb128 0x6
 3817 00ba 76000000 		.4byte	0x76
 3818 00be 05       		.uleb128 0x5
 3819 00bf 20060000 		.4byte	.LASF17
 3820 00c3 02       		.byte	0x2
 3821 00c4 6F01     		.2byte	0x16f
 3822 00c6 CA000000 		.4byte	0xca
 3823 00ca 07       		.uleb128 0x7
 3824 00cb 04       		.byte	0x4
 3825 00cc D0000000 		.4byte	0xd0
 3826 00d0 08       		.uleb128 0x8
 3827 00d1 09       		.uleb128 0x9
 3828 00d2 20       		.byte	0x20
 3829 00d3 03       		.byte	0x3
 3830 00d4 26       		.byte	0x26
 3831 00d5 E6000000 		.4byte	0xe6
 3832 00d9 0A       		.uleb128 0xa
 3833 00da 63746C00 		.ascii	"ctl\000"
 3834 00de 03       		.byte	0x3
 3835 00df 28       		.byte	0x28
 3836 00e0 E6000000 		.4byte	0xe6
 3837 00e4 00       		.byte	0
 3838 00e5 00       		.byte	0
 3839 00e6 0B       		.uleb128 0xb
 3840 00e7 76000000 		.4byte	0x76
 3841 00eb F6000000 		.4byte	0xf6
 3842 00ef 0C       		.uleb128 0xc
 3843 00f0 F6000000 		.4byte	0xf6
 3844 00f4 07       		.byte	0x7
 3845 00f5 00       		.byte	0
 3846 00f6 02       		.uleb128 0x2
ARM GAS  C:\Users\Matty\AppData\Local\Temp\ccXs7IQl.s 			page 94


 3847 00f7 04       		.byte	0x4
 3848 00f8 07       		.byte	0x7
 3849 00f9 C0030000 		.4byte	.LASF18
 3850 00fd 04       		.uleb128 0x4
 3851 00fe 7F010000 		.4byte	.LASF19
 3852 0102 03       		.byte	0x3
 3853 0103 29       		.byte	0x29
 3854 0104 D1000000 		.4byte	0xd1
 3855 0108 09       		.uleb128 0x9
 3856 0109 10       		.byte	0x10
 3857 010a 03       		.byte	0x3
 3858 010b 2C       		.byte	0x2c
 3859 010c 41010000 		.4byte	0x141
 3860 0110 0A       		.uleb128 0xa
 3861 0111 73726300 		.ascii	"src\000"
 3862 0115 03       		.byte	0x3
 3863 0116 2E       		.byte	0x2e
 3864 0117 41010000 		.4byte	0x141
 3865 011b 00       		.byte	0
 3866 011c 0A       		.uleb128 0xa
 3867 011d 64737400 		.ascii	"dst\000"
 3868 0121 03       		.byte	0x3
 3869 0122 2F       		.byte	0x2f
 3870 0123 41010000 		.4byte	0x141
 3871 0127 04       		.byte	0x4
 3872 0128 0A       		.uleb128 0xa
 3873 0129 63746C00 		.ascii	"ctl\000"
 3874 012d 03       		.byte	0x3
 3875 012e 30       		.byte	0x30
 3876 012f 76000000 		.4byte	0x76
 3877 0133 08       		.byte	0x8
 3878 0134 0D       		.uleb128 0xd
 3879 0135 F6060000 		.4byte	.LASF20
 3880 0139 03       		.byte	0x3
 3881 013a 31       		.byte	0x31
 3882 013b 76000000 		.4byte	0x76
 3883 013f 0C       		.byte	0xc
 3884 0140 00       		.byte	0
 3885 0141 0E       		.uleb128 0xe
 3886 0142 04       		.byte	0x4
 3887 0143 04       		.uleb128 0x4
 3888 0144 FD060000 		.4byte	.LASF21
 3889 0148 03       		.byte	0x3
 3890 0149 32       		.byte	0x32
 3891 014a 08010000 		.4byte	0x108
 3892 014e 0F       		.uleb128 0xf
 3893 014f 0001     		.2byte	0x100
 3894 0151 03       		.byte	0x3
 3895 0152 38       		.byte	0x38
 3896 0153 64010000 		.4byte	0x164
 3897 0157 0D       		.uleb128 0xd
 3898 0158 EA050000 		.4byte	.LASF22
 3899 015c 03       		.byte	0x3
 3900 015d 3A       		.byte	0x3a
 3901 015e 64010000 		.4byte	0x164
 3902 0162 00       		.byte	0
 3903 0163 00       		.byte	0
ARM GAS  C:\Users\Matty\AppData\Local\Temp\ccXs7IQl.s 			page 95


 3904 0164 0B       		.uleb128 0xb
 3905 0165 43010000 		.4byte	0x143
 3906 0169 7A010000 		.4byte	0x17a
 3907 016d 0C       		.uleb128 0xc
 3908 016e F6000000 		.4byte	0xf6
 3909 0172 07       		.byte	0x7
 3910 0173 0C       		.uleb128 0xc
 3911 0174 F6000000 		.4byte	0xf6
 3912 0178 01       		.byte	0x1
 3913 0179 00       		.byte	0
 3914 017a 04       		.uleb128 0x4
 3915 017b 4E070000 		.4byte	.LASF23
 3916 017f 03       		.byte	0x3
 3917 0180 3B       		.byte	0x3b
 3918 0181 4E010000 		.4byte	0x14e
 3919 0185 09       		.uleb128 0x9
 3920 0186 20       		.byte	0x20
 3921 0187 03       		.byte	0x3
 3922 0188 3E       		.byte	0x3e
 3923 0189 EE010000 		.4byte	0x1ee
 3924 018d 0D       		.uleb128 0xd
 3925 018e 89040000 		.4byte	.LASF24
 3926 0192 03       		.byte	0x3
 3927 0193 44       		.byte	0x44
 3928 0194 76000000 		.4byte	0x76
 3929 0198 00       		.byte	0
 3930 0199 0D       		.uleb128 0xd
 3931 019a D4010000 		.4byte	.LASF25
 3932 019e 03       		.byte	0x3
 3933 019f 49       		.byte	0x49
 3934 01a0 81000000 		.4byte	0x81
 3935 01a4 04       		.byte	0x4
 3936 01a5 0D       		.uleb128 0xd
 3937 01a6 4E040000 		.4byte	.LASF26
 3938 01aa 03       		.byte	0x3
 3939 01ab 4C       		.byte	0x4c
 3940 01ac 76000000 		.4byte	0x76
 3941 01b0 08       		.byte	0x8
 3942 01b1 0D       		.uleb128 0xd
 3943 01b2 A1060000 		.4byte	.LASF27
 3944 01b6 03       		.byte	0x3
 3945 01b7 51       		.byte	0x51
 3946 01b8 76000000 		.4byte	0x76
 3947 01bc 0C       		.byte	0xc
 3948 01bd 0D       		.uleb128 0xd
 3949 01be 28020000 		.4byte	.LASF28
 3950 01c2 03       		.byte	0x3
 3951 01c3 54       		.byte	0x54
 3952 01c4 76000000 		.4byte	0x76
 3953 01c8 10       		.byte	0x10
 3954 01c9 0D       		.uleb128 0xd
 3955 01ca 8F020000 		.4byte	.LASF29
 3956 01ce 03       		.byte	0x3
 3957 01cf 57       		.byte	0x57
 3958 01d0 76000000 		.4byte	0x76
 3959 01d4 14       		.byte	0x14
 3960 01d5 0D       		.uleb128 0xd
ARM GAS  C:\Users\Matty\AppData\Local\Temp\ccXs7IQl.s 			page 96


 3961 01d6 86070000 		.4byte	.LASF30
 3962 01da 03       		.byte	0x3
 3963 01db 5A       		.byte	0x5a
 3964 01dc 76000000 		.4byte	0x76
 3965 01e0 18       		.byte	0x18
 3966 01e1 0D       		.uleb128 0xd
 3967 01e2 7E070000 		.4byte	.LASF31
 3968 01e6 03       		.byte	0x3
 3969 01e7 5D       		.byte	0x5d
 3970 01e8 76000000 		.4byte	0x76
 3971 01ec 1C       		.byte	0x1c
 3972 01ed 00       		.byte	0
 3973 01ee 04       		.uleb128 0x4
 3974 01ef 66020000 		.4byte	.LASF32
 3975 01f3 03       		.byte	0x3
 3976 01f4 5F       		.byte	0x5f
 3977 01f5 85010000 		.4byte	0x185
 3978 01f9 04       		.uleb128 0x4
 3979 01fa 1B050000 		.4byte	.LASF33
 3980 01fe 03       		.byte	0x3
 3981 01ff 67       		.byte	0x67
 3982 0200 CA000000 		.4byte	0xca
 3983 0204 10       		.uleb128 0x10
 3984 0205 95060000 		.4byte	.LASF38
 3985 0209 01       		.byte	0x1
 3986 020a 3E       		.byte	0x3e
 3987 020b 00000000 		.4byte	.LFB1
 3988 020f 34000000 		.4byte	.LFE1-.LFB1
 3989 0213 01       		.uleb128 0x1
 3990 0214 9C       		.byte	0x9c
 3991 0215 2B020000 		.4byte	0x22b
 3992 0219 11       		.uleb128 0x11
 3993 021a AB010000 		.4byte	.LASF49
 3994 021e 01       		.byte	0x1
 3995 021f 40       		.byte	0x40
 3996 0220 6B000000 		.4byte	0x6b
 3997 0224 05       		.uleb128 0x5
 3998 0225 03       		.byte	0x3
 3999 0226 04000000 		.4byte	initIntrVector.4856
 4000 022a 00       		.byte	0
 4001 022b 12       		.uleb128 0x12
 4002 022c EA010000 		.4byte	.LASF103
 4003 0230 01       		.byte	0x1
 4004 0231 5C       		.byte	0x5c
 4005 0232 00000000 		.4byte	.LFB2
 4006 0236 18000000 		.4byte	.LFE2-.LFB2
 4007 023a 01       		.uleb128 0x1
 4008 023b 9C       		.byte	0x9c
 4009 023c 13       		.uleb128 0x13
 4010 023d 43050000 		.4byte	.LASF34
 4011 0241 01       		.byte	0x1
 4012 0242 78       		.byte	0x78
 4013 0243 76000000 		.4byte	0x76
 4014 0247 00000000 		.4byte	.LFB3
 4015 024b 14000000 		.4byte	.LFE3-.LFB3
 4016 024f 01       		.uleb128 0x1
 4017 0250 9C       		.byte	0x9c
ARM GAS  C:\Users\Matty\AppData\Local\Temp\ccXs7IQl.s 			page 97


 4018 0251 13       		.uleb128 0x13
 4019 0252 A9020000 		.4byte	.LASF35
 4020 0256 01       		.byte	0x1
 4021 0257 8D       		.byte	0x8d
 4022 0258 76000000 		.4byte	0x76
 4023 025c 00000000 		.4byte	.LFB4
 4024 0260 14000000 		.4byte	.LFE4-.LFB4
 4025 0264 01       		.uleb128 0x1
 4026 0265 9C       		.byte	0x9c
 4027 0266 13       		.uleb128 0x13
 4028 0267 2B000000 		.4byte	.LASF36
 4029 026b 01       		.byte	0x1
 4030 026c A9       		.byte	0xa9
 4031 026d 41010000 		.4byte	0x141
 4032 0271 00000000 		.4byte	.LFB5
 4033 0275 14000000 		.4byte	.LFE5-.LFB5
 4034 0279 01       		.uleb128 0x1
 4035 027a 9C       		.byte	0x9c
 4036 027b 13       		.uleb128 0x13
 4037 027c C5060000 		.4byte	.LASF37
 4038 0280 01       		.byte	0x1
 4039 0281 C5       		.byte	0xc5
 4040 0282 41010000 		.4byte	0x141
 4041 0286 00000000 		.4byte	.LFB6
 4042 028a 14000000 		.4byte	.LFE6-.LFB6
 4043 028e 01       		.uleb128 0x1
 4044 028f 9C       		.byte	0x9c
 4045 0290 10       		.uleb128 0x10
 4046 0291 00000000 		.4byte	.LASF39
 4047 0295 01       		.byte	0x1
 4048 0296 E2       		.byte	0xe2
 4049 0297 00000000 		.4byte	.LFB7
 4050 029b 18000000 		.4byte	.LFE7-.LFB7
 4051 029f 01       		.uleb128 0x1
 4052 02a0 9C       		.byte	0x9c
 4053 02a1 B4020000 		.4byte	0x2b4
 4054 02a5 14       		.uleb128 0x14
 4055 02a6 F0000000 		.4byte	.LASF42
 4056 02aa 01       		.byte	0x1
 4057 02ab E2       		.byte	0xe2
 4058 02ac BE000000 		.4byte	0xbe
 4059 02b0 02       		.uleb128 0x2
 4060 02b1 91       		.byte	0x91
 4061 02b2 74       		.sleb128 -12
 4062 02b3 00       		.byte	0
 4063 02b4 13       		.uleb128 0x13
 4064 02b5 36040000 		.4byte	.LASF40
 4065 02b9 01       		.byte	0x1
 4066 02ba F6       		.byte	0xf6
 4067 02bb 76000000 		.4byte	0x76
 4068 02bf 00000000 		.4byte	.LFB8
 4069 02c3 14000000 		.4byte	.LFE8-.LFB8
 4070 02c7 01       		.uleb128 0x1
 4071 02c8 9C       		.byte	0x9c
 4072 02c9 15       		.uleb128 0x15
 4073 02ca 06060000 		.4byte	.LASF41
 4074 02ce 01       		.byte	0x1
ARM GAS  C:\Users\Matty\AppData\Local\Temp\ccXs7IQl.s 			page 98


 4075 02cf 0A01     		.2byte	0x10a
 4076 02d1 00000000 		.4byte	.LFB9
 4077 02d5 18000000 		.4byte	.LFE9-.LFB9
 4078 02d9 01       		.uleb128 0x1
 4079 02da 9C       		.byte	0x9c
 4080 02db EF020000 		.4byte	0x2ef
 4081 02df 16       		.uleb128 0x16
 4082 02e0 88050000 		.4byte	.LASF43
 4083 02e4 01       		.byte	0x1
 4084 02e5 0A01     		.2byte	0x10a
 4085 02e7 76000000 		.4byte	0x76
 4086 02eb 02       		.uleb128 0x2
 4087 02ec 91       		.byte	0x91
 4088 02ed 74       		.sleb128 -12
 4089 02ee 00       		.byte	0
 4090 02ef 15       		.uleb128 0x15
 4091 02f0 4A020000 		.4byte	.LASF44
 4092 02f4 01       		.byte	0x1
 4093 02f5 1E01     		.2byte	0x11e
 4094 02f7 00000000 		.4byte	.LFB10
 4095 02fb 18000000 		.4byte	.LFE10-.LFB10
 4096 02ff 01       		.uleb128 0x1
 4097 0300 9C       		.byte	0x9c
 4098 0301 15030000 		.4byte	0x315
 4099 0305 16       		.uleb128 0x16
 4100 0306 88050000 		.4byte	.LASF43
 4101 030a 01       		.byte	0x1
 4102 030b 1E01     		.2byte	0x11e
 4103 030d 76000000 		.4byte	0x76
 4104 0311 02       		.uleb128 0x2
 4105 0312 91       		.byte	0x91
 4106 0313 74       		.sleb128 -12
 4107 0314 00       		.byte	0
 4108 0315 17       		.uleb128 0x17
 4109 0316 96050000 		.4byte	.LASF45
 4110 031a 01       		.byte	0x1
 4111 031b 3201     		.2byte	0x132
 4112 031d 76000000 		.4byte	0x76
 4113 0321 00000000 		.4byte	.LFB11
 4114 0325 14000000 		.4byte	.LFE11-.LFB11
 4115 0329 01       		.uleb128 0x1
 4116 032a 9C       		.byte	0x9c
 4117 032b 17       		.uleb128 0x17
 4118 032c 60050000 		.4byte	.LASF46
 4119 0330 01       		.byte	0x1
 4120 0331 4601     		.2byte	0x146
 4121 0333 76000000 		.4byte	0x76
 4122 0337 00000000 		.4byte	.LFB12
 4123 033b 14000000 		.4byte	.LFE12-.LFB12
 4124 033f 01       		.uleb128 0x1
 4125 0340 9C       		.byte	0x9c
 4126 0341 18       		.uleb128 0x18
 4127 0342 1C040000 		.4byte	.LASF51
 4128 0346 01       		.byte	0x1
 4129 0347 5D01     		.2byte	0x15d
 4130 0349 F9010000 		.4byte	0x1f9
 4131 034d 00000000 		.4byte	.LFB13
ARM GAS  C:\Users\Matty\AppData\Local\Temp\ccXs7IQl.s 			page 99


 4132 0351 48000000 		.4byte	.LFE13-.LFB13
 4133 0355 01       		.uleb128 0x1
 4134 0356 9C       		.byte	0x9c
 4135 0357 89030000 		.4byte	0x389
 4136 035b 16       		.uleb128 0x16
 4137 035c C1050000 		.4byte	.LASF47
 4138 0360 01       		.byte	0x1
 4139 0361 5D01     		.2byte	0x15d
 4140 0363 81000000 		.4byte	0x81
 4141 0367 02       		.uleb128 0x2
 4142 0368 91       		.byte	0x91
 4143 0369 6C       		.sleb128 -20
 4144 036a 16       		.uleb128 0x16
 4145 036b 27030000 		.4byte	.LASF48
 4146 036f 01       		.byte	0x1
 4147 0370 5D01     		.2byte	0x15d
 4148 0372 F9010000 		.4byte	0x1f9
 4149 0376 02       		.uleb128 0x2
 4150 0377 91       		.byte	0x91
 4151 0378 68       		.sleb128 -24
 4152 0379 19       		.uleb128 0x19
 4153 037a 34020000 		.4byte	.LASF50
 4154 037e 01       		.byte	0x1
 4155 037f 5F01     		.2byte	0x15f
 4156 0381 F9010000 		.4byte	0x1f9
 4157 0385 02       		.uleb128 0x2
 4158 0386 91       		.byte	0x91
 4159 0387 74       		.sleb128 -12
 4160 0388 00       		.byte	0
 4161 0389 18       		.uleb128 0x18
 4162 038a BA010000 		.4byte	.LASF52
 4163 038e 01       		.byte	0x1
 4164 038f 7801     		.2byte	0x178
 4165 0391 F9010000 		.4byte	0x1f9
 4166 0395 00000000 		.4byte	.LFB14
 4167 0399 38000000 		.4byte	.LFE14-.LFB14
 4168 039d 01       		.uleb128 0x1
 4169 039e 9C       		.byte	0x9c
 4170 039f B3030000 		.4byte	0x3b3
 4171 03a3 16       		.uleb128 0x16
 4172 03a4 C1050000 		.4byte	.LASF47
 4173 03a8 01       		.byte	0x1
 4174 03a9 7801     		.2byte	0x178
 4175 03ab 81000000 		.4byte	0x81
 4176 03af 02       		.uleb128 0x2
 4177 03b0 91       		.byte	0x91
 4178 03b1 74       		.sleb128 -12
 4179 03b2 00       		.byte	0
 4180 03b3 1A       		.uleb128 0x1a
 4181 03b4 7A040000 		.4byte	.LASF53
 4182 03b8 01       		.byte	0x1
 4183 03b9 9301     		.2byte	0x193
 4184 03bb 00000000 		.4byte	.LFB15
 4185 03bf 50000000 		.4byte	.LFE15-.LFB15
 4186 03c3 01       		.uleb128 0x1
 4187 03c4 9C       		.byte	0x9c
 4188 03c5 E8030000 		.4byte	0x3e8
ARM GAS  C:\Users\Matty\AppData\Local\Temp\ccXs7IQl.s 			page 100


 4189 03c9 19       		.uleb128 0x19
 4190 03ca C9030000 		.4byte	.LASF54
 4191 03ce 01       		.byte	0x1
 4192 03cf 9501     		.2byte	0x195
 4193 03d1 76000000 		.4byte	0x76
 4194 03d5 02       		.uleb128 0x2
 4195 03d6 91       		.byte	0x91
 4196 03d7 74       		.sleb128 -12
 4197 03d8 19       		.uleb128 0x19
 4198 03d9 C2000000 		.4byte	.LASF55
 4199 03dd 01       		.byte	0x1
 4200 03de 9601     		.2byte	0x196
 4201 03e0 76000000 		.4byte	0x76
 4202 03e4 02       		.uleb128 0x2
 4203 03e5 91       		.byte	0x91
 4204 03e6 70       		.sleb128 -16
 4205 03e7 00       		.byte	0
 4206 03e8 1B       		.uleb128 0x1b
 4207 03e9 CE030000 		.4byte	.LASF104
 4208 03ed 01       		.byte	0x1
 4209 03ee BA01     		.2byte	0x1ba
 4210 03f0 00000000 		.4byte	.LFB16
 4211 03f4 0E000000 		.4byte	.LFE16-.LFB16
 4212 03f8 01       		.uleb128 0x1
 4213 03f9 9C       		.byte	0x9c
 4214 03fa 1C       		.uleb128 0x1c
 4215 03fb DD050000 		.4byte	.LASF56
 4216 03ff 01       		.byte	0x1
 4217 0400 D701     		.2byte	0x1d7
 4218 0402 81000000 		.4byte	0x81
 4219 0406 00000000 		.4byte	.LFB17
 4220 040a 48000000 		.4byte	.LFE17-.LFB17
 4221 040e 01       		.uleb128 0x1
 4222 040f 9C       		.byte	0x9c
 4223 0410 33040000 		.4byte	0x433
 4224 0414 19       		.uleb128 0x19
 4225 0415 C1050000 		.4byte	.LASF47
 4226 0419 01       		.byte	0x1
 4227 041a D901     		.2byte	0x1d9
 4228 041c 81000000 		.4byte	0x81
 4229 0420 02       		.uleb128 0x2
 4230 0421 91       		.byte	0x91
 4231 0422 74       		.sleb128 -12
 4232 0423 19       		.uleb128 0x19
 4233 0424 F5050000 		.4byte	.LASF57
 4234 0428 01       		.byte	0x1
 4235 0429 DA01     		.2byte	0x1da
 4236 042b 76000000 		.4byte	0x76
 4237 042f 02       		.uleb128 0x2
 4238 0430 91       		.byte	0x91
 4239 0431 70       		.sleb128 -16
 4240 0432 00       		.byte	0
 4241 0433 18       		.uleb128 0x18
 4242 0434 A6070000 		.4byte	.LASF58
 4243 0438 01       		.byte	0x1
 4244 0439 FB01     		.2byte	0x1fb
 4245 043b A1000000 		.4byte	0xa1
ARM GAS  C:\Users\Matty\AppData\Local\Temp\ccXs7IQl.s 			page 101


 4246 043f 00000000 		.4byte	.LFB18
 4247 0443 54000000 		.4byte	.LFE18-.LFB18
 4248 0447 01       		.uleb128 0x1
 4249 0448 9C       		.byte	0x9c
 4250 0449 7B040000 		.4byte	0x47b
 4251 044d 16       		.uleb128 0x16
 4252 044e C1050000 		.4byte	.LASF47
 4253 0452 01       		.byte	0x1
 4254 0453 FB01     		.2byte	0x1fb
 4255 0455 81000000 		.4byte	0x81
 4256 0459 02       		.uleb128 0x2
 4257 045a 91       		.byte	0x91
 4258 045b 6C       		.sleb128 -20
 4259 045c 19       		.uleb128 0x19
 4260 045d F5050000 		.4byte	.LASF57
 4261 0461 01       		.byte	0x1
 4262 0462 FD01     		.2byte	0x1fd
 4263 0464 76000000 		.4byte	0x76
 4264 0468 02       		.uleb128 0x2
 4265 0469 91       		.byte	0x91
 4266 046a 70       		.sleb128 -16
 4267 046b 19       		.uleb128 0x19
 4268 046c F7010000 		.4byte	.LASF59
 4269 0470 01       		.byte	0x1
 4270 0471 FE01     		.2byte	0x1fe
 4271 0473 A1000000 		.4byte	0xa1
 4272 0477 02       		.uleb128 0x2
 4273 0478 91       		.byte	0x91
 4274 0479 74       		.sleb128 -12
 4275 047a 00       		.byte	0
 4276 047b 1A       		.uleb128 0x1a
 4277 047c B4000000 		.4byte	.LASF60
 4278 0480 01       		.byte	0x1
 4279 0481 2402     		.2byte	0x224
 4280 0483 00000000 		.4byte	.LFB19
 4281 0487 44000000 		.4byte	.LFE19-.LFB19
 4282 048b 01       		.uleb128 0x1
 4283 048c 9C       		.byte	0x9c
 4284 048d A1040000 		.4byte	0x4a1
 4285 0491 16       		.uleb128 0x16
 4286 0492 C1050000 		.4byte	.LASF47
 4287 0496 01       		.byte	0x1
 4288 0497 2402     		.2byte	0x224
 4289 0499 81000000 		.4byte	0x81
 4290 049d 02       		.uleb128 0x2
 4291 049e 91       		.byte	0x91
 4292 049f 74       		.sleb128 -12
 4293 04a0 00       		.byte	0
 4294 04a1 1A       		.uleb128 0x1a
 4295 04a2 92000000 		.4byte	.LASF61
 4296 04a6 01       		.byte	0x1
 4297 04a7 3D02     		.2byte	0x23d
 4298 04a9 00000000 		.4byte	.LFB20
 4299 04ad 44000000 		.4byte	.LFE20-.LFB20
 4300 04b1 01       		.uleb128 0x1
 4301 04b2 9C       		.byte	0x9c
 4302 04b3 C7040000 		.4byte	0x4c7
ARM GAS  C:\Users\Matty\AppData\Local\Temp\ccXs7IQl.s 			page 102


 4303 04b7 16       		.uleb128 0x16
 4304 04b8 C1050000 		.4byte	.LASF47
 4305 04bc 01       		.byte	0x1
 4306 04bd 3D02     		.2byte	0x23d
 4307 04bf 81000000 		.4byte	0x81
 4308 04c3 02       		.uleb128 0x2
 4309 04c4 91       		.byte	0x91
 4310 04c5 74       		.sleb128 -12
 4311 04c6 00       		.byte	0
 4312 04c7 1A       		.uleb128 0x1a
 4313 04c8 2C070000 		.4byte	.LASF62
 4314 04cc 01       		.byte	0x1
 4315 04cd 5402     		.2byte	0x254
 4316 04cf 00000000 		.4byte	.LFB21
 4317 04d3 3C000000 		.4byte	.LFE21-.LFB21
 4318 04d7 01       		.uleb128 0x1
 4319 04d8 9C       		.byte	0x9c
 4320 04d9 ED040000 		.4byte	0x4ed
 4321 04dd 16       		.uleb128 0x16
 4322 04de C1050000 		.4byte	.LASF47
 4323 04e2 01       		.byte	0x1
 4324 04e3 5402     		.2byte	0x254
 4325 04e5 81000000 		.4byte	0x81
 4326 04e9 02       		.uleb128 0x2
 4327 04ea 91       		.byte	0x91
 4328 04eb 74       		.sleb128 -12
 4329 04ec 00       		.byte	0
 4330 04ed 1A       		.uleb128 0x1a
 4331 04ee 16010000 		.4byte	.LASF63
 4332 04f2 01       		.byte	0x1
 4333 04f3 6F02     		.2byte	0x26f
 4334 04f5 00000000 		.4byte	.LFB22
 4335 04f9 70000000 		.4byte	.LFE22-.LFB22
 4336 04fd 01       		.uleb128 0x1
 4337 04fe 9C       		.byte	0x9c
 4338 04ff 31050000 		.4byte	0x531
 4339 0503 16       		.uleb128 0x16
 4340 0504 C1050000 		.4byte	.LASF47
 4341 0508 01       		.byte	0x1
 4342 0509 6F02     		.2byte	0x26f
 4343 050b 81000000 		.4byte	0x81
 4344 050f 02       		.uleb128 0x2
 4345 0510 91       		.byte	0x91
 4346 0511 6C       		.sleb128 -20
 4347 0512 16       		.uleb128 0x16
 4348 0513 30030000 		.4byte	.LASF64
 4349 0517 01       		.byte	0x1
 4350 0518 6F02     		.2byte	0x26f
 4351 051a 81000000 		.4byte	0x81
 4352 051e 02       		.uleb128 0x2
 4353 051f 91       		.byte	0x91
 4354 0520 68       		.sleb128 -24
 4355 0521 19       		.uleb128 0x19
 4356 0522 41020000 		.4byte	.LASF65
 4357 0526 01       		.byte	0x1
 4358 0527 7102     		.2byte	0x271
 4359 0529 76000000 		.4byte	0x76
ARM GAS  C:\Users\Matty\AppData\Local\Temp\ccXs7IQl.s 			page 103


 4360 052d 02       		.uleb128 0x2
 4361 052e 91       		.byte	0x91
 4362 052f 74       		.sleb128 -12
 4363 0530 00       		.byte	0
 4364 0531 18       		.uleb128 0x18
 4365 0532 C8000000 		.4byte	.LASF66
 4366 0536 01       		.byte	0x1
 4367 0537 8902     		.2byte	0x289
 4368 0539 81000000 		.4byte	0x81
 4369 053d 00000000 		.4byte	.LFB23
 4370 0541 44000000 		.4byte	.LFE23-.LFB23
 4371 0545 01       		.uleb128 0x1
 4372 0546 9C       		.byte	0x9c
 4373 0547 6A050000 		.4byte	0x56a
 4374 054b 16       		.uleb128 0x16
 4375 054c C1050000 		.4byte	.LASF47
 4376 0550 01       		.byte	0x1
 4377 0551 8902     		.2byte	0x289
 4378 0553 81000000 		.4byte	0x81
 4379 0557 02       		.uleb128 0x2
 4380 0558 91       		.byte	0x91
 4381 0559 6C       		.sleb128 -20
 4382 055a 19       		.uleb128 0x19
 4383 055b 30030000 		.4byte	.LASF64
 4384 055f 01       		.byte	0x1
 4385 0560 8B02     		.2byte	0x28b
 4386 0562 76000000 		.4byte	0x76
 4387 0566 02       		.uleb128 0x2
 4388 0567 91       		.byte	0x91
 4389 0568 74       		.sleb128 -12
 4390 0569 00       		.byte	0
 4391 056a 1A       		.uleb128 0x1a
 4392 056b 78020000 		.4byte	.LASF67
 4393 056f 01       		.byte	0x1
 4394 0570 A702     		.2byte	0x2a7
 4395 0572 00000000 		.4byte	.LFB24
 4396 0576 70000000 		.4byte	.LFE24-.LFB24
 4397 057a 01       		.uleb128 0x1
 4398 057b 9C       		.byte	0x9c
 4399 057c AE050000 		.4byte	0x5ae
 4400 0580 16       		.uleb128 0x16
 4401 0581 C1050000 		.4byte	.LASF47
 4402 0585 01       		.byte	0x1
 4403 0586 A702     		.2byte	0x2a7
 4404 0588 81000000 		.4byte	0x81
 4405 058c 02       		.uleb128 0x2
 4406 058d 91       		.byte	0x91
 4407 058e 6C       		.sleb128 -20
 4408 058f 16       		.uleb128 0x16
 4409 0590 EA050000 		.4byte	.LASF22
 4410 0594 01       		.byte	0x1
 4411 0595 A702     		.2byte	0x2a7
 4412 0597 81000000 		.4byte	0x81
 4413 059b 02       		.uleb128 0x2
 4414 059c 91       		.byte	0x91
 4415 059d 68       		.sleb128 -24
 4416 059e 19       		.uleb128 0x19
ARM GAS  C:\Users\Matty\AppData\Local\Temp\ccXs7IQl.s 			page 104


 4417 059f 41020000 		.4byte	.LASF65
 4418 05a3 01       		.byte	0x1
 4419 05a4 A902     		.2byte	0x2a9
 4420 05a6 76000000 		.4byte	0x76
 4421 05aa 02       		.uleb128 0x2
 4422 05ab 91       		.byte	0x91
 4423 05ac 74       		.sleb128 -12
 4424 05ad 00       		.byte	0
 4425 05ae 18       		.uleb128 0x18
 4426 05af 5F010000 		.4byte	.LASF68
 4427 05b3 01       		.byte	0x1
 4428 05b4 C202     		.2byte	0x2c2
 4429 05b6 81000000 		.4byte	0x81
 4430 05ba 00000000 		.4byte	.LFB25
 4431 05be 44000000 		.4byte	.LFE25-.LFB25
 4432 05c2 01       		.uleb128 0x1
 4433 05c3 9C       		.byte	0x9c
 4434 05c4 E7050000 		.4byte	0x5e7
 4435 05c8 16       		.uleb128 0x16
 4436 05c9 C1050000 		.4byte	.LASF47
 4437 05cd 01       		.byte	0x1
 4438 05ce C202     		.2byte	0x2c2
 4439 05d0 81000000 		.4byte	0x81
 4440 05d4 02       		.uleb128 0x2
 4441 05d5 91       		.byte	0x91
 4442 05d6 6C       		.sleb128 -20
 4443 05d7 19       		.uleb128 0x19
 4444 05d8 B2050000 		.4byte	.LASF69
 4445 05dc 01       		.byte	0x1
 4446 05dd C402     		.2byte	0x2c4
 4447 05df 76000000 		.4byte	0x76
 4448 05e3 02       		.uleb128 0x2
 4449 05e4 91       		.byte	0x91
 4450 05e5 74       		.sleb128 -12
 4451 05e6 00       		.byte	0
 4452 05e7 1A       		.uleb128 0x1a
 4453 05e8 00010000 		.4byte	.LASF70
 4454 05ec 01       		.byte	0x1
 4455 05ed E502     		.2byte	0x2e5
 4456 05ef 00000000 		.4byte	.LFB26
 4457 05f3 54010000 		.4byte	.LFE26-.LFB26
 4458 05f7 01       		.uleb128 0x1
 4459 05f8 9C       		.byte	0x9c
 4460 05f9 2B060000 		.4byte	0x62b
 4461 05fd 16       		.uleb128 0x16
 4462 05fe C1050000 		.4byte	.LASF47
 4463 0602 01       		.byte	0x1
 4464 0603 E502     		.2byte	0x2e5
 4465 0605 81000000 		.4byte	0x81
 4466 0609 02       		.uleb128 0x2
 4467 060a 91       		.byte	0x91
 4468 060b 74       		.sleb128 -12
 4469 060c 16       		.uleb128 0x16
 4470 060d EA050000 		.4byte	.LASF22
 4471 0611 01       		.byte	0x1
 4472 0612 E502     		.2byte	0x2e5
 4473 0614 81000000 		.4byte	0x81
ARM GAS  C:\Users\Matty\AppData\Local\Temp\ccXs7IQl.s 			page 105


 4474 0618 02       		.uleb128 0x2
 4475 0619 91       		.byte	0x91
 4476 061a 70       		.sleb128 -16
 4477 061b 16       		.uleb128 0x16
 4478 061c 2D060000 		.4byte	.LASF71
 4479 0620 01       		.byte	0x1
 4480 0621 E502     		.2byte	0x2e5
 4481 0623 2B060000 		.4byte	0x62b
 4482 0627 02       		.uleb128 0x2
 4483 0628 91       		.byte	0x91
 4484 0629 6C       		.sleb128 -20
 4485 062a 00       		.byte	0
 4486 062b 07       		.uleb128 0x7
 4487 062c 04       		.byte	0x4
 4488 062d 31060000 		.4byte	0x631
 4489 0631 1D       		.uleb128 0x1d
 4490 0632 EE010000 		.4byte	0x1ee
 4491 0636 1A       		.uleb128 0x1a
 4492 0637 7D060000 		.4byte	.LASF72
 4493 063b 01       		.byte	0x1
 4494 063c 1503     		.2byte	0x315
 4495 063e 00000000 		.4byte	.LFB27
 4496 0642 64000000 		.4byte	.LFE27-.LFB27
 4497 0646 01       		.uleb128 0x1
 4498 0647 9C       		.byte	0x9c
 4499 0648 6B060000 		.4byte	0x66b
 4500 064c 16       		.uleb128 0x16
 4501 064d C1050000 		.4byte	.LASF47
 4502 0651 01       		.byte	0x1
 4503 0652 1503     		.2byte	0x315
 4504 0654 81000000 		.4byte	0x81
 4505 0658 02       		.uleb128 0x2
 4506 0659 91       		.byte	0x91
 4507 065a 74       		.sleb128 -12
 4508 065b 16       		.uleb128 0x16
 4509 065c EA050000 		.4byte	.LASF22
 4510 0660 01       		.byte	0x1
 4511 0661 1503     		.2byte	0x315
 4512 0663 81000000 		.4byte	0x81
 4513 0667 02       		.uleb128 0x2
 4514 0668 91       		.byte	0x91
 4515 0669 70       		.sleb128 -16
 4516 066a 00       		.byte	0
 4517 066b 18       		.uleb128 0x18
 4518 066c 03040000 		.4byte	.LASF73
 4519 0670 01       		.byte	0x1
 4520 0671 2F03     		.2byte	0x32f
 4521 0673 76000000 		.4byte	0x76
 4522 0677 00000000 		.4byte	.LFB28
 4523 067b 60000000 		.4byte	.LFE28-.LFB28
 4524 067f 01       		.uleb128 0x1
 4525 0680 9C       		.byte	0x9c
 4526 0681 A4060000 		.4byte	0x6a4
 4527 0685 16       		.uleb128 0x16
 4528 0686 C1050000 		.4byte	.LASF47
 4529 068a 01       		.byte	0x1
 4530 068b 2F03     		.2byte	0x32f
ARM GAS  C:\Users\Matty\AppData\Local\Temp\ccXs7IQl.s 			page 106


 4531 068d 81000000 		.4byte	0x81
 4532 0691 02       		.uleb128 0x2
 4533 0692 91       		.byte	0x91
 4534 0693 74       		.sleb128 -12
 4535 0694 16       		.uleb128 0x16
 4536 0695 EA050000 		.4byte	.LASF22
 4537 0699 01       		.byte	0x1
 4538 069a 2F03     		.2byte	0x32f
 4539 069c 81000000 		.4byte	0x81
 4540 06a0 02       		.uleb128 0x2
 4541 06a1 91       		.byte	0x91
 4542 06a2 70       		.sleb128 -16
 4543 06a3 00       		.byte	0
 4544 06a4 1A       		.uleb128 0x1a
 4545 06a5 98010000 		.4byte	.LASF74
 4546 06a9 01       		.byte	0x1
 4547 06aa 4C03     		.2byte	0x34c
 4548 06ac 00000000 		.4byte	.LFB29
 4549 06b0 60000000 		.4byte	.LFE29-.LFB29
 4550 06b4 01       		.uleb128 0x1
 4551 06b5 9C       		.byte	0x9c
 4552 06b6 E8060000 		.4byte	0x6e8
 4553 06ba 16       		.uleb128 0x16
 4554 06bb C1050000 		.4byte	.LASF47
 4555 06bf 01       		.byte	0x1
 4556 06c0 4C03     		.2byte	0x34c
 4557 06c2 81000000 		.4byte	0x81
 4558 06c6 02       		.uleb128 0x2
 4559 06c7 91       		.byte	0x91
 4560 06c8 74       		.sleb128 -12
 4561 06c9 16       		.uleb128 0x16
 4562 06ca EA050000 		.4byte	.LASF22
 4563 06ce 01       		.byte	0x1
 4564 06cf 4C03     		.2byte	0x34c
 4565 06d1 81000000 		.4byte	0x81
 4566 06d5 02       		.uleb128 0x2
 4567 06d6 91       		.byte	0x91
 4568 06d7 70       		.sleb128 -16
 4569 06d8 16       		.uleb128 0x16
 4570 06d9 F8030000 		.4byte	.LASF75
 4571 06dd 01       		.byte	0x1
 4572 06de 4C03     		.2byte	0x34c
 4573 06e0 41010000 		.4byte	0x141
 4574 06e4 02       		.uleb128 0x2
 4575 06e5 91       		.byte	0x91
 4576 06e6 6C       		.sleb128 -20
 4577 06e7 00       		.byte	0
 4578 06e8 18       		.uleb128 0x18
 4579 06e9 18000000 		.4byte	.LASF76
 4580 06ed 01       		.byte	0x1
 4581 06ee 6503     		.2byte	0x365
 4582 06f0 41010000 		.4byte	0x141
 4583 06f4 00000000 		.4byte	.LFB30
 4584 06f8 5C000000 		.4byte	.LFE30-.LFB30
 4585 06fc 01       		.uleb128 0x1
 4586 06fd 9C       		.byte	0x9c
 4587 06fe 21070000 		.4byte	0x721
ARM GAS  C:\Users\Matty\AppData\Local\Temp\ccXs7IQl.s 			page 107


 4588 0702 16       		.uleb128 0x16
 4589 0703 C1050000 		.4byte	.LASF47
 4590 0707 01       		.byte	0x1
 4591 0708 6503     		.2byte	0x365
 4592 070a 81000000 		.4byte	0x81
 4593 070e 02       		.uleb128 0x2
 4594 070f 91       		.byte	0x91
 4595 0710 74       		.sleb128 -12
 4596 0711 16       		.uleb128 0x16
 4597 0712 EA050000 		.4byte	.LASF22
 4598 0716 01       		.byte	0x1
 4599 0717 6503     		.2byte	0x365
 4600 0719 81000000 		.4byte	0x81
 4601 071d 02       		.uleb128 0x2
 4602 071e 91       		.byte	0x91
 4603 071f 70       		.sleb128 -16
 4604 0720 00       		.byte	0
 4605 0721 1A       		.uleb128 0x1a
 4606 0722 A1000000 		.4byte	.LASF77
 4607 0726 01       		.byte	0x1
 4608 0727 8203     		.2byte	0x382
 4609 0729 00000000 		.4byte	.LFB31
 4610 072d 60000000 		.4byte	.LFE31-.LFB31
 4611 0731 01       		.uleb128 0x1
 4612 0732 9C       		.byte	0x9c
 4613 0733 65070000 		.4byte	0x765
 4614 0737 16       		.uleb128 0x16
 4615 0738 C1050000 		.4byte	.LASF47
 4616 073c 01       		.byte	0x1
 4617 073d 8203     		.2byte	0x382
 4618 073f 81000000 		.4byte	0x81
 4619 0743 02       		.uleb128 0x2
 4620 0744 91       		.byte	0x91
 4621 0745 74       		.sleb128 -12
 4622 0746 16       		.uleb128 0x16
 4623 0747 EA050000 		.4byte	.LASF22
 4624 074b 01       		.byte	0x1
 4625 074c 8203     		.2byte	0x382
 4626 074e 81000000 		.4byte	0x81
 4627 0752 02       		.uleb128 0x2
 4628 0753 91       		.byte	0x91
 4629 0754 70       		.sleb128 -16
 4630 0755 16       		.uleb128 0x16
 4631 0756 D2020000 		.4byte	.LASF78
 4632 075a 01       		.byte	0x1
 4633 075b 8203     		.2byte	0x382
 4634 075d 41010000 		.4byte	0x141
 4635 0761 02       		.uleb128 0x2
 4636 0762 91       		.byte	0x91
 4637 0763 6C       		.sleb128 -20
 4638 0764 00       		.byte	0
 4639 0765 18       		.uleb128 0x18
 4640 0766 B2060000 		.4byte	.LASF79
 4641 076a 01       		.byte	0x1
 4642 076b 9B03     		.2byte	0x39b
 4643 076d 41010000 		.4byte	0x141
 4644 0771 00000000 		.4byte	.LFB32
ARM GAS  C:\Users\Matty\AppData\Local\Temp\ccXs7IQl.s 			page 108


 4645 0775 60000000 		.4byte	.LFE32-.LFB32
 4646 0779 01       		.uleb128 0x1
 4647 077a 9C       		.byte	0x9c
 4648 077b 9E070000 		.4byte	0x79e
 4649 077f 16       		.uleb128 0x16
 4650 0780 C1050000 		.4byte	.LASF47
 4651 0784 01       		.byte	0x1
 4652 0785 9B03     		.2byte	0x39b
 4653 0787 81000000 		.4byte	0x81
 4654 078b 02       		.uleb128 0x2
 4655 078c 91       		.byte	0x91
 4656 078d 74       		.sleb128 -12
 4657 078e 16       		.uleb128 0x16
 4658 078f EA050000 		.4byte	.LASF22
 4659 0793 01       		.byte	0x1
 4660 0794 9B03     		.2byte	0x39b
 4661 0796 81000000 		.4byte	0x81
 4662 079a 02       		.uleb128 0x2
 4663 079b 91       		.byte	0x91
 4664 079c 70       		.sleb128 -16
 4665 079d 00       		.byte	0
 4666 079e 1A       		.uleb128 0x1a
 4667 079f 62040000 		.4byte	.LASF80
 4668 07a3 01       		.byte	0x1
 4669 07a4 BC03     		.2byte	0x3bc
 4670 07a6 00000000 		.4byte	.LFB33
 4671 07aa 90000000 		.4byte	.LFE33-.LFB33
 4672 07ae 01       		.uleb128 0x1
 4673 07af 9C       		.byte	0x9c
 4674 07b0 F1070000 		.4byte	0x7f1
 4675 07b4 16       		.uleb128 0x16
 4676 07b5 C1050000 		.4byte	.LASF47
 4677 07b9 01       		.byte	0x1
 4678 07ba BC03     		.2byte	0x3bc
 4679 07bc 81000000 		.4byte	0x81
 4680 07c0 02       		.uleb128 0x2
 4681 07c1 91       		.byte	0x91
 4682 07c2 6C       		.sleb128 -20
 4683 07c3 16       		.uleb128 0x16
 4684 07c4 EA050000 		.4byte	.LASF22
 4685 07c8 01       		.byte	0x1
 4686 07c9 BC03     		.2byte	0x3bc
 4687 07cb 81000000 		.4byte	0x81
 4688 07cf 02       		.uleb128 0x2
 4689 07d0 91       		.byte	0x91
 4690 07d1 68       		.sleb128 -24
 4691 07d2 16       		.uleb128 0x16
 4692 07d3 89040000 		.4byte	.LASF24
 4693 07d7 01       		.byte	0x1
 4694 07d8 BC03     		.2byte	0x3bc
 4695 07da 76000000 		.4byte	0x76
 4696 07de 02       		.uleb128 0x2
 4697 07df 91       		.byte	0x91
 4698 07e0 64       		.sleb128 -28
 4699 07e1 19       		.uleb128 0x19
 4700 07e2 41020000 		.4byte	.LASF65
 4701 07e6 01       		.byte	0x1
ARM GAS  C:\Users\Matty\AppData\Local\Temp\ccXs7IQl.s 			page 109


 4702 07e7 BE03     		.2byte	0x3be
 4703 07e9 76000000 		.4byte	0x76
 4704 07ed 02       		.uleb128 0x2
 4705 07ee 91       		.byte	0x91
 4706 07ef 74       		.sleb128 -12
 4707 07f0 00       		.byte	0
 4708 07f1 18       		.uleb128 0x18
 4709 07f2 49060000 		.4byte	.LASF81
 4710 07f6 01       		.byte	0x1
 4711 07f7 E003     		.2byte	0x3e0
 4712 07f9 76000000 		.4byte	0x76
 4713 07fd 00000000 		.4byte	.LFB34
 4714 0801 68000000 		.4byte	.LFE34-.LFB34
 4715 0805 01       		.uleb128 0x1
 4716 0806 9C       		.byte	0x9c
 4717 0807 2A080000 		.4byte	0x82a
 4718 080b 16       		.uleb128 0x16
 4719 080c C1050000 		.4byte	.LASF47
 4720 0810 01       		.byte	0x1
 4721 0811 E003     		.2byte	0x3e0
 4722 0813 81000000 		.4byte	0x81
 4723 0817 02       		.uleb128 0x2
 4724 0818 91       		.byte	0x91
 4725 0819 74       		.sleb128 -12
 4726 081a 16       		.uleb128 0x16
 4727 081b EA050000 		.4byte	.LASF22
 4728 081f 01       		.byte	0x1
 4729 0820 E003     		.2byte	0x3e0
 4730 0822 81000000 		.4byte	0x81
 4731 0826 02       		.uleb128 0x2
 4732 0827 91       		.byte	0x91
 4733 0828 70       		.sleb128 -16
 4734 0829 00       		.byte	0
 4735 082a 1A       		.uleb128 0x1a
 4736 082b DE060000 		.4byte	.LASF82
 4737 082f 01       		.byte	0x1
 4738 0830 FE03     		.2byte	0x3fe
 4739 0832 00000000 		.4byte	.LFB35
 4740 0836 A4000000 		.4byte	.LFE35-.LFB35
 4741 083a 01       		.uleb128 0x1
 4742 083b 9C       		.byte	0x9c
 4743 083c 7D080000 		.4byte	0x87d
 4744 0840 16       		.uleb128 0x16
 4745 0841 C1050000 		.4byte	.LASF47
 4746 0845 01       		.byte	0x1
 4747 0846 FE03     		.2byte	0x3fe
 4748 0848 81000000 		.4byte	0x81
 4749 084c 02       		.uleb128 0x2
 4750 084d 91       		.byte	0x91
 4751 084e 6C       		.sleb128 -20
 4752 084f 16       		.uleb128 0x16
 4753 0850 EA050000 		.4byte	.LASF22
 4754 0854 01       		.byte	0x1
 4755 0855 FE03     		.2byte	0x3fe
 4756 0857 81000000 		.4byte	0x81
 4757 085b 02       		.uleb128 0x2
 4758 085c 91       		.byte	0x91
ARM GAS  C:\Users\Matty\AppData\Local\Temp\ccXs7IQl.s 			page 110


 4759 085d 68       		.sleb128 -24
 4760 085e 16       		.uleb128 0x16
 4761 085f D4010000 		.4byte	.LASF25
 4762 0863 01       		.byte	0x1
 4763 0864 FE03     		.2byte	0x3fe
 4764 0866 81000000 		.4byte	0x81
 4765 086a 02       		.uleb128 0x2
 4766 086b 91       		.byte	0x91
 4767 086c 64       		.sleb128 -28
 4768 086d 19       		.uleb128 0x19
 4769 086e 41020000 		.4byte	.LASF65
 4770 0872 01       		.byte	0x1
 4771 0873 0004     		.2byte	0x400
 4772 0875 76000000 		.4byte	0x76
 4773 0879 02       		.uleb128 0x2
 4774 087a 91       		.byte	0x91
 4775 087b 74       		.sleb128 -12
 4776 087c 00       		.byte	0
 4777 087d 18       		.uleb128 0x18
 4778 087e 41010000 		.4byte	.LASF83
 4779 0882 01       		.byte	0x1
 4780 0883 1E04     		.2byte	0x41e
 4781 0885 81000000 		.4byte	0x81
 4782 0889 00000000 		.4byte	.LFB36
 4783 088d 6C000000 		.4byte	.LFE36-.LFB36
 4784 0891 01       		.uleb128 0x1
 4785 0892 9C       		.byte	0x9c
 4786 0893 C5080000 		.4byte	0x8c5
 4787 0897 16       		.uleb128 0x16
 4788 0898 C1050000 		.4byte	.LASF47
 4789 089c 01       		.byte	0x1
 4790 089d 1E04     		.2byte	0x41e
 4791 089f 81000000 		.4byte	0x81
 4792 08a3 02       		.uleb128 0x2
 4793 08a4 91       		.byte	0x91
 4794 08a5 6C       		.sleb128 -20
 4795 08a6 16       		.uleb128 0x16
 4796 08a7 EA050000 		.4byte	.LASF22
 4797 08ab 01       		.byte	0x1
 4798 08ac 1E04     		.2byte	0x41e
 4799 08ae 81000000 		.4byte	0x81
 4800 08b2 02       		.uleb128 0x2
 4801 08b3 91       		.byte	0x91
 4802 08b4 68       		.sleb128 -24
 4803 08b5 19       		.uleb128 0x19
 4804 08b6 EC030000 		.4byte	.LASF84
 4805 08ba 01       		.byte	0x1
 4806 08bb 2004     		.2byte	0x420
 4807 08bd 76000000 		.4byte	0x76
 4808 08c1 02       		.uleb128 0x2
 4809 08c2 91       		.byte	0x91
 4810 08c3 74       		.sleb128 -12
 4811 08c4 00       		.byte	0
 4812 08c5 1A       		.uleb128 0x1a
 4813 08c6 61060000 		.4byte	.LASF85
 4814 08ca 01       		.byte	0x1
 4815 08cb 4504     		.2byte	0x445
ARM GAS  C:\Users\Matty\AppData\Local\Temp\ccXs7IQl.s 			page 111


 4816 08cd 00000000 		.4byte	.LFB37
 4817 08d1 90000000 		.4byte	.LFE37-.LFB37
 4818 08d5 01       		.uleb128 0x1
 4819 08d6 9C       		.byte	0x9c
 4820 08d7 18090000 		.4byte	0x918
 4821 08db 16       		.uleb128 0x16
 4822 08dc C1050000 		.4byte	.LASF47
 4823 08e0 01       		.byte	0x1
 4824 08e1 4504     		.2byte	0x445
 4825 08e3 81000000 		.4byte	0x81
 4826 08e7 02       		.uleb128 0x2
 4827 08e8 91       		.byte	0x91
 4828 08e9 6C       		.sleb128 -20
 4829 08ea 16       		.uleb128 0x16
 4830 08eb EA050000 		.4byte	.LASF22
 4831 08ef 01       		.byte	0x1
 4832 08f0 4504     		.2byte	0x445
 4833 08f2 81000000 		.4byte	0x81
 4834 08f6 02       		.uleb128 0x2
 4835 08f7 91       		.byte	0x91
 4836 08f8 68       		.sleb128 -24
 4837 08f9 16       		.uleb128 0x16
 4838 08fa 1E070000 		.4byte	.LASF86
 4839 08fe 01       		.byte	0x1
 4840 08ff 4504     		.2byte	0x445
 4841 0901 76000000 		.4byte	0x76
 4842 0905 02       		.uleb128 0x2
 4843 0906 91       		.byte	0x91
 4844 0907 64       		.sleb128 -28
 4845 0908 19       		.uleb128 0x19
 4846 0909 41020000 		.4byte	.LASF65
 4847 090d 01       		.byte	0x1
 4848 090e 4704     		.2byte	0x447
 4849 0910 76000000 		.4byte	0x76
 4850 0914 02       		.uleb128 0x2
 4851 0915 91       		.byte	0x91
 4852 0916 74       		.sleb128 -12
 4853 0917 00       		.byte	0
 4854 0918 18       		.uleb128 0x18
 4855 0919 05020000 		.4byte	.LASF87
 4856 091d 01       		.byte	0x1
 4857 091e 6404     		.2byte	0x464
 4858 0920 76000000 		.4byte	0x76
 4859 0924 00000000 		.4byte	.LFB38
 4860 0928 68000000 		.4byte	.LFE38-.LFB38
 4861 092c 01       		.uleb128 0x1
 4862 092d 9C       		.byte	0x9c
 4863 092e 51090000 		.4byte	0x951
 4864 0932 16       		.uleb128 0x16
 4865 0933 C1050000 		.4byte	.LASF47
 4866 0937 01       		.byte	0x1
 4867 0938 6404     		.2byte	0x464
 4868 093a 81000000 		.4byte	0x81
 4869 093e 02       		.uleb128 0x2
 4870 093f 91       		.byte	0x91
 4871 0940 74       		.sleb128 -12
 4872 0941 16       		.uleb128 0x16
ARM GAS  C:\Users\Matty\AppData\Local\Temp\ccXs7IQl.s 			page 112


 4873 0942 EA050000 		.4byte	.LASF22
 4874 0946 01       		.byte	0x1
 4875 0947 6404     		.2byte	0x464
 4876 0949 81000000 		.4byte	0x81
 4877 094d 02       		.uleb128 0x2
 4878 094e 91       		.byte	0x91
 4879 094f 70       		.sleb128 -16
 4880 0950 00       		.byte	0
 4881 0951 1A       		.uleb128 0x1a
 4882 0952 39030000 		.4byte	.LASF88
 4883 0956 01       		.byte	0x1
 4884 0957 8604     		.2byte	0x486
 4885 0959 00000000 		.4byte	.LFB39
 4886 095d 90000000 		.4byte	.LFE39-.LFB39
 4887 0961 01       		.uleb128 0x1
 4888 0962 9C       		.byte	0x9c
 4889 0963 A4090000 		.4byte	0x9a4
 4890 0967 16       		.uleb128 0x16
 4891 0968 C1050000 		.4byte	.LASF47
 4892 096c 01       		.byte	0x1
 4893 096d 8604     		.2byte	0x486
 4894 096f 81000000 		.4byte	0x81
 4895 0973 02       		.uleb128 0x2
 4896 0974 91       		.byte	0x91
 4897 0975 6C       		.sleb128 -20
 4898 0976 16       		.uleb128 0x16
 4899 0977 EA050000 		.4byte	.LASF22
 4900 097b 01       		.byte	0x1
 4901 097c 8604     		.2byte	0x486
 4902 097e 81000000 		.4byte	0x81
 4903 0982 02       		.uleb128 0x2
 4904 0983 91       		.byte	0x91
 4905 0984 68       		.sleb128 -24
 4906 0985 16       		.uleb128 0x16
 4907 0986 A1060000 		.4byte	.LASF27
 4908 098a 01       		.byte	0x1
 4909 098b 8604     		.2byte	0x486
 4910 098d 76000000 		.4byte	0x76
 4911 0991 02       		.uleb128 0x2
 4912 0992 91       		.byte	0x91
 4913 0993 64       		.sleb128 -28
 4914 0994 19       		.uleb128 0x19
 4915 0995 41020000 		.4byte	.LASF65
 4916 0999 01       		.byte	0x1
 4917 099a 8804     		.2byte	0x488
 4918 099c 76000000 		.4byte	0x76
 4919 09a0 02       		.uleb128 0x2
 4920 09a1 91       		.byte	0x91
 4921 09a2 74       		.sleb128 -12
 4922 09a3 00       		.byte	0
 4923 09a4 18       		.uleb128 0x18
 4924 09a5 0E030000 		.4byte	.LASF89
 4925 09a9 01       		.byte	0x1
 4926 09aa A504     		.2byte	0x4a5
 4927 09ac 76000000 		.4byte	0x76
 4928 09b0 00000000 		.4byte	.LFB40
 4929 09b4 68000000 		.4byte	.LFE40-.LFB40
ARM GAS  C:\Users\Matty\AppData\Local\Temp\ccXs7IQl.s 			page 113


 4930 09b8 01       		.uleb128 0x1
 4931 09b9 9C       		.byte	0x9c
 4932 09ba DD090000 		.4byte	0x9dd
 4933 09be 16       		.uleb128 0x16
 4934 09bf C1050000 		.4byte	.LASF47
 4935 09c3 01       		.byte	0x1
 4936 09c4 A504     		.2byte	0x4a5
 4937 09c6 81000000 		.4byte	0x81
 4938 09ca 02       		.uleb128 0x2
 4939 09cb 91       		.byte	0x91
 4940 09cc 74       		.sleb128 -12
 4941 09cd 16       		.uleb128 0x16
 4942 09ce EA050000 		.4byte	.LASF22
 4943 09d2 01       		.byte	0x1
 4944 09d3 A504     		.2byte	0x4a5
 4945 09d5 81000000 		.4byte	0x81
 4946 09d9 02       		.uleb128 0x2
 4947 09da 91       		.byte	0x91
 4948 09db 70       		.sleb128 -16
 4949 09dc 00       		.byte	0
 4950 09dd 1A       		.uleb128 0x1a
 4951 09de 6A070000 		.4byte	.LASF90
 4952 09e2 01       		.byte	0x1
 4953 09e3 C604     		.2byte	0x4c6
 4954 09e5 00000000 		.4byte	.LFB41
 4955 09e9 90000000 		.4byte	.LFE41-.LFB41
 4956 09ed 01       		.uleb128 0x1
 4957 09ee 9C       		.byte	0x9c
 4958 09ef 300A0000 		.4byte	0xa30
 4959 09f3 16       		.uleb128 0x16
 4960 09f4 C1050000 		.4byte	.LASF47
 4961 09f8 01       		.byte	0x1
 4962 09f9 C604     		.2byte	0x4c6
 4963 09fb 81000000 		.4byte	0x81
 4964 09ff 02       		.uleb128 0x2
 4965 0a00 91       		.byte	0x91
 4966 0a01 6C       		.sleb128 -20
 4967 0a02 16       		.uleb128 0x16
 4968 0a03 EA050000 		.4byte	.LASF22
 4969 0a07 01       		.byte	0x1
 4970 0a08 C604     		.2byte	0x4c6
 4971 0a0a 81000000 		.4byte	0x81
 4972 0a0e 02       		.uleb128 0x2
 4973 0a0f 91       		.byte	0x91
 4974 0a10 68       		.sleb128 -24
 4975 0a11 16       		.uleb128 0x16
 4976 0a12 28020000 		.4byte	.LASF28
 4977 0a16 01       		.byte	0x1
 4978 0a17 C604     		.2byte	0x4c6
 4979 0a19 76000000 		.4byte	0x76
 4980 0a1d 02       		.uleb128 0x2
 4981 0a1e 91       		.byte	0x91
 4982 0a1f 64       		.sleb128 -28
 4983 0a20 19       		.uleb128 0x19
 4984 0a21 41020000 		.4byte	.LASF65
 4985 0a25 01       		.byte	0x1
 4986 0a26 C804     		.2byte	0x4c8
ARM GAS  C:\Users\Matty\AppData\Local\Temp\ccXs7IQl.s 			page 114


 4987 0a28 76000000 		.4byte	0x76
 4988 0a2c 02       		.uleb128 0x2
 4989 0a2d 91       		.byte	0x91
 4990 0a2e 74       		.sleb128 -12
 4991 0a2f 00       		.byte	0
 4992 0a30 18       		.uleb128 0x18
 4993 0a31 C9050000 		.4byte	.LASF91
 4994 0a35 01       		.byte	0x1
 4995 0a36 E504     		.2byte	0x4e5
 4996 0a38 76000000 		.4byte	0x76
 4997 0a3c 00000000 		.4byte	.LFB42
 4998 0a40 68000000 		.4byte	.LFE42-.LFB42
 4999 0a44 01       		.uleb128 0x1
 5000 0a45 9C       		.byte	0x9c
 5001 0a46 690A0000 		.4byte	0xa69
 5002 0a4a 16       		.uleb128 0x16
 5003 0a4b C1050000 		.4byte	.LASF47
 5004 0a4f 01       		.byte	0x1
 5005 0a50 E504     		.2byte	0x4e5
 5006 0a52 81000000 		.4byte	0x81
 5007 0a56 02       		.uleb128 0x2
 5008 0a57 91       		.byte	0x91
 5009 0a58 74       		.sleb128 -12
 5010 0a59 16       		.uleb128 0x16
 5011 0a5a EA050000 		.4byte	.LASF22
 5012 0a5e 01       		.byte	0x1
 5013 0a5f E504     		.2byte	0x4e5
 5014 0a61 81000000 		.4byte	0x81
 5015 0a65 02       		.uleb128 0x2
 5016 0a66 91       		.byte	0x91
 5017 0a67 70       		.sleb128 -16
 5018 0a68 00       		.byte	0
 5019 0a69 1A       		.uleb128 0x1a
 5020 0a6a 39070000 		.4byte	.LASF92
 5021 0a6e 01       		.byte	0x1
 5022 0a6f 0505     		.2byte	0x505
 5023 0a71 00000000 		.4byte	.LFB43
 5024 0a75 8C000000 		.4byte	.LFE43-.LFB43
 5025 0a79 01       		.uleb128 0x1
 5026 0a7a 9C       		.byte	0x9c
 5027 0a7b BC0A0000 		.4byte	0xabc
 5028 0a7f 16       		.uleb128 0x16
 5029 0a80 C1050000 		.4byte	.LASF47
 5030 0a84 01       		.byte	0x1
 5031 0a85 0505     		.2byte	0x505
 5032 0a87 81000000 		.4byte	0x81
 5033 0a8b 02       		.uleb128 0x2
 5034 0a8c 91       		.byte	0x91
 5035 0a8d 6C       		.sleb128 -20
 5036 0a8e 16       		.uleb128 0x16
 5037 0a8f EA050000 		.4byte	.LASF22
 5038 0a93 01       		.byte	0x1
 5039 0a94 0505     		.2byte	0x505
 5040 0a96 81000000 		.4byte	0x81
 5041 0a9a 02       		.uleb128 0x2
 5042 0a9b 91       		.byte	0x91
 5043 0a9c 68       		.sleb128 -24
ARM GAS  C:\Users\Matty\AppData\Local\Temp\ccXs7IQl.s 			page 115


 5044 0a9d 16       		.uleb128 0x16
 5045 0a9e 8F020000 		.4byte	.LASF29
 5046 0aa2 01       		.byte	0x1
 5047 0aa3 0505     		.2byte	0x505
 5048 0aa5 76000000 		.4byte	0x76
 5049 0aa9 02       		.uleb128 0x2
 5050 0aaa 91       		.byte	0x91
 5051 0aab 64       		.sleb128 -28
 5052 0aac 19       		.uleb128 0x19
 5053 0aad 41020000 		.4byte	.LASF65
 5054 0ab1 01       		.byte	0x1
 5055 0ab2 0705     		.2byte	0x507
 5056 0ab4 76000000 		.4byte	0x76
 5057 0ab8 02       		.uleb128 0x2
 5058 0ab9 91       		.byte	0x91
 5059 0aba 74       		.sleb128 -12
 5060 0abb 00       		.byte	0
 5061 0abc 18       		.uleb128 0x18
 5062 0abd 8D030000 		.4byte	.LASF93
 5063 0ac1 01       		.byte	0x1
 5064 0ac2 2405     		.2byte	0x524
 5065 0ac4 76000000 		.4byte	0x76
 5066 0ac8 00000000 		.4byte	.LFB44
 5067 0acc 64000000 		.4byte	.LFE44-.LFB44
 5068 0ad0 01       		.uleb128 0x1
 5069 0ad1 9C       		.byte	0x9c
 5070 0ad2 F50A0000 		.4byte	0xaf5
 5071 0ad6 16       		.uleb128 0x16
 5072 0ad7 C1050000 		.4byte	.LASF47
 5073 0adb 01       		.byte	0x1
 5074 0adc 2405     		.2byte	0x524
 5075 0ade 81000000 		.4byte	0x81
 5076 0ae2 02       		.uleb128 0x2
 5077 0ae3 91       		.byte	0x91
 5078 0ae4 74       		.sleb128 -12
 5079 0ae5 16       		.uleb128 0x16
 5080 0ae6 EA050000 		.4byte	.LASF22
 5081 0aea 01       		.byte	0x1
 5082 0aeb 2405     		.2byte	0x524
 5083 0aed 81000000 		.4byte	0x81
 5084 0af1 02       		.uleb128 0x2
 5085 0af2 91       		.byte	0x91
 5086 0af3 70       		.sleb128 -16
 5087 0af4 00       		.byte	0
 5088 0af5 1A       		.uleb128 0x1a
 5089 0af6 92070000 		.4byte	.LASF94
 5090 0afa 01       		.byte	0x1
 5091 0afb 4305     		.2byte	0x543
 5092 0afd 00000000 		.4byte	.LFB45
 5093 0b01 90000000 		.4byte	.LFE45-.LFB45
 5094 0b05 01       		.uleb128 0x1
 5095 0b06 9C       		.byte	0x9c
 5096 0b07 480B0000 		.4byte	0xb48
 5097 0b0b 16       		.uleb128 0x16
 5098 0b0c C1050000 		.4byte	.LASF47
 5099 0b10 01       		.byte	0x1
 5100 0b11 4305     		.2byte	0x543
ARM GAS  C:\Users\Matty\AppData\Local\Temp\ccXs7IQl.s 			page 116


 5101 0b13 81000000 		.4byte	0x81
 5102 0b17 02       		.uleb128 0x2
 5103 0b18 91       		.byte	0x91
 5104 0b19 6C       		.sleb128 -20
 5105 0b1a 16       		.uleb128 0x16
 5106 0b1b EA050000 		.4byte	.LASF22
 5107 0b1f 01       		.byte	0x1
 5108 0b20 4305     		.2byte	0x543
 5109 0b22 81000000 		.4byte	0x81
 5110 0b26 02       		.uleb128 0x2
 5111 0b27 91       		.byte	0x91
 5112 0b28 68       		.sleb128 -24
 5113 0b29 16       		.uleb128 0x16
 5114 0b2a 86070000 		.4byte	.LASF30
 5115 0b2e 01       		.byte	0x1
 5116 0b2f 4305     		.2byte	0x543
 5117 0b31 76000000 		.4byte	0x76
 5118 0b35 02       		.uleb128 0x2
 5119 0b36 91       		.byte	0x91
 5120 0b37 64       		.sleb128 -28
 5121 0b38 19       		.uleb128 0x19
 5122 0b39 41020000 		.4byte	.LASF65
 5123 0b3d 01       		.byte	0x1
 5124 0b3e 4505     		.2byte	0x545
 5125 0b40 76000000 		.4byte	0x76
 5126 0b44 02       		.uleb128 0x2
 5127 0b45 91       		.byte	0x91
 5128 0b46 74       		.sleb128 -12
 5129 0b47 00       		.byte	0
 5130 0b48 18       		.uleb128 0x18
 5131 0b49 52030000 		.4byte	.LASF95
 5132 0b4d 01       		.byte	0x1
 5133 0b4e 6105     		.2byte	0x561
 5134 0b50 76000000 		.4byte	0x76
 5135 0b54 00000000 		.4byte	.LFB46
 5136 0b58 68000000 		.4byte	.LFE46-.LFB46
 5137 0b5c 01       		.uleb128 0x1
 5138 0b5d 9C       		.byte	0x9c
 5139 0b5e 810B0000 		.4byte	0xb81
 5140 0b62 16       		.uleb128 0x16
 5141 0b63 C1050000 		.4byte	.LASF47
 5142 0b67 01       		.byte	0x1
 5143 0b68 6105     		.2byte	0x561
 5144 0b6a 81000000 		.4byte	0x81
 5145 0b6e 02       		.uleb128 0x2
 5146 0b6f 91       		.byte	0x91
 5147 0b70 74       		.sleb128 -12
 5148 0b71 16       		.uleb128 0x16
 5149 0b72 EA050000 		.4byte	.LASF22
 5150 0b76 01       		.byte	0x1
 5151 0b77 6105     		.2byte	0x561
 5152 0b79 81000000 		.4byte	0x81
 5153 0b7d 02       		.uleb128 0x2
 5154 0b7e 91       		.byte	0x91
 5155 0b7f 70       		.sleb128 -16
 5156 0b80 00       		.byte	0
 5157 0b81 1A       		.uleb128 0x1a
ARM GAS  C:\Users\Matty\AppData\Local\Temp\ccXs7IQl.s 			page 117


 5158 0b82 A2030000 		.4byte	.LASF96
 5159 0b86 01       		.byte	0x1
 5160 0b87 8005     		.2byte	0x580
 5161 0b89 00000000 		.4byte	.LFB47
 5162 0b8d 90000000 		.4byte	.LFE47-.LFB47
 5163 0b91 01       		.uleb128 0x1
 5164 0b92 9C       		.byte	0x9c
 5165 0b93 D40B0000 		.4byte	0xbd4
 5166 0b97 16       		.uleb128 0x16
 5167 0b98 C1050000 		.4byte	.LASF47
 5168 0b9c 01       		.byte	0x1
 5169 0b9d 8005     		.2byte	0x580
 5170 0b9f 81000000 		.4byte	0x81
 5171 0ba3 02       		.uleb128 0x2
 5172 0ba4 91       		.byte	0x91
 5173 0ba5 6C       		.sleb128 -20
 5174 0ba6 16       		.uleb128 0x16
 5175 0ba7 EA050000 		.4byte	.LASF22
 5176 0bab 01       		.byte	0x1
 5177 0bac 8005     		.2byte	0x580
 5178 0bae 81000000 		.4byte	0x81
 5179 0bb2 02       		.uleb128 0x2
 5180 0bb3 91       		.byte	0x91
 5181 0bb4 68       		.sleb128 -24
 5182 0bb5 16       		.uleb128 0x16
 5183 0bb6 7E070000 		.4byte	.LASF31
 5184 0bba 01       		.byte	0x1
 5185 0bbb 8005     		.2byte	0x580
 5186 0bbd 76000000 		.4byte	0x76
 5187 0bc1 02       		.uleb128 0x2
 5188 0bc2 91       		.byte	0x91
 5189 0bc3 64       		.sleb128 -28
 5190 0bc4 19       		.uleb128 0x19
 5191 0bc5 41020000 		.4byte	.LASF65
 5192 0bc9 01       		.byte	0x1
 5193 0bca 8205     		.2byte	0x582
 5194 0bcc 76000000 		.4byte	0x76
 5195 0bd0 02       		.uleb128 0x2
 5196 0bd1 91       		.byte	0x91
 5197 0bd2 74       		.sleb128 -12
 5198 0bd3 00       		.byte	0
 5199 0bd4 18       		.uleb128 0x18
 5200 0bd5 F0020000 		.4byte	.LASF97
 5201 0bd9 01       		.byte	0x1
 5202 0bda 9F05     		.2byte	0x59f
 5203 0bdc 76000000 		.4byte	0x76
 5204 0be0 00000000 		.4byte	.LFB48
 5205 0be4 68000000 		.4byte	.LFE48-.LFB48
 5206 0be8 01       		.uleb128 0x1
 5207 0be9 9C       		.byte	0x9c
 5208 0bea 0D0C0000 		.4byte	0xc0d
 5209 0bee 16       		.uleb128 0x16
 5210 0bef C1050000 		.4byte	.LASF47
 5211 0bf3 01       		.byte	0x1
 5212 0bf4 9F05     		.2byte	0x59f
 5213 0bf6 81000000 		.4byte	0x81
 5214 0bfa 02       		.uleb128 0x2
ARM GAS  C:\Users\Matty\AppData\Local\Temp\ccXs7IQl.s 			page 118


 5215 0bfb 91       		.byte	0x91
 5216 0bfc 74       		.sleb128 -12
 5217 0bfd 16       		.uleb128 0x16
 5218 0bfe EA050000 		.4byte	.LASF22
 5219 0c02 01       		.byte	0x1
 5220 0c03 9F05     		.2byte	0x59f
 5221 0c05 81000000 		.4byte	0x81
 5222 0c09 02       		.uleb128 0x2
 5223 0c0a 91       		.byte	0x91
 5224 0c0b 70       		.sleb128 -16
 5225 0c0c 00       		.byte	0
 5226 0c0d 0B       		.uleb128 0xb
 5227 0c0e F9010000 		.4byte	0x1f9
 5228 0c12 1D0C0000 		.4byte	0xc1d
 5229 0c16 0C       		.uleb128 0xc
 5230 0c17 F6000000 		.4byte	0xf6
 5231 0c1b 07       		.byte	0x7
 5232 0c1c 00       		.byte	0
 5233 0c1d 11       		.uleb128 0x11
 5234 0c1e 2C050000 		.4byte	.LASF98
 5235 0c22 01       		.byte	0x1
 5236 0c23 1A       		.byte	0x1a
 5237 0c24 0D0C0000 		.4byte	0xc0d
 5238 0c28 05       		.uleb128 0x5
 5239 0c29 03       		.byte	0x3
 5240 0c2a 00000000 		.4byte	CyDmaInterruptCallback
 5241 0c2e 11       		.uleb128 0x11
 5242 0c2f 34060000 		.4byte	.LASF99
 5243 0c33 01       		.byte	0x1
 5244 0c34 28       		.byte	0x28
 5245 0c35 76000000 		.4byte	0x76
 5246 0c39 05       		.uleb128 0x5
 5247 0c3a 03       		.byte	0x3
 5248 0c3b 00000000 		.4byte	CyDmaChannelUsedMask
 5249 0c3f 00       		.byte	0
 5250              		.section	.debug_abbrev,"",%progbits
 5251              	.Ldebug_abbrev0:
 5252 0000 01       		.uleb128 0x1
 5253 0001 11       		.uleb128 0x11
 5254 0002 01       		.byte	0x1
 5255 0003 25       		.uleb128 0x25
 5256 0004 0E       		.uleb128 0xe
 5257 0005 13       		.uleb128 0x13
 5258 0006 0B       		.uleb128 0xb
 5259 0007 03       		.uleb128 0x3
 5260 0008 0E       		.uleb128 0xe
 5261 0009 1B       		.uleb128 0x1b
 5262 000a 0E       		.uleb128 0xe
 5263 000b 55       		.uleb128 0x55
 5264 000c 17       		.uleb128 0x17
 5265 000d 11       		.uleb128 0x11
 5266 000e 01       		.uleb128 0x1
 5267 000f 10       		.uleb128 0x10
 5268 0010 17       		.uleb128 0x17
 5269 0011 00       		.byte	0
 5270 0012 00       		.byte	0
 5271 0013 02       		.uleb128 0x2
ARM GAS  C:\Users\Matty\AppData\Local\Temp\ccXs7IQl.s 			page 119


 5272 0014 24       		.uleb128 0x24
 5273 0015 00       		.byte	0
 5274 0016 0B       		.uleb128 0xb
 5275 0017 0B       		.uleb128 0xb
 5276 0018 3E       		.uleb128 0x3e
 5277 0019 0B       		.uleb128 0xb
 5278 001a 03       		.uleb128 0x3
 5279 001b 0E       		.uleb128 0xe
 5280 001c 00       		.byte	0
 5281 001d 00       		.byte	0
 5282 001e 03       		.uleb128 0x3
 5283 001f 24       		.uleb128 0x24
 5284 0020 00       		.byte	0
 5285 0021 0B       		.uleb128 0xb
 5286 0022 0B       		.uleb128 0xb
 5287 0023 3E       		.uleb128 0x3e
 5288 0024 0B       		.uleb128 0xb
 5289 0025 03       		.uleb128 0x3
 5290 0026 08       		.uleb128 0x8
 5291 0027 00       		.byte	0
 5292 0028 00       		.byte	0
 5293 0029 04       		.uleb128 0x4
 5294 002a 16       		.uleb128 0x16
 5295 002b 00       		.byte	0
 5296 002c 03       		.uleb128 0x3
 5297 002d 0E       		.uleb128 0xe
 5298 002e 3A       		.uleb128 0x3a
 5299 002f 0B       		.uleb128 0xb
 5300 0030 3B       		.uleb128 0x3b
 5301 0031 0B       		.uleb128 0xb
 5302 0032 49       		.uleb128 0x49
 5303 0033 13       		.uleb128 0x13
 5304 0034 00       		.byte	0
 5305 0035 00       		.byte	0
 5306 0036 05       		.uleb128 0x5
 5307 0037 16       		.uleb128 0x16
 5308 0038 00       		.byte	0
 5309 0039 03       		.uleb128 0x3
 5310 003a 0E       		.uleb128 0xe
 5311 003b 3A       		.uleb128 0x3a
 5312 003c 0B       		.uleb128 0xb
 5313 003d 3B       		.uleb128 0x3b
 5314 003e 05       		.uleb128 0x5
 5315 003f 49       		.uleb128 0x49
 5316 0040 13       		.uleb128 0x13
 5317 0041 00       		.byte	0
 5318 0042 00       		.byte	0
 5319 0043 06       		.uleb128 0x6
 5320 0044 35       		.uleb128 0x35
 5321 0045 00       		.byte	0
 5322 0046 49       		.uleb128 0x49
 5323 0047 13       		.uleb128 0x13
 5324 0048 00       		.byte	0
 5325 0049 00       		.byte	0
 5326 004a 07       		.uleb128 0x7
 5327 004b 0F       		.uleb128 0xf
 5328 004c 00       		.byte	0
ARM GAS  C:\Users\Matty\AppData\Local\Temp\ccXs7IQl.s 			page 120


 5329 004d 0B       		.uleb128 0xb
 5330 004e 0B       		.uleb128 0xb
 5331 004f 49       		.uleb128 0x49
 5332 0050 13       		.uleb128 0x13
 5333 0051 00       		.byte	0
 5334 0052 00       		.byte	0
 5335 0053 08       		.uleb128 0x8
 5336 0054 15       		.uleb128 0x15
 5337 0055 00       		.byte	0
 5338 0056 27       		.uleb128 0x27
 5339 0057 19       		.uleb128 0x19
 5340 0058 00       		.byte	0
 5341 0059 00       		.byte	0
 5342 005a 09       		.uleb128 0x9
 5343 005b 13       		.uleb128 0x13
 5344 005c 01       		.byte	0x1
 5345 005d 0B       		.uleb128 0xb
 5346 005e 0B       		.uleb128 0xb
 5347 005f 3A       		.uleb128 0x3a
 5348 0060 0B       		.uleb128 0xb
 5349 0061 3B       		.uleb128 0x3b
 5350 0062 0B       		.uleb128 0xb
 5351 0063 01       		.uleb128 0x1
 5352 0064 13       		.uleb128 0x13
 5353 0065 00       		.byte	0
 5354 0066 00       		.byte	0
 5355 0067 0A       		.uleb128 0xa
 5356 0068 0D       		.uleb128 0xd
 5357 0069 00       		.byte	0
 5358 006a 03       		.uleb128 0x3
 5359 006b 08       		.uleb128 0x8
 5360 006c 3A       		.uleb128 0x3a
 5361 006d 0B       		.uleb128 0xb
 5362 006e 3B       		.uleb128 0x3b
 5363 006f 0B       		.uleb128 0xb
 5364 0070 49       		.uleb128 0x49
 5365 0071 13       		.uleb128 0x13
 5366 0072 38       		.uleb128 0x38
 5367 0073 0B       		.uleb128 0xb
 5368 0074 00       		.byte	0
 5369 0075 00       		.byte	0
 5370 0076 0B       		.uleb128 0xb
 5371 0077 01       		.uleb128 0x1
 5372 0078 01       		.byte	0x1
 5373 0079 49       		.uleb128 0x49
 5374 007a 13       		.uleb128 0x13
 5375 007b 01       		.uleb128 0x1
 5376 007c 13       		.uleb128 0x13
 5377 007d 00       		.byte	0
 5378 007e 00       		.byte	0
 5379 007f 0C       		.uleb128 0xc
 5380 0080 21       		.uleb128 0x21
 5381 0081 00       		.byte	0
 5382 0082 49       		.uleb128 0x49
 5383 0083 13       		.uleb128 0x13
 5384 0084 2F       		.uleb128 0x2f
 5385 0085 0B       		.uleb128 0xb
ARM GAS  C:\Users\Matty\AppData\Local\Temp\ccXs7IQl.s 			page 121


 5386 0086 00       		.byte	0
 5387 0087 00       		.byte	0
 5388 0088 0D       		.uleb128 0xd
 5389 0089 0D       		.uleb128 0xd
 5390 008a 00       		.byte	0
 5391 008b 03       		.uleb128 0x3
 5392 008c 0E       		.uleb128 0xe
 5393 008d 3A       		.uleb128 0x3a
 5394 008e 0B       		.uleb128 0xb
 5395 008f 3B       		.uleb128 0x3b
 5396 0090 0B       		.uleb128 0xb
 5397 0091 49       		.uleb128 0x49
 5398 0092 13       		.uleb128 0x13
 5399 0093 38       		.uleb128 0x38
 5400 0094 0B       		.uleb128 0xb
 5401 0095 00       		.byte	0
 5402 0096 00       		.byte	0
 5403 0097 0E       		.uleb128 0xe
 5404 0098 0F       		.uleb128 0xf
 5405 0099 00       		.byte	0
 5406 009a 0B       		.uleb128 0xb
 5407 009b 0B       		.uleb128 0xb
 5408 009c 00       		.byte	0
 5409 009d 00       		.byte	0
 5410 009e 0F       		.uleb128 0xf
 5411 009f 13       		.uleb128 0x13
 5412 00a0 01       		.byte	0x1
 5413 00a1 0B       		.uleb128 0xb
 5414 00a2 05       		.uleb128 0x5
 5415 00a3 3A       		.uleb128 0x3a
 5416 00a4 0B       		.uleb128 0xb
 5417 00a5 3B       		.uleb128 0x3b
 5418 00a6 0B       		.uleb128 0xb
 5419 00a7 01       		.uleb128 0x1
 5420 00a8 13       		.uleb128 0x13
 5421 00a9 00       		.byte	0
 5422 00aa 00       		.byte	0
 5423 00ab 10       		.uleb128 0x10
 5424 00ac 2E       		.uleb128 0x2e
 5425 00ad 01       		.byte	0x1
 5426 00ae 3F       		.uleb128 0x3f
 5427 00af 19       		.uleb128 0x19
 5428 00b0 03       		.uleb128 0x3
 5429 00b1 0E       		.uleb128 0xe
 5430 00b2 3A       		.uleb128 0x3a
 5431 00b3 0B       		.uleb128 0xb
 5432 00b4 3B       		.uleb128 0x3b
 5433 00b5 0B       		.uleb128 0xb
 5434 00b6 27       		.uleb128 0x27
 5435 00b7 19       		.uleb128 0x19
 5436 00b8 11       		.uleb128 0x11
 5437 00b9 01       		.uleb128 0x1
 5438 00ba 12       		.uleb128 0x12
 5439 00bb 06       		.uleb128 0x6
 5440 00bc 40       		.uleb128 0x40
 5441 00bd 18       		.uleb128 0x18
 5442 00be 9642     		.uleb128 0x2116
ARM GAS  C:\Users\Matty\AppData\Local\Temp\ccXs7IQl.s 			page 122


 5443 00c0 19       		.uleb128 0x19
 5444 00c1 01       		.uleb128 0x1
 5445 00c2 13       		.uleb128 0x13
 5446 00c3 00       		.byte	0
 5447 00c4 00       		.byte	0
 5448 00c5 11       		.uleb128 0x11
 5449 00c6 34       		.uleb128 0x34
 5450 00c7 00       		.byte	0
 5451 00c8 03       		.uleb128 0x3
 5452 00c9 0E       		.uleb128 0xe
 5453 00ca 3A       		.uleb128 0x3a
 5454 00cb 0B       		.uleb128 0xb
 5455 00cc 3B       		.uleb128 0x3b
 5456 00cd 0B       		.uleb128 0xb
 5457 00ce 49       		.uleb128 0x49
 5458 00cf 13       		.uleb128 0x13
 5459 00d0 02       		.uleb128 0x2
 5460 00d1 18       		.uleb128 0x18
 5461 00d2 00       		.byte	0
 5462 00d3 00       		.byte	0
 5463 00d4 12       		.uleb128 0x12
 5464 00d5 2E       		.uleb128 0x2e
 5465 00d6 00       		.byte	0
 5466 00d7 3F       		.uleb128 0x3f
 5467 00d8 19       		.uleb128 0x19
 5468 00d9 03       		.uleb128 0x3
 5469 00da 0E       		.uleb128 0xe
 5470 00db 3A       		.uleb128 0x3a
 5471 00dc 0B       		.uleb128 0xb
 5472 00dd 3B       		.uleb128 0x3b
 5473 00de 0B       		.uleb128 0xb
 5474 00df 27       		.uleb128 0x27
 5475 00e0 19       		.uleb128 0x19
 5476 00e1 11       		.uleb128 0x11
 5477 00e2 01       		.uleb128 0x1
 5478 00e3 12       		.uleb128 0x12
 5479 00e4 06       		.uleb128 0x6
 5480 00e5 40       		.uleb128 0x40
 5481 00e6 18       		.uleb128 0x18
 5482 00e7 9742     		.uleb128 0x2117
 5483 00e9 19       		.uleb128 0x19
 5484 00ea 00       		.byte	0
 5485 00eb 00       		.byte	0
 5486 00ec 13       		.uleb128 0x13
 5487 00ed 2E       		.uleb128 0x2e
 5488 00ee 00       		.byte	0
 5489 00ef 3F       		.uleb128 0x3f
 5490 00f0 19       		.uleb128 0x19
 5491 00f1 03       		.uleb128 0x3
 5492 00f2 0E       		.uleb128 0xe
 5493 00f3 3A       		.uleb128 0x3a
 5494 00f4 0B       		.uleb128 0xb
 5495 00f5 3B       		.uleb128 0x3b
 5496 00f6 0B       		.uleb128 0xb
 5497 00f7 27       		.uleb128 0x27
 5498 00f8 19       		.uleb128 0x19
 5499 00f9 49       		.uleb128 0x49
ARM GAS  C:\Users\Matty\AppData\Local\Temp\ccXs7IQl.s 			page 123


 5500 00fa 13       		.uleb128 0x13
 5501 00fb 11       		.uleb128 0x11
 5502 00fc 01       		.uleb128 0x1
 5503 00fd 12       		.uleb128 0x12
 5504 00fe 06       		.uleb128 0x6
 5505 00ff 40       		.uleb128 0x40
 5506 0100 18       		.uleb128 0x18
 5507 0101 9742     		.uleb128 0x2117
 5508 0103 19       		.uleb128 0x19
 5509 0104 00       		.byte	0
 5510 0105 00       		.byte	0
 5511 0106 14       		.uleb128 0x14
 5512 0107 05       		.uleb128 0x5
 5513 0108 00       		.byte	0
 5514 0109 03       		.uleb128 0x3
 5515 010a 0E       		.uleb128 0xe
 5516 010b 3A       		.uleb128 0x3a
 5517 010c 0B       		.uleb128 0xb
 5518 010d 3B       		.uleb128 0x3b
 5519 010e 0B       		.uleb128 0xb
 5520 010f 49       		.uleb128 0x49
 5521 0110 13       		.uleb128 0x13
 5522 0111 02       		.uleb128 0x2
 5523 0112 18       		.uleb128 0x18
 5524 0113 00       		.byte	0
 5525 0114 00       		.byte	0
 5526 0115 15       		.uleb128 0x15
 5527 0116 2E       		.uleb128 0x2e
 5528 0117 01       		.byte	0x1
 5529 0118 3F       		.uleb128 0x3f
 5530 0119 19       		.uleb128 0x19
 5531 011a 03       		.uleb128 0x3
 5532 011b 0E       		.uleb128 0xe
 5533 011c 3A       		.uleb128 0x3a
 5534 011d 0B       		.uleb128 0xb
 5535 011e 3B       		.uleb128 0x3b
 5536 011f 05       		.uleb128 0x5
 5537 0120 27       		.uleb128 0x27
 5538 0121 19       		.uleb128 0x19
 5539 0122 11       		.uleb128 0x11
 5540 0123 01       		.uleb128 0x1
 5541 0124 12       		.uleb128 0x12
 5542 0125 06       		.uleb128 0x6
 5543 0126 40       		.uleb128 0x40
 5544 0127 18       		.uleb128 0x18
 5545 0128 9742     		.uleb128 0x2117
 5546 012a 19       		.uleb128 0x19
 5547 012b 01       		.uleb128 0x1
 5548 012c 13       		.uleb128 0x13
 5549 012d 00       		.byte	0
 5550 012e 00       		.byte	0
 5551 012f 16       		.uleb128 0x16
 5552 0130 05       		.uleb128 0x5
 5553 0131 00       		.byte	0
 5554 0132 03       		.uleb128 0x3
 5555 0133 0E       		.uleb128 0xe
 5556 0134 3A       		.uleb128 0x3a
ARM GAS  C:\Users\Matty\AppData\Local\Temp\ccXs7IQl.s 			page 124


 5557 0135 0B       		.uleb128 0xb
 5558 0136 3B       		.uleb128 0x3b
 5559 0137 05       		.uleb128 0x5
 5560 0138 49       		.uleb128 0x49
 5561 0139 13       		.uleb128 0x13
 5562 013a 02       		.uleb128 0x2
 5563 013b 18       		.uleb128 0x18
 5564 013c 00       		.byte	0
 5565 013d 00       		.byte	0
 5566 013e 17       		.uleb128 0x17
 5567 013f 2E       		.uleb128 0x2e
 5568 0140 00       		.byte	0
 5569 0141 3F       		.uleb128 0x3f
 5570 0142 19       		.uleb128 0x19
 5571 0143 03       		.uleb128 0x3
 5572 0144 0E       		.uleb128 0xe
 5573 0145 3A       		.uleb128 0x3a
 5574 0146 0B       		.uleb128 0xb
 5575 0147 3B       		.uleb128 0x3b
 5576 0148 05       		.uleb128 0x5
 5577 0149 27       		.uleb128 0x27
 5578 014a 19       		.uleb128 0x19
 5579 014b 49       		.uleb128 0x49
 5580 014c 13       		.uleb128 0x13
 5581 014d 11       		.uleb128 0x11
 5582 014e 01       		.uleb128 0x1
 5583 014f 12       		.uleb128 0x12
 5584 0150 06       		.uleb128 0x6
 5585 0151 40       		.uleb128 0x40
 5586 0152 18       		.uleb128 0x18
 5587 0153 9742     		.uleb128 0x2117
 5588 0155 19       		.uleb128 0x19
 5589 0156 00       		.byte	0
 5590 0157 00       		.byte	0
 5591 0158 18       		.uleb128 0x18
 5592 0159 2E       		.uleb128 0x2e
 5593 015a 01       		.byte	0x1
 5594 015b 3F       		.uleb128 0x3f
 5595 015c 19       		.uleb128 0x19
 5596 015d 03       		.uleb128 0x3
 5597 015e 0E       		.uleb128 0xe
 5598 015f 3A       		.uleb128 0x3a
 5599 0160 0B       		.uleb128 0xb
 5600 0161 3B       		.uleb128 0x3b
 5601 0162 05       		.uleb128 0x5
 5602 0163 27       		.uleb128 0x27
 5603 0164 19       		.uleb128 0x19
 5604 0165 49       		.uleb128 0x49
 5605 0166 13       		.uleb128 0x13
 5606 0167 11       		.uleb128 0x11
 5607 0168 01       		.uleb128 0x1
 5608 0169 12       		.uleb128 0x12
 5609 016a 06       		.uleb128 0x6
 5610 016b 40       		.uleb128 0x40
 5611 016c 18       		.uleb128 0x18
 5612 016d 9642     		.uleb128 0x2116
 5613 016f 19       		.uleb128 0x19
ARM GAS  C:\Users\Matty\AppData\Local\Temp\ccXs7IQl.s 			page 125


 5614 0170 01       		.uleb128 0x1
 5615 0171 13       		.uleb128 0x13
 5616 0172 00       		.byte	0
 5617 0173 00       		.byte	0
 5618 0174 19       		.uleb128 0x19
 5619 0175 34       		.uleb128 0x34
 5620 0176 00       		.byte	0
 5621 0177 03       		.uleb128 0x3
 5622 0178 0E       		.uleb128 0xe
 5623 0179 3A       		.uleb128 0x3a
 5624 017a 0B       		.uleb128 0xb
 5625 017b 3B       		.uleb128 0x3b
 5626 017c 05       		.uleb128 0x5
 5627 017d 49       		.uleb128 0x49
 5628 017e 13       		.uleb128 0x13
 5629 017f 02       		.uleb128 0x2
 5630 0180 18       		.uleb128 0x18
 5631 0181 00       		.byte	0
 5632 0182 00       		.byte	0
 5633 0183 1A       		.uleb128 0x1a
 5634 0184 2E       		.uleb128 0x2e
 5635 0185 01       		.byte	0x1
 5636 0186 3F       		.uleb128 0x3f
 5637 0187 19       		.uleb128 0x19
 5638 0188 03       		.uleb128 0x3
 5639 0189 0E       		.uleb128 0xe
 5640 018a 3A       		.uleb128 0x3a
 5641 018b 0B       		.uleb128 0xb
 5642 018c 3B       		.uleb128 0x3b
 5643 018d 05       		.uleb128 0x5
 5644 018e 27       		.uleb128 0x27
 5645 018f 19       		.uleb128 0x19
 5646 0190 11       		.uleb128 0x11
 5647 0191 01       		.uleb128 0x1
 5648 0192 12       		.uleb128 0x12
 5649 0193 06       		.uleb128 0x6
 5650 0194 40       		.uleb128 0x40
 5651 0195 18       		.uleb128 0x18
 5652 0196 9642     		.uleb128 0x2116
 5653 0198 19       		.uleb128 0x19
 5654 0199 01       		.uleb128 0x1
 5655 019a 13       		.uleb128 0x13
 5656 019b 00       		.byte	0
 5657 019c 00       		.byte	0
 5658 019d 1B       		.uleb128 0x1b
 5659 019e 2E       		.uleb128 0x2e
 5660 019f 00       		.byte	0
 5661 01a0 03       		.uleb128 0x3
 5662 01a1 0E       		.uleb128 0xe
 5663 01a2 3A       		.uleb128 0x3a
 5664 01a3 0B       		.uleb128 0xb
 5665 01a4 3B       		.uleb128 0x3b
 5666 01a5 05       		.uleb128 0x5
 5667 01a6 27       		.uleb128 0x27
 5668 01a7 19       		.uleb128 0x19
 5669 01a8 11       		.uleb128 0x11
 5670 01a9 01       		.uleb128 0x1
ARM GAS  C:\Users\Matty\AppData\Local\Temp\ccXs7IQl.s 			page 126


 5671 01aa 12       		.uleb128 0x12
 5672 01ab 06       		.uleb128 0x6
 5673 01ac 40       		.uleb128 0x40
 5674 01ad 18       		.uleb128 0x18
 5675 01ae 9642     		.uleb128 0x2116
 5676 01b0 19       		.uleb128 0x19
 5677 01b1 00       		.byte	0
 5678 01b2 00       		.byte	0
 5679 01b3 1C       		.uleb128 0x1c
 5680 01b4 2E       		.uleb128 0x2e
 5681 01b5 01       		.byte	0x1
 5682 01b6 3F       		.uleb128 0x3f
 5683 01b7 19       		.uleb128 0x19
 5684 01b8 03       		.uleb128 0x3
 5685 01b9 0E       		.uleb128 0xe
 5686 01ba 3A       		.uleb128 0x3a
 5687 01bb 0B       		.uleb128 0xb
 5688 01bc 3B       		.uleb128 0x3b
 5689 01bd 05       		.uleb128 0x5
 5690 01be 27       		.uleb128 0x27
 5691 01bf 19       		.uleb128 0x19
 5692 01c0 49       		.uleb128 0x49
 5693 01c1 13       		.uleb128 0x13
 5694 01c2 11       		.uleb128 0x11
 5695 01c3 01       		.uleb128 0x1
 5696 01c4 12       		.uleb128 0x12
 5697 01c5 06       		.uleb128 0x6
 5698 01c6 40       		.uleb128 0x40
 5699 01c7 18       		.uleb128 0x18
 5700 01c8 9742     		.uleb128 0x2117
 5701 01ca 19       		.uleb128 0x19
 5702 01cb 01       		.uleb128 0x1
 5703 01cc 13       		.uleb128 0x13
 5704 01cd 00       		.byte	0
 5705 01ce 00       		.byte	0
 5706 01cf 1D       		.uleb128 0x1d
 5707 01d0 26       		.uleb128 0x26
 5708 01d1 00       		.byte	0
 5709 01d2 49       		.uleb128 0x49
 5710 01d3 13       		.uleb128 0x13
 5711 01d4 00       		.byte	0
 5712 01d5 00       		.byte	0
 5713 01d6 00       		.byte	0
 5714              		.section	.debug_aranges,"",%progbits
 5715 0000 94010000 		.4byte	0x194
 5716 0004 0200     		.2byte	0x2
 5717 0006 00000000 		.4byte	.Ldebug_info0
 5718 000a 04       		.byte	0x4
 5719 000b 00       		.byte	0
 5720 000c 0000     		.2byte	0
 5721 000e 0000     		.2byte	0
 5722 0010 00000000 		.4byte	.LFB1
 5723 0014 34000000 		.4byte	.LFE1-.LFB1
 5724 0018 00000000 		.4byte	.LFB2
 5725 001c 18000000 		.4byte	.LFE2-.LFB2
 5726 0020 00000000 		.4byte	.LFB3
 5727 0024 14000000 		.4byte	.LFE3-.LFB3
ARM GAS  C:\Users\Matty\AppData\Local\Temp\ccXs7IQl.s 			page 127


 5728 0028 00000000 		.4byte	.LFB4
 5729 002c 14000000 		.4byte	.LFE4-.LFB4
 5730 0030 00000000 		.4byte	.LFB5
 5731 0034 14000000 		.4byte	.LFE5-.LFB5
 5732 0038 00000000 		.4byte	.LFB6
 5733 003c 14000000 		.4byte	.LFE6-.LFB6
 5734 0040 00000000 		.4byte	.LFB7
 5735 0044 18000000 		.4byte	.LFE7-.LFB7
 5736 0048 00000000 		.4byte	.LFB8
 5737 004c 14000000 		.4byte	.LFE8-.LFB8
 5738 0050 00000000 		.4byte	.LFB9
 5739 0054 18000000 		.4byte	.LFE9-.LFB9
 5740 0058 00000000 		.4byte	.LFB10
 5741 005c 18000000 		.4byte	.LFE10-.LFB10
 5742 0060 00000000 		.4byte	.LFB11
 5743 0064 14000000 		.4byte	.LFE11-.LFB11
 5744 0068 00000000 		.4byte	.LFB12
 5745 006c 14000000 		.4byte	.LFE12-.LFB12
 5746 0070 00000000 		.4byte	.LFB13
 5747 0074 48000000 		.4byte	.LFE13-.LFB13
 5748 0078 00000000 		.4byte	.LFB14
 5749 007c 38000000 		.4byte	.LFE14-.LFB14
 5750 0080 00000000 		.4byte	.LFB15
 5751 0084 50000000 		.4byte	.LFE15-.LFB15
 5752 0088 00000000 		.4byte	.LFB16
 5753 008c 0E000000 		.4byte	.LFE16-.LFB16
 5754 0090 00000000 		.4byte	.LFB17
 5755 0094 48000000 		.4byte	.LFE17-.LFB17
 5756 0098 00000000 		.4byte	.LFB18
 5757 009c 54000000 		.4byte	.LFE18-.LFB18
 5758 00a0 00000000 		.4byte	.LFB19
 5759 00a4 44000000 		.4byte	.LFE19-.LFB19
 5760 00a8 00000000 		.4byte	.LFB20
 5761 00ac 44000000 		.4byte	.LFE20-.LFB20
 5762 00b0 00000000 		.4byte	.LFB21
 5763 00b4 3C000000 		.4byte	.LFE21-.LFB21
 5764 00b8 00000000 		.4byte	.LFB22
 5765 00bc 70000000 		.4byte	.LFE22-.LFB22
 5766 00c0 00000000 		.4byte	.LFB23
 5767 00c4 44000000 		.4byte	.LFE23-.LFB23
 5768 00c8 00000000 		.4byte	.LFB24
 5769 00cc 70000000 		.4byte	.LFE24-.LFB24
 5770 00d0 00000000 		.4byte	.LFB25
 5771 00d4 44000000 		.4byte	.LFE25-.LFB25
 5772 00d8 00000000 		.4byte	.LFB26
 5773 00dc 54010000 		.4byte	.LFE26-.LFB26
 5774 00e0 00000000 		.4byte	.LFB27
 5775 00e4 64000000 		.4byte	.LFE27-.LFB27
 5776 00e8 00000000 		.4byte	.LFB28
 5777 00ec 60000000 		.4byte	.LFE28-.LFB28
 5778 00f0 00000000 		.4byte	.LFB29
 5779 00f4 60000000 		.4byte	.LFE29-.LFB29
 5780 00f8 00000000 		.4byte	.LFB30
 5781 00fc 5C000000 		.4byte	.LFE30-.LFB30
 5782 0100 00000000 		.4byte	.LFB31
 5783 0104 60000000 		.4byte	.LFE31-.LFB31
 5784 0108 00000000 		.4byte	.LFB32
ARM GAS  C:\Users\Matty\AppData\Local\Temp\ccXs7IQl.s 			page 128


 5785 010c 60000000 		.4byte	.LFE32-.LFB32
 5786 0110 00000000 		.4byte	.LFB33
 5787 0114 90000000 		.4byte	.LFE33-.LFB33
 5788 0118 00000000 		.4byte	.LFB34
 5789 011c 68000000 		.4byte	.LFE34-.LFB34
 5790 0120 00000000 		.4byte	.LFB35
 5791 0124 A4000000 		.4byte	.LFE35-.LFB35
 5792 0128 00000000 		.4byte	.LFB36
 5793 012c 6C000000 		.4byte	.LFE36-.LFB36
 5794 0130 00000000 		.4byte	.LFB37
 5795 0134 90000000 		.4byte	.LFE37-.LFB37
 5796 0138 00000000 		.4byte	.LFB38
 5797 013c 68000000 		.4byte	.LFE38-.LFB38
 5798 0140 00000000 		.4byte	.LFB39
 5799 0144 90000000 		.4byte	.LFE39-.LFB39
 5800 0148 00000000 		.4byte	.LFB40
 5801 014c 68000000 		.4byte	.LFE40-.LFB40
 5802 0150 00000000 		.4byte	.LFB41
 5803 0154 90000000 		.4byte	.LFE41-.LFB41
 5804 0158 00000000 		.4byte	.LFB42
 5805 015c 68000000 		.4byte	.LFE42-.LFB42
 5806 0160 00000000 		.4byte	.LFB43
 5807 0164 8C000000 		.4byte	.LFE43-.LFB43
 5808 0168 00000000 		.4byte	.LFB44
 5809 016c 64000000 		.4byte	.LFE44-.LFB44
 5810 0170 00000000 		.4byte	.LFB45
 5811 0174 90000000 		.4byte	.LFE45-.LFB45
 5812 0178 00000000 		.4byte	.LFB46
 5813 017c 68000000 		.4byte	.LFE46-.LFB46
 5814 0180 00000000 		.4byte	.LFB47
 5815 0184 90000000 		.4byte	.LFE47-.LFB47
 5816 0188 00000000 		.4byte	.LFB48
 5817 018c 68000000 		.4byte	.LFE48-.LFB48
 5818 0190 00000000 		.4byte	0
 5819 0194 00000000 		.4byte	0
 5820              		.section	.debug_ranges,"",%progbits
 5821              	.Ldebug_ranges0:
 5822 0000 00000000 		.4byte	.LFB1
 5823 0004 34000000 		.4byte	.LFE1
 5824 0008 00000000 		.4byte	.LFB2
 5825 000c 18000000 		.4byte	.LFE2
 5826 0010 00000000 		.4byte	.LFB3
 5827 0014 14000000 		.4byte	.LFE3
 5828 0018 00000000 		.4byte	.LFB4
 5829 001c 14000000 		.4byte	.LFE4
 5830 0020 00000000 		.4byte	.LFB5
 5831 0024 14000000 		.4byte	.LFE5
 5832 0028 00000000 		.4byte	.LFB6
 5833 002c 14000000 		.4byte	.LFE6
 5834 0030 00000000 		.4byte	.LFB7
 5835 0034 18000000 		.4byte	.LFE7
 5836 0038 00000000 		.4byte	.LFB8
 5837 003c 14000000 		.4byte	.LFE8
 5838 0040 00000000 		.4byte	.LFB9
 5839 0044 18000000 		.4byte	.LFE9
 5840 0048 00000000 		.4byte	.LFB10
 5841 004c 18000000 		.4byte	.LFE10
ARM GAS  C:\Users\Matty\AppData\Local\Temp\ccXs7IQl.s 			page 129


 5842 0050 00000000 		.4byte	.LFB11
 5843 0054 14000000 		.4byte	.LFE11
 5844 0058 00000000 		.4byte	.LFB12
 5845 005c 14000000 		.4byte	.LFE12
 5846 0060 00000000 		.4byte	.LFB13
 5847 0064 48000000 		.4byte	.LFE13
 5848 0068 00000000 		.4byte	.LFB14
 5849 006c 38000000 		.4byte	.LFE14
 5850 0070 00000000 		.4byte	.LFB15
 5851 0074 50000000 		.4byte	.LFE15
 5852 0078 00000000 		.4byte	.LFB16
 5853 007c 0E000000 		.4byte	.LFE16
 5854 0080 00000000 		.4byte	.LFB17
 5855 0084 48000000 		.4byte	.LFE17
 5856 0088 00000000 		.4byte	.LFB18
 5857 008c 54000000 		.4byte	.LFE18
 5858 0090 00000000 		.4byte	.LFB19
 5859 0094 44000000 		.4byte	.LFE19
 5860 0098 00000000 		.4byte	.LFB20
 5861 009c 44000000 		.4byte	.LFE20
 5862 00a0 00000000 		.4byte	.LFB21
 5863 00a4 3C000000 		.4byte	.LFE21
 5864 00a8 00000000 		.4byte	.LFB22
 5865 00ac 70000000 		.4byte	.LFE22
 5866 00b0 00000000 		.4byte	.LFB23
 5867 00b4 44000000 		.4byte	.LFE23
 5868 00b8 00000000 		.4byte	.LFB24
 5869 00bc 70000000 		.4byte	.LFE24
 5870 00c0 00000000 		.4byte	.LFB25
 5871 00c4 44000000 		.4byte	.LFE25
 5872 00c8 00000000 		.4byte	.LFB26
 5873 00cc 54010000 		.4byte	.LFE26
 5874 00d0 00000000 		.4byte	.LFB27
 5875 00d4 64000000 		.4byte	.LFE27
 5876 00d8 00000000 		.4byte	.LFB28
 5877 00dc 60000000 		.4byte	.LFE28
 5878 00e0 00000000 		.4byte	.LFB29
 5879 00e4 60000000 		.4byte	.LFE29
 5880 00e8 00000000 		.4byte	.LFB30
 5881 00ec 5C000000 		.4byte	.LFE30
 5882 00f0 00000000 		.4byte	.LFB31
 5883 00f4 60000000 		.4byte	.LFE31
 5884 00f8 00000000 		.4byte	.LFB32
 5885 00fc 60000000 		.4byte	.LFE32
 5886 0100 00000000 		.4byte	.LFB33
 5887 0104 90000000 		.4byte	.LFE33
 5888 0108 00000000 		.4byte	.LFB34
 5889 010c 68000000 		.4byte	.LFE34
 5890 0110 00000000 		.4byte	.LFB35
 5891 0114 A4000000 		.4byte	.LFE35
 5892 0118 00000000 		.4byte	.LFB36
 5893 011c 6C000000 		.4byte	.LFE36
 5894 0120 00000000 		.4byte	.LFB37
 5895 0124 90000000 		.4byte	.LFE37
 5896 0128 00000000 		.4byte	.LFB38
 5897 012c 68000000 		.4byte	.LFE38
 5898 0130 00000000 		.4byte	.LFB39
ARM GAS  C:\Users\Matty\AppData\Local\Temp\ccXs7IQl.s 			page 130


 5899 0134 90000000 		.4byte	.LFE39
 5900 0138 00000000 		.4byte	.LFB40
 5901 013c 68000000 		.4byte	.LFE40
 5902 0140 00000000 		.4byte	.LFB41
 5903 0144 90000000 		.4byte	.LFE41
 5904 0148 00000000 		.4byte	.LFB42
 5905 014c 68000000 		.4byte	.LFE42
 5906 0150 00000000 		.4byte	.LFB43
 5907 0154 8C000000 		.4byte	.LFE43
 5908 0158 00000000 		.4byte	.LFB44
 5909 015c 64000000 		.4byte	.LFE44
 5910 0160 00000000 		.4byte	.LFB45
 5911 0164 90000000 		.4byte	.LFE45
 5912 0168 00000000 		.4byte	.LFB46
 5913 016c 68000000 		.4byte	.LFE46
 5914 0170 00000000 		.4byte	.LFB47
 5915 0174 90000000 		.4byte	.LFE47
 5916 0178 00000000 		.4byte	.LFB48
 5917 017c 68000000 		.4byte	.LFE48
 5918 0180 00000000 		.4byte	0
 5919 0184 00000000 		.4byte	0
 5920              		.section	.debug_line,"",%progbits
 5921              	.Ldebug_line0:
 5922 0000 020B0000 		.section	.debug_str,"MS",%progbits,1
 5922      02004F00 
 5922      00000201 
 5922      FB0E0D00 
 5922      01010101 
 5923              	.LASF39:
 5924 0000 4379446D 		.ascii	"CyDmaSetInterruptVector\000"
 5924      61536574 
 5924      496E7465 
 5924      72727570 
 5924      74566563 
 5925              	.LASF76:
 5926 0018 4379446D 		.ascii	"CyDmaGetSrcAddress\000"
 5926      61476574 
 5926      53726341 
 5926      64647265 
 5926      737300
 5927              	.LASF36:
 5928 002b 4379446D 		.ascii	"CyDmaGetActiveSrcAddress\000"
 5928      61476574 
 5928      41637469 
 5928      76655372 
 5928      63416464 
 5929              	.LASF102:
 5930 0044 433A5C55 		.ascii	"C:\\Users\\Matty\\Documents\\PSoC Creator\\RF_Switc"
 5930      73657273 
 5930      5C4D6174 
 5930      74795C44 
 5930      6F63756D 
 5931 0072 685F4D61 		.ascii	"h_Matrix\\RF_Switch_Matrix.cydsn\000"
 5931      74726978 
 5931      5C52465F 
 5931      53776974 
 5931      63685F4D 
ARM GAS  C:\Users\Matty\AppData\Local\Temp\ccXs7IQl.s 			page 131


 5932              	.LASF61:
 5933 0092 4379446D 		.ascii	"CyDmaChDisable\000"
 5933      61436844 
 5933      69736162 
 5933      6C6500
 5934              	.LASF77:
 5935 00a1 4379446D 		.ascii	"CyDmaSetDstAddress\000"
 5935      61536574 
 5935      44737441 
 5935      64647265 
 5935      737300
 5936              	.LASF60:
 5937 00b4 4379446D 		.ascii	"CyDmaChEnable\000"
 5937      61436845 
 5937      6E61626C 
 5937      6500
 5938              	.LASF55:
 5939 00c2 63624964 		.ascii	"cbIdx\000"
 5939      7800
 5940              	.LASF66:
 5941 00c8 4379446D 		.ascii	"CyDmaGetPriority\000"
 5941      61476574 
 5941      5072696F 
 5941      72697479 
 5941      00
 5942              	.LASF7:
 5943 00d9 6C6F6E67 		.ascii	"long long unsigned int\000"
 5943      206C6F6E 
 5943      6720756E 
 5943      7369676E 
 5943      65642069 
 5944              	.LASF42:
 5945 00f0 696E7465 		.ascii	"interruptVector\000"
 5945      72727570 
 5945      74566563 
 5945      746F7200 
 5946              	.LASF70:
 5947 0100 4379446D 		.ascii	"CyDmaSetConfiguration\000"
 5947      61536574 
 5947      436F6E66 
 5947      69677572 
 5947      6174696F 
 5948              	.LASF63:
 5949 0116 4379446D 		.ascii	"CyDmaSetPriority\000"
 5949      61536574 
 5949      5072696F 
 5949      72697479 
 5949      00
 5950              	.LASF6:
 5951 0127 6C6F6E67 		.ascii	"long long int\000"
 5951      206C6F6E 
 5951      6720696E 
 5951      7400
 5952              	.LASF0:
 5953 0135 7369676E 		.ascii	"signed char\000"
 5953      65642063 
 5953      68617200 
ARM GAS  C:\Users\Matty\AppData\Local\Temp\ccXs7IQl.s 			page 132


 5954              	.LASF83:
 5955 0141 4379446D 		.ascii	"CyDmaGetNumDataElements\000"
 5955      61476574 
 5955      4E756D44 
 5955      61746145 
 5955      6C656D65 
 5956              	.LASF11:
 5957 0159 696E7433 		.ascii	"int32\000"
 5957      3200
 5958              	.LASF68:
 5959 015f 4379446D 		.ascii	"CyDmaGetNextDescriptor\000"
 5959      61476574 
 5959      4E657874 
 5959      44657363 
 5959      72697074 
 5960              	.LASF4:
 5961 0176 6C6F6E67 		.ascii	"long int\000"
 5961      20696E74 
 5961      00
 5962              	.LASF19:
 5963 017f 6379646D 		.ascii	"cydma_channel_ctl_struct\000"
 5963      615F6368 
 5963      616E6E65 
 5963      6C5F6374 
 5963      6C5F7374 
 5964              	.LASF74:
 5965 0198 4379446D 		.ascii	"CyDmaSetSrcAddress\000"
 5965      61536574 
 5965      53726341 
 5965      64647265 
 5965      737300
 5966              	.LASF49:
 5967 01ab 696E6974 		.ascii	"initIntrVector\000"
 5967      496E7472 
 5967      56656374 
 5967      6F7200
 5968              	.LASF52:
 5969 01ba 4379446D 		.ascii	"CyDmaGetInterruptCallback\000"
 5969      61476574 
 5969      496E7465 
 5969      72727570 
 5969      7443616C 
 5970              	.LASF25:
 5971 01d4 6E756D44 		.ascii	"numDataElements\000"
 5971      61746145 
 5971      6C656D65 
 5971      6E747300 
 5972              	.LASF9:
 5973 01e4 75696E74 		.ascii	"uint8\000"
 5973      3800
 5974              	.LASF103:
 5975 01ea 4379446D 		.ascii	"CyDmaDisable\000"
 5975      61446973 
 5975      61626C65 
 5975      00
 5976              	.LASF59:
 5977 01f7 72657375 		.ascii	"result\000"
ARM GAS  C:\Users\Matty\AppData\Local\Temp\ccXs7IQl.s 			page 133


 5977      6C7400
 5978              	.LASF13:
 5979 01fe 646F7562 		.ascii	"double\000"
 5979      6C6500
 5980              	.LASF87:
 5981 0205 4379446D 		.ascii	"CyDmaGetSrcDstTransferWidth\000"
 5981      61476574 
 5981      53726344 
 5981      73745472 
 5981      616E7366 
 5982              	.LASF10:
 5983 0221 75696E74 		.ascii	"uint32\000"
 5983      333200
 5984              	.LASF28:
 5985 0228 74726967 		.ascii	"triggerType\000"
 5985      67657254 
 5985      79706500 
 5986              	.LASF50:
 5987 0234 70726576 		.ascii	"prevCallback\000"
 5987      43616C6C 
 5987      6261636B 
 5987      00
 5988              	.LASF65:
 5989 0241 72656756 		.ascii	"regValue\000"
 5989      616C7565 
 5989      00
 5990              	.LASF44:
 5991 024a 4379446D 		.ascii	"CyDmaSetInterruptSourceMask\000"
 5991      61536574 
 5991      496E7465 
 5991      72727570 
 5991      74536F75 
 5992              	.LASF32:
 5993 0266 6379646D 		.ascii	"cydma_init_struct\000"
 5993      615F696E 
 5993      69745F73 
 5993      74727563 
 5993      7400
 5994              	.LASF67:
 5995 0278 4379446D 		.ascii	"CyDmaSetNextDescriptor\000"
 5995      61536574 
 5995      4E657874 
 5995      44657363 
 5995      72697074 
 5996              	.LASF29:
 5997 028f 7472616E 		.ascii	"transferMode\000"
 5997      73666572 
 5997      4D6F6465 
 5997      00
 5998              	.LASF8:
 5999 029c 756E7369 		.ascii	"unsigned int\000"
 5999      676E6564 
 5999      20696E74 
 5999      00
 6000              	.LASF35:
 6001 02a9 4379446D 		.ascii	"CyDmaGetActiveChannels\000"
 6001      61476574 
ARM GAS  C:\Users\Matty\AppData\Local\Temp\ccXs7IQl.s 			page 134


 6001      41637469 
 6001      76654368 
 6001      616E6E65 
 6002              	.LASF5:
 6003 02c0 6C6F6E67 		.ascii	"long unsigned int\000"
 6003      20756E73 
 6003      69676E65 
 6003      6420696E 
 6003      7400
 6004              	.LASF78:
 6005 02d2 64737441 		.ascii	"dstAddress\000"
 6005      64647265 
 6005      737300
 6006              	.LASF3:
 6007 02dd 73686F72 		.ascii	"short unsigned int\000"
 6007      7420756E 
 6007      7369676E 
 6007      65642069 
 6007      6E7400
 6008              	.LASF97:
 6009 02f0 4379446D 		.ascii	"CyDmaGetPostCompletionActions\000"
 6009      61476574 
 6009      506F7374 
 6009      436F6D70 
 6009      6C657469 
 6010              	.LASF89:
 6011 030e 4379446D 		.ascii	"CyDmaGetAddressIncrement\000"
 6011      61476574 
 6011      41646472 
 6011      65737349 
 6011      6E637265 
 6012              	.LASF48:
 6013 0327 63616C6C 		.ascii	"callback\000"
 6013      6261636B 
 6013      00
 6014              	.LASF64:
 6015 0330 7072696F 		.ascii	"priority\000"
 6015      72697479 
 6015      00
 6016              	.LASF88:
 6017 0339 4379446D 		.ascii	"CyDmaSetAddressIncrement\000"
 6017      61536574 
 6017      41646472 
 6017      65737349 
 6017      6E637265 
 6018              	.LASF95:
 6019 0352 4379446D 		.ascii	"CyDmaGetPreemptable\000"
 6019      61476574 
 6019      50726565 
 6019      6D707461 
 6019      626C6500 
 6020              	.LASF101:
 6021 0366 2E5C4765 		.ascii	".\\Generated_Source\\PSoC4\\CyDMA.c\000"
 6021      6E657261 
 6021      7465645F 
 6021      536F7572 
 6021      63655C50 
ARM GAS  C:\Users\Matty\AppData\Local\Temp\ccXs7IQl.s 			page 135


 6022              	.LASF16:
 6023 0387 72656733 		.ascii	"reg32\000"
 6023      3200
 6024              	.LASF93:
 6025 038d 4379446D 		.ascii	"CyDmaGetTransferMode\000"
 6025      61476574 
 6025      5472616E 
 6025      73666572 
 6025      4D6F6465 
 6026              	.LASF96:
 6027 03a2 4379446D 		.ascii	"CyDmaSetPostCompletionActions\000"
 6027      61536574 
 6027      506F7374 
 6027      436F6D70 
 6027      6C657469 
 6028              	.LASF18:
 6029 03c0 73697A65 		.ascii	"sizetype\000"
 6029      74797065 
 6029      00
 6030              	.LASF54:
 6031 03c9 696E7472 		.ascii	"intr\000"
 6031      00
 6032              	.LASF104:
 6033 03ce 4379446D 		.ascii	"CyDmaDefaultInterruptCallback\000"
 6033      61446566 
 6033      61756C74 
 6033      496E7465 
 6033      72727570 
 6034              	.LASF84:
 6035 03ec 6E756D45 		.ascii	"numElements\000"
 6035      6C656D65 
 6035      6E747300 
 6036              	.LASF75:
 6037 03f8 73726341 		.ascii	"srcAddress\000"
 6037      64647265 
 6037      737300
 6038              	.LASF73:
 6039 0403 4379446D 		.ascii	"CyDmaGetDescriptorStatus\000"
 6039      61476574 
 6039      44657363 
 6039      72697074 
 6039      6F725374 
 6040              	.LASF51:
 6041 041c 4379446D 		.ascii	"CyDmaSetInterruptCallback\000"
 6041      61536574 
 6041      496E7465 
 6041      72727570 
 6041      7443616C 
 6042              	.LASF40:
 6043 0436 4379446D 		.ascii	"CyDmaGetInterruptSource\000"
 6043      61476574 
 6043      496E7465 
 6043      72727570 
 6043      74536F75 
 6044              	.LASF26:
 6045 044e 73726344 		.ascii	"srcDstTransferWidth\000"
 6045      73745472 
ARM GAS  C:\Users\Matty\AppData\Local\Temp\ccXs7IQl.s 			page 136


 6045      616E7366 
 6045      65725769 
 6045      64746800 
 6046              	.LASF80:
 6047 0462 4379446D 		.ascii	"CyDmaSetDataElementSize\000"
 6047      61536574 
 6047      44617461 
 6047      456C656D 
 6047      656E7453 
 6048              	.LASF53:
 6049 047a 4379446D 		.ascii	"CyDmaInterrupt\000"
 6049      61496E74 
 6049      65727275 
 6049      707400
 6050              	.LASF24:
 6051 0489 64617461 		.ascii	"dataElementSize\000"
 6051      456C656D 
 6051      656E7453 
 6051      697A6500 
 6052              	.LASF12:
 6053 0499 666C6F61 		.ascii	"float\000"
 6053      7400
 6054              	.LASF100:
 6055 049f 474E5520 		.ascii	"GNU C 4.8.4 20140526 (release) [ARM/embedded-4_8-br"
 6055      4320342E 
 6055      382E3420 
 6055      32303134 
 6055      30353236 
 6056 04d2 616E6368 		.ascii	"anch revision 211358] -mcpu=cortex-m0 -mthumb -g -O"
 6056      20726576 
 6056      6973696F 
 6056      6E203231 
 6056      31333538 
 6057 0505 30202D66 		.ascii	"0 -ffunction-sections\000"
 6057      66756E63 
 6057      74696F6E 
 6057      2D736563 
 6057      74696F6E 
 6058              	.LASF33:
 6059 051b 6379646D 		.ascii	"cydma_callback_t\000"
 6059      615F6361 
 6059      6C6C6261 
 6059      636B5F74 
 6059      00
 6060              	.LASF98:
 6061 052c 4379446D 		.ascii	"CyDmaInterruptCallback\000"
 6061      61496E74 
 6061      65727275 
 6061      70744361 
 6061      6C6C6261 
 6062              	.LASF34:
 6063 0543 4379446D 		.ascii	"CyDmaGetStatus\000"
 6063      61476574 
 6063      53746174 
 6063      757300
 6064              	.LASF1:
 6065 0552 756E7369 		.ascii	"unsigned char\000"
ARM GAS  C:\Users\Matty\AppData\Local\Temp\ccXs7IQl.s 			page 137


 6065      676E6564 
 6065      20636861 
 6065      7200
 6066              	.LASF46:
 6067 0560 4379446D 		.ascii	"CyDmaGetInterruptSourceMasked\000"
 6067      61476574 
 6067      496E7465 
 6067      72727570 
 6067      74536F75 
 6068              	.LASF2:
 6069 057e 73686F72 		.ascii	"short int\000"
 6069      7420696E 
 6069      7400
 6070              	.LASF43:
 6071 0588 696E7465 		.ascii	"interruptMask\000"
 6071      72727570 
 6071      744D6173 
 6071      6B00
 6072              	.LASF45:
 6073 0596 4379446D 		.ascii	"CyDmaGetInterruptSourceMask\000"
 6073      61476574 
 6073      496E7465 
 6073      72727570 
 6073      74536F75 
 6074              	.LASF69:
 6075 05b2 6E657874 		.ascii	"nextDescriptor\000"
 6075      44657363 
 6075      72697074 
 6075      6F7200
 6076              	.LASF47:
 6077 05c1 6368616E 		.ascii	"channel\000"
 6077      6E656C00 
 6078              	.LASF91:
 6079 05c9 4379446D 		.ascii	"CyDmaGetTriggerType\000"
 6079      61476574 
 6079      54726967 
 6079      67657254 
 6079      79706500 
 6080              	.LASF56:
 6081 05dd 4379446D 		.ascii	"CyDmaChAlloc\000"
 6081      61436841 
 6081      6C6C6F63 
 6081      00
 6082              	.LASF22:
 6083 05ea 64657363 		.ascii	"descriptor\000"
 6083      72697074 
 6083      6F7200
 6084              	.LASF57:
 6085 05f5 6368616E 		.ascii	"channelMask\000"
 6085      6E656C4D 
 6085      61736B00 
 6086              	.LASF14:
 6087 0601 63686172 		.ascii	"char\000"
 6087      00
 6088              	.LASF41:
 6089 0606 4379446D 		.ascii	"CyDmaClearInterruptSource\000"
 6089      61436C65 
ARM GAS  C:\Users\Matty\AppData\Local\Temp\ccXs7IQl.s 			page 138


 6089      6172496E 
 6089      74657272 
 6089      75707453 
 6090              	.LASF17:
 6091 0620 63796973 		.ascii	"cyisraddress\000"
 6091      72616464 
 6091      72657373 
 6091      00
 6092              	.LASF71:
 6093 062d 636F6E66 		.ascii	"config\000"
 6093      696700
 6094              	.LASF99:
 6095 0634 4379446D 		.ascii	"CyDmaChannelUsedMask\000"
 6095      61436861 
 6095      6E6E656C 
 6095      55736564 
 6095      4D61736B 
 6096              	.LASF81:
 6097 0649 4379446D 		.ascii	"CyDmaGetDataElementSize\000"
 6097      61476574 
 6097      44617461 
 6097      456C656D 
 6097      656E7453 
 6098              	.LASF85:
 6099 0661 4379446D 		.ascii	"CyDmaSetSrcDstTransferWidth\000"
 6099      61536574 
 6099      53726344 
 6099      73745472 
 6099      616E7366 
 6100              	.LASF72:
 6101 067d 4379446D 		.ascii	"CyDmaValidateDescriptor\000"
 6101      6156616C 
 6101      69646174 
 6101      65446573 
 6101      63726970 
 6102              	.LASF38:
 6103 0695 4379446D 		.ascii	"CyDmaEnable\000"
 6103      61456E61 
 6103      626C6500 
 6104              	.LASF27:
 6105 06a1 61646472 		.ascii	"addressIncrement\000"
 6105      65737349 
 6105      6E637265 
 6105      6D656E74 
 6105      00
 6106              	.LASF79:
 6107 06b2 4379446D 		.ascii	"CyDmaGetDstAddress\000"
 6107      61476574 
 6107      44737441 
 6107      64647265 
 6107      737300
 6108              	.LASF37:
 6109 06c5 4379446D 		.ascii	"CyDmaGetActiveDstAddress\000"
 6109      61476574 
 6109      41637469 
 6109      76654473 
 6109      74416464 
ARM GAS  C:\Users\Matty\AppData\Local\Temp\ccXs7IQl.s 			page 139


 6110              	.LASF82:
 6111 06de 4379446D 		.ascii	"CyDmaSetNumDataElements\000"
 6111      61536574 
 6111      4E756D44 
 6111      61746145 
 6111      6C656D65 
 6112              	.LASF20:
 6113 06f6 73746174 		.ascii	"status\000"
 6113      757300
 6114              	.LASF21:
 6115 06fd 6379646D 		.ascii	"cydma_descriptor_struct\000"
 6115      615F6465 
 6115      73637269 
 6115      70746F72 
 6115      5F737472 
 6116              	.LASF15:
 6117 0715 63797374 		.ascii	"cystatus\000"
 6117      61747573 
 6117      00
 6118              	.LASF86:
 6119 071e 7472616E 		.ascii	"transferWidth\000"
 6119      73666572 
 6119      57696474 
 6119      6800
 6120              	.LASF62:
 6121 072c 4379446D 		.ascii	"CyDmaTrigger\000"
 6121      61547269 
 6121      67676572 
 6121      00
 6122              	.LASF92:
 6123 0739 4379446D 		.ascii	"CyDmaSetTransferMode\000"
 6123      61536574 
 6123      5472616E 
 6123      73666572 
 6123      4D6F6465 
 6124              	.LASF23:
 6125 074e 6379646D 		.ascii	"cydma_descriptor_ram_struct\000"
 6125      615F6465 
 6125      73637269 
 6125      70746F72 
 6125      5F72616D 
 6126              	.LASF90:
 6127 076a 4379446D 		.ascii	"CyDmaSetTriggerType\000"
 6127      61536574 
 6127      54726967 
 6127      67657254 
 6127      79706500 
 6128              	.LASF31:
 6129 077e 61637469 		.ascii	"actions\000"
 6129      6F6E7300 
 6130              	.LASF30:
 6131 0786 70726565 		.ascii	"preemptable\000"
 6131      6D707461 
 6131      626C6500 
 6132              	.LASF94:
 6133 0792 4379446D 		.ascii	"CyDmaSetPreemptable\000"
 6133      61536574 
ARM GAS  C:\Users\Matty\AppData\Local\Temp\ccXs7IQl.s 			page 140


 6133      50726565 
 6133      6D707461 
 6133      626C6500 
 6134              	.LASF58:
 6135 07a6 4379446D 		.ascii	"CyDmaChFree\000"
 6135      61436846 
 6135      72656500 
 6136              		.ident	"GCC: (GNU Tools for ARM Embedded Processors) 4.8.4 20140526 (release) [ARM/embedded-4_8-br
