ARM GAS  C:\Users\Matty\AppData\Local\Temp\cc7EDzdh.s 			page 1


   1              		.cpu cortex-m0
   2              		.fpu softvfp
   3              		.eabi_attribute 20, 1
   4              		.eabi_attribute 21, 1
   5              		.eabi_attribute 23, 3
   6              		.eabi_attribute 24, 1
   7              		.eabi_attribute 25, 1
   8              		.eabi_attribute 26, 1
   9              		.eabi_attribute 30, 6
  10              		.eabi_attribute 34, 0
  11              		.eabi_attribute 18, 4
  12              		.code	16
  13              		.file	"cyfitter_cfg.c"
  14              		.text
  15              	.Ltext0:
  16              		.cfi_sections	.debug_frame
  17              		.section	.text.CYMEMZERO,"ax",%progbits
  18              		.align	2
  19              		.code	16
  20              		.thumb_func
  21              		.type	CYMEMZERO, %function
  22              	CYMEMZERO:
  23              	.LFB1:
  24              		.file 1 ".\\Generated_Source\\PSoC4\\cyfitter_cfg.c"
   1:.\Generated_Source\PSoC4/cyfitter_cfg.c **** /*******************************************************************************
   2:.\Generated_Source\PSoC4/cyfitter_cfg.c **** * FILENAME: cyfitter_cfg.c
   3:.\Generated_Source\PSoC4/cyfitter_cfg.c **** * 
   4:.\Generated_Source\PSoC4/cyfitter_cfg.c **** * PSoC Creator  3.2
   5:.\Generated_Source\PSoC4/cyfitter_cfg.c **** *
   6:.\Generated_Source\PSoC4/cyfitter_cfg.c **** * DESCRIPTION:
   7:.\Generated_Source\PSoC4/cyfitter_cfg.c **** * This file contains device initialization code.
   8:.\Generated_Source\PSoC4/cyfitter_cfg.c **** * Except for the user defined sections in CyClockStartupError(), this file should not be modified.
   9:.\Generated_Source\PSoC4/cyfitter_cfg.c **** * This file is automatically generated by PSoC Creator.
  10:.\Generated_Source\PSoC4/cyfitter_cfg.c **** *
  11:.\Generated_Source\PSoC4/cyfitter_cfg.c **** ********************************************************************************
  12:.\Generated_Source\PSoC4/cyfitter_cfg.c **** * Copyright (c) 2007-2015 Cypress Semiconductor.  All rights reserved.
  13:.\Generated_Source\PSoC4/cyfitter_cfg.c **** * You may use this file only in accordance with the license, terms, conditions, 
  14:.\Generated_Source\PSoC4/cyfitter_cfg.c **** * disclaimers, and limitations in the end user license agreement accompanying 
  15:.\Generated_Source\PSoC4/cyfitter_cfg.c **** * the software package with which this file was provided.
  16:.\Generated_Source\PSoC4/cyfitter_cfg.c **** ********************************************************************************/
  17:.\Generated_Source\PSoC4/cyfitter_cfg.c **** 
  18:.\Generated_Source\PSoC4/cyfitter_cfg.c **** #include <string.h>
  19:.\Generated_Source\PSoC4/cyfitter_cfg.c **** #include "cytypes.h"
  20:.\Generated_Source\PSoC4/cyfitter_cfg.c **** #include "cydevice_trm.h"
  21:.\Generated_Source\PSoC4/cyfitter_cfg.c **** #include "cyfitter.h"
  22:.\Generated_Source\PSoC4/cyfitter_cfg.c **** #include "CyLib.h"
  23:.\Generated_Source\PSoC4/cyfitter_cfg.c **** #include "cyfitter_cfg.h"
  24:.\Generated_Source\PSoC4/cyfitter_cfg.c **** 
  25:.\Generated_Source\PSoC4/cyfitter_cfg.c **** 
  26:.\Generated_Source\PSoC4/cyfitter_cfg.c **** #if defined(__GNUC__) || defined(__ARMCC_VERSION)
  27:.\Generated_Source\PSoC4/cyfitter_cfg.c ****     #define CYPACKED 
  28:.\Generated_Source\PSoC4/cyfitter_cfg.c ****     #define CYPACKED_ATTR __attribute__ ((packed))
  29:.\Generated_Source\PSoC4/cyfitter_cfg.c ****     #define CYALIGNED __attribute__ ((aligned))
  30:.\Generated_Source\PSoC4/cyfitter_cfg.c ****     #define CY_CFG_UNUSED __attribute__ ((unused))
  31:.\Generated_Source\PSoC4/cyfitter_cfg.c ****     #define CY_CFG_SECTION __attribute__ ((section(".psocinit")))
  32:.\Generated_Source\PSoC4/cyfitter_cfg.c ****     
  33:.\Generated_Source\PSoC4/cyfitter_cfg.c ****     #if defined(__ARMCC_VERSION)
ARM GAS  C:\Users\Matty\AppData\Local\Temp\cc7EDzdh.s 			page 2


  34:.\Generated_Source\PSoC4/cyfitter_cfg.c ****         #define CY_CFG_MEMORY_BARRIER() __memory_changed()
  35:.\Generated_Source\PSoC4/cyfitter_cfg.c ****     #else
  36:.\Generated_Source\PSoC4/cyfitter_cfg.c ****         #define CY_CFG_MEMORY_BARRIER() __sync_synchronize()
  37:.\Generated_Source\PSoC4/cyfitter_cfg.c ****     #endif
  38:.\Generated_Source\PSoC4/cyfitter_cfg.c ****     
  39:.\Generated_Source\PSoC4/cyfitter_cfg.c **** #elif defined(__ICCARM__)
  40:.\Generated_Source\PSoC4/cyfitter_cfg.c ****     #include <intrinsics.h>
  41:.\Generated_Source\PSoC4/cyfitter_cfg.c **** 
  42:.\Generated_Source\PSoC4/cyfitter_cfg.c ****     #define CYPACKED __packed
  43:.\Generated_Source\PSoC4/cyfitter_cfg.c ****     #define CYPACKED_ATTR 
  44:.\Generated_Source\PSoC4/cyfitter_cfg.c ****     #define CYALIGNED _Pragma("data_alignment=4")
  45:.\Generated_Source\PSoC4/cyfitter_cfg.c ****     #define CY_CFG_UNUSED _Pragma("diag_suppress=Pe177")
  46:.\Generated_Source\PSoC4/cyfitter_cfg.c ****     #define CY_CFG_SECTION _Pragma("location=\".psocinit\"")
  47:.\Generated_Source\PSoC4/cyfitter_cfg.c ****     
  48:.\Generated_Source\PSoC4/cyfitter_cfg.c ****     #define CY_CFG_MEMORY_BARRIER() __DMB()
  49:.\Generated_Source\PSoC4/cyfitter_cfg.c ****     
  50:.\Generated_Source\PSoC4/cyfitter_cfg.c **** #else
  51:.\Generated_Source\PSoC4/cyfitter_cfg.c ****     #error Unsupported toolchain
  52:.\Generated_Source\PSoC4/cyfitter_cfg.c **** #endif
  53:.\Generated_Source\PSoC4/cyfitter_cfg.c **** 
  54:.\Generated_Source\PSoC4/cyfitter_cfg.c **** 
  55:.\Generated_Source\PSoC4/cyfitter_cfg.c **** CY_CFG_UNUSED
  56:.\Generated_Source\PSoC4/cyfitter_cfg.c **** static void CYMEMZERO(void *s, size_t n);
  57:.\Generated_Source\PSoC4/cyfitter_cfg.c **** CY_CFG_UNUSED
  58:.\Generated_Source\PSoC4/cyfitter_cfg.c **** static void CYMEMZERO(void *s, size_t n)
  59:.\Generated_Source\PSoC4/cyfitter_cfg.c **** {
  25              		.loc 1 59 0
  26              		.cfi_startproc
  27 0000 80B5     		push	{r7, lr}
  28              		.cfi_def_cfa_offset 8
  29              		.cfi_offset 7, -8
  30              		.cfi_offset 14, -4
  31 0002 82B0     		sub	sp, sp, #8
  32              		.cfi_def_cfa_offset 16
  33 0004 00AF     		add	r7, sp, #0
  34              		.cfi_def_cfa_register 7
  35 0006 7860     		str	r0, [r7, #4]
  36 0008 3960     		str	r1, [r7]
  60:.\Generated_Source\PSoC4/cyfitter_cfg.c **** 	(void)memset(s, 0, n);
  37              		.loc 1 60 0
  38 000a 7A68     		ldr	r2, [r7, #4]
  39 000c 3B68     		ldr	r3, [r7]
  40 000e 101C     		mov	r0, r2
  41 0010 0021     		mov	r1, #0
  42 0012 1A1C     		mov	r2, r3
  43 0014 FFF7FEFF 		bl	memset
  61:.\Generated_Source\PSoC4/cyfitter_cfg.c **** }
  44              		.loc 1 61 0
  45 0018 BD46     		mov	sp, r7
  46 001a 02B0     		add	sp, sp, #8
  47              		@ sp needed
  48 001c 80BD     		pop	{r7, pc}
  49              		.cfi_endproc
  50              	.LFE1:
  51              		.size	CYMEMZERO, .-CYMEMZERO
  52 001e C046     		.section	.text.CYCONFIGCPY,"ax",%progbits
  53              		.align	2
ARM GAS  C:\Users\Matty\AppData\Local\Temp\cc7EDzdh.s 			page 3


  54              		.code	16
  55              		.thumb_func
  56              		.type	CYCONFIGCPY, %function
  57              	CYCONFIGCPY:
  58              	.LFB2:
  62:.\Generated_Source\PSoC4/cyfitter_cfg.c **** CY_CFG_UNUSED
  63:.\Generated_Source\PSoC4/cyfitter_cfg.c **** static void CYCONFIGCPY(void *dest, const void *src, size_t n);
  64:.\Generated_Source\PSoC4/cyfitter_cfg.c **** CY_CFG_UNUSED
  65:.\Generated_Source\PSoC4/cyfitter_cfg.c **** static void CYCONFIGCPY(void *dest, const void *src, size_t n)
  66:.\Generated_Source\PSoC4/cyfitter_cfg.c **** {
  59              		.loc 1 66 0
  60              		.cfi_startproc
  61 0000 80B5     		push	{r7, lr}
  62              		.cfi_def_cfa_offset 8
  63              		.cfi_offset 7, -8
  64              		.cfi_offset 14, -4
  65 0002 84B0     		sub	sp, sp, #16
  66              		.cfi_def_cfa_offset 24
  67 0004 00AF     		add	r7, sp, #0
  68              		.cfi_def_cfa_register 7
  69 0006 F860     		str	r0, [r7, #12]
  70 0008 B960     		str	r1, [r7, #8]
  71 000a 7A60     		str	r2, [r7, #4]
  67:.\Generated_Source\PSoC4/cyfitter_cfg.c **** 	(void)memcpy(dest, src, n);
  72              		.loc 1 67 0
  73 000c F968     		ldr	r1, [r7, #12]
  74 000e BA68     		ldr	r2, [r7, #8]
  75 0010 7B68     		ldr	r3, [r7, #4]
  76 0012 081C     		mov	r0, r1
  77 0014 111C     		mov	r1, r2
  78 0016 1A1C     		mov	r2, r3
  79 0018 FFF7FEFF 		bl	memcpy
  68:.\Generated_Source\PSoC4/cyfitter_cfg.c **** }
  80              		.loc 1 68 0
  81 001c BD46     		mov	sp, r7
  82 001e 04B0     		add	sp, sp, #16
  83              		@ sp needed
  84 0020 80BD     		pop	{r7, pc}
  85              		.cfi_endproc
  86              	.LFE2:
  87              		.size	CYCONFIGCPY, .-CYCONFIGCPY
  88 0022 C046     		.section	.text.CYCONFIGCPYCODE,"ax",%progbits
  89              		.align	2
  90              		.code	16
  91              		.thumb_func
  92              		.type	CYCONFIGCPYCODE, %function
  93              	CYCONFIGCPYCODE:
  94              	.LFB3:
  69:.\Generated_Source\PSoC4/cyfitter_cfg.c **** CY_CFG_UNUSED
  70:.\Generated_Source\PSoC4/cyfitter_cfg.c **** static void CYCONFIGCPYCODE(void *dest, const void *src, size_t n);
  71:.\Generated_Source\PSoC4/cyfitter_cfg.c **** CY_CFG_UNUSED
  72:.\Generated_Source\PSoC4/cyfitter_cfg.c **** static void CYCONFIGCPYCODE(void *dest, const void *src, size_t n)
  73:.\Generated_Source\PSoC4/cyfitter_cfg.c **** {
  95              		.loc 1 73 0
  96              		.cfi_startproc
  97 0000 80B5     		push	{r7, lr}
  98              		.cfi_def_cfa_offset 8
ARM GAS  C:\Users\Matty\AppData\Local\Temp\cc7EDzdh.s 			page 4


  99              		.cfi_offset 7, -8
 100              		.cfi_offset 14, -4
 101 0002 84B0     		sub	sp, sp, #16
 102              		.cfi_def_cfa_offset 24
 103 0004 00AF     		add	r7, sp, #0
 104              		.cfi_def_cfa_register 7
 105 0006 F860     		str	r0, [r7, #12]
 106 0008 B960     		str	r1, [r7, #8]
 107 000a 7A60     		str	r2, [r7, #4]
  74:.\Generated_Source\PSoC4/cyfitter_cfg.c **** 	(void)memcpy(dest, src, n);
 108              		.loc 1 74 0
 109 000c F968     		ldr	r1, [r7, #12]
 110 000e BA68     		ldr	r2, [r7, #8]
 111 0010 7B68     		ldr	r3, [r7, #4]
 112 0012 081C     		mov	r0, r1
 113 0014 111C     		mov	r1, r2
 114 0016 1A1C     		mov	r2, r3
 115 0018 FFF7FEFF 		bl	memcpy
  75:.\Generated_Source\PSoC4/cyfitter_cfg.c **** }
 116              		.loc 1 75 0
 117 001c BD46     		mov	sp, r7
 118 001e 04B0     		add	sp, sp, #16
 119              		@ sp needed
 120 0020 80BD     		pop	{r7, pc}
 121              		.cfi_endproc
 122              	.LFE3:
 123              		.size	CYCONFIGCPYCODE, .-CYCONFIGCPYCODE
 124 0022 C046     		.section	.text.cfg_write_bytes32,"ax",%progbits
 125              		.align	2
 126              		.code	16
 127              		.thumb_func
 128              		.type	cfg_write_bytes32, %function
 129              	cfg_write_bytes32:
 130              	.LFB4:
  76:.\Generated_Source\PSoC4/cyfitter_cfg.c **** 
  77:.\Generated_Source\PSoC4/cyfitter_cfg.c **** 
  78:.\Generated_Source\PSoC4/cyfitter_cfg.c **** 
  79:.\Generated_Source\PSoC4/cyfitter_cfg.c **** /* Clock startup error codes                                                   */
  80:.\Generated_Source\PSoC4/cyfitter_cfg.c **** #define CYCLOCKSTART_NO_ERROR    0u
  81:.\Generated_Source\PSoC4/cyfitter_cfg.c **** #define CYCLOCKSTART_XTAL_ERROR  1u
  82:.\Generated_Source\PSoC4/cyfitter_cfg.c **** #define CYCLOCKSTART_32KHZ_ERROR 2u
  83:.\Generated_Source\PSoC4/cyfitter_cfg.c **** #define CYCLOCKSTART_PLL_ERROR   3u
  84:.\Generated_Source\PSoC4/cyfitter_cfg.c **** 
  85:.\Generated_Source\PSoC4/cyfitter_cfg.c **** #ifdef CY_NEED_CYCLOCKSTARTUPERROR
  86:.\Generated_Source\PSoC4/cyfitter_cfg.c **** /*******************************************************************************
  87:.\Generated_Source\PSoC4/cyfitter_cfg.c **** * Function Name: CyClockStartupError
  88:.\Generated_Source\PSoC4/cyfitter_cfg.c **** ********************************************************************************
  89:.\Generated_Source\PSoC4/cyfitter_cfg.c **** * Summary:
  90:.\Generated_Source\PSoC4/cyfitter_cfg.c **** *  If an error is encountered during clock configuration (crystal startup error,
  91:.\Generated_Source\PSoC4/cyfitter_cfg.c **** *  PLL lock error, etc.), the system will end up here.  Unless reimplemented by
  92:.\Generated_Source\PSoC4/cyfitter_cfg.c **** *  the customer, this function will stop in an infinite loop.
  93:.\Generated_Source\PSoC4/cyfitter_cfg.c **** *
  94:.\Generated_Source\PSoC4/cyfitter_cfg.c **** * Parameters:
  95:.\Generated_Source\PSoC4/cyfitter_cfg.c **** *   void
  96:.\Generated_Source\PSoC4/cyfitter_cfg.c **** *
  97:.\Generated_Source\PSoC4/cyfitter_cfg.c **** * Return:
  98:.\Generated_Source\PSoC4/cyfitter_cfg.c **** *   void
ARM GAS  C:\Users\Matty\AppData\Local\Temp\cc7EDzdh.s 			page 5


  99:.\Generated_Source\PSoC4/cyfitter_cfg.c **** *
 100:.\Generated_Source\PSoC4/cyfitter_cfg.c **** *******************************************************************************/
 101:.\Generated_Source\PSoC4/cyfitter_cfg.c **** CY_CFG_UNUSED
 102:.\Generated_Source\PSoC4/cyfitter_cfg.c **** static void CyClockStartupError(uint8 errorCode);
 103:.\Generated_Source\PSoC4/cyfitter_cfg.c **** CY_CFG_UNUSED
 104:.\Generated_Source\PSoC4/cyfitter_cfg.c **** static void CyClockStartupError(uint8 errorCode)
 105:.\Generated_Source\PSoC4/cyfitter_cfg.c **** {
 106:.\Generated_Source\PSoC4/cyfitter_cfg.c ****     /* To remove the compiler warning if errorCode not used.                */
 107:.\Generated_Source\PSoC4/cyfitter_cfg.c ****     errorCode = errorCode;
 108:.\Generated_Source\PSoC4/cyfitter_cfg.c **** 
 109:.\Generated_Source\PSoC4/cyfitter_cfg.c ****     /* `#START CyClockStartupError` */
 110:.\Generated_Source\PSoC4/cyfitter_cfg.c **** 
 111:.\Generated_Source\PSoC4/cyfitter_cfg.c ****     /* If we have a clock startup error (bad MHz crystal, PLL lock, etc.),  */
 112:.\Generated_Source\PSoC4/cyfitter_cfg.c ****     /* we will end up here to allow the customer to implement something to  */
 113:.\Generated_Source\PSoC4/cyfitter_cfg.c ****     /* deal with the clock condition.                                       */
 114:.\Generated_Source\PSoC4/cyfitter_cfg.c **** 
 115:.\Generated_Source\PSoC4/cyfitter_cfg.c ****     /* `#END` */
 116:.\Generated_Source\PSoC4/cyfitter_cfg.c **** 
 117:.\Generated_Source\PSoC4/cyfitter_cfg.c ****     /* If nothing else, stop here since the clocks have not started         */
 118:.\Generated_Source\PSoC4/cyfitter_cfg.c ****     /* correctly.                                                           */
 119:.\Generated_Source\PSoC4/cyfitter_cfg.c ****     while(1) {}
 120:.\Generated_Source\PSoC4/cyfitter_cfg.c **** }
 121:.\Generated_Source\PSoC4/cyfitter_cfg.c **** #endif
 122:.\Generated_Source\PSoC4/cyfitter_cfg.c **** 
 123:.\Generated_Source\PSoC4/cyfitter_cfg.c **** #define CY_CFG_BASE_ADDR_COUNT 9u
 124:.\Generated_Source\PSoC4/cyfitter_cfg.c **** CYPACKED typedef struct
 125:.\Generated_Source\PSoC4/cyfitter_cfg.c **** {
 126:.\Generated_Source\PSoC4/cyfitter_cfg.c **** 	uint8 offset;
 127:.\Generated_Source\PSoC4/cyfitter_cfg.c **** 	uint8 value;
 128:.\Generated_Source\PSoC4/cyfitter_cfg.c **** } CYPACKED_ATTR cy_cfg_addrvalue_t;
 129:.\Generated_Source\PSoC4/cyfitter_cfg.c **** 
 130:.\Generated_Source\PSoC4/cyfitter_cfg.c **** 
 131:.\Generated_Source\PSoC4/cyfitter_cfg.c **** 
 132:.\Generated_Source\PSoC4/cyfitter_cfg.c **** /*******************************************************************************
 133:.\Generated_Source\PSoC4/cyfitter_cfg.c **** * Function Name: cfg_write_bytes32
 134:.\Generated_Source\PSoC4/cyfitter_cfg.c **** ********************************************************************************
 135:.\Generated_Source\PSoC4/cyfitter_cfg.c **** * Summary:
 136:.\Generated_Source\PSoC4/cyfitter_cfg.c **** *  This function is used for setting up the chip configuration areas that
 137:.\Generated_Source\PSoC4/cyfitter_cfg.c **** *  contain relatively sparse data.
 138:.\Generated_Source\PSoC4/cyfitter_cfg.c **** *
 139:.\Generated_Source\PSoC4/cyfitter_cfg.c **** * Parameters:
 140:.\Generated_Source\PSoC4/cyfitter_cfg.c **** *   void
 141:.\Generated_Source\PSoC4/cyfitter_cfg.c **** *
 142:.\Generated_Source\PSoC4/cyfitter_cfg.c **** * Return:
 143:.\Generated_Source\PSoC4/cyfitter_cfg.c **** *   void
 144:.\Generated_Source\PSoC4/cyfitter_cfg.c **** *
 145:.\Generated_Source\PSoC4/cyfitter_cfg.c **** *******************************************************************************/
 146:.\Generated_Source\PSoC4/cyfitter_cfg.c **** static void cfg_write_bytes32(const uint32 addr_table[], const cy_cfg_addrvalue_t data_table[]);
 147:.\Generated_Source\PSoC4/cyfitter_cfg.c **** static void cfg_write_bytes32(const uint32 addr_table[], const cy_cfg_addrvalue_t data_table[])
 148:.\Generated_Source\PSoC4/cyfitter_cfg.c **** {
 131              		.loc 1 148 0
 132              		.cfi_startproc
 133 0000 80B5     		push	{r7, lr}
 134              		.cfi_def_cfa_offset 8
 135              		.cfi_offset 7, -8
 136              		.cfi_offset 14, -4
 137 0002 86B0     		sub	sp, sp, #24
ARM GAS  C:\Users\Matty\AppData\Local\Temp\cc7EDzdh.s 			page 6


 138              		.cfi_def_cfa_offset 32
 139 0004 00AF     		add	r7, sp, #0
 140              		.cfi_def_cfa_register 7
 141 0006 7860     		str	r0, [r7, #4]
 142 0008 3960     		str	r1, [r7]
 149:.\Generated_Source\PSoC4/cyfitter_cfg.c **** 	/* For 32-bit little-endian architectures */
 150:.\Generated_Source\PSoC4/cyfitter_cfg.c **** 	uint32 i, j = 0u;
 143              		.loc 1 150 0
 144 000a 0023     		mov	r3, #0
 145 000c 3B61     		str	r3, [r7, #16]
 151:.\Generated_Source\PSoC4/cyfitter_cfg.c **** 	for (i = 0u; i < CY_CFG_BASE_ADDR_COUNT; i++)
 146              		.loc 1 151 0
 147 000e 0023     		mov	r3, #0
 148 0010 7B61     		str	r3, [r7, #20]
 149 0012 2EE0     		b	.L5
 150              	.L8:
 151              	.LBB2:
 152:.\Generated_Source\PSoC4/cyfitter_cfg.c **** 	{
 153:.\Generated_Source\PSoC4/cyfitter_cfg.c **** 		uint32 baseAddr = addr_table[i];
 152              		.loc 1 153 0
 153 0014 7B69     		ldr	r3, [r7, #20]
 154 0016 9B00     		lsl	r3, r3, #2
 155 0018 7A68     		ldr	r2, [r7, #4]
 156 001a D318     		add	r3, r2, r3
 157 001c 1B68     		ldr	r3, [r3]
 158 001e BB60     		str	r3, [r7, #8]
 154:.\Generated_Source\PSoC4/cyfitter_cfg.c **** 		uint8 count = (uint8)baseAddr;
 159              		.loc 1 154 0
 160 0020 3B1C     		mov	r3, r7
 161 0022 0F33     		add	r3, r3, #15
 162 0024 BA68     		ldr	r2, [r7, #8]
 163 0026 1A70     		strb	r2, [r3]
 155:.\Generated_Source\PSoC4/cyfitter_cfg.c **** 		baseAddr &= 0xFFFFFF00u;
 164              		.loc 1 155 0
 165 0028 BB68     		ldr	r3, [r7, #8]
 166 002a FF22     		mov	r2, #255
 167 002c 9343     		bic	r3, r2
 168 002e BB60     		str	r3, [r7, #8]
 156:.\Generated_Source\PSoC4/cyfitter_cfg.c **** 		while (count != 0u)
 169              		.loc 1 156 0
 170 0030 17E0     		b	.L6
 171              	.L7:
 157:.\Generated_Source\PSoC4/cyfitter_cfg.c **** 		{
 158:.\Generated_Source\PSoC4/cyfitter_cfg.c **** 			CY_SET_XTND_REG8((void CYFAR *)(baseAddr + data_table[j].offset), data_table[j].value);
 172              		.loc 1 158 0
 173 0032 3B69     		ldr	r3, [r7, #16]
 174 0034 5B00     		lsl	r3, r3, #1
 175 0036 3A68     		ldr	r2, [r7]
 176 0038 D318     		add	r3, r2, r3
 177 003a 1B78     		ldrb	r3, [r3]
 178 003c 1A1C     		mov	r2, r3
 179 003e BB68     		ldr	r3, [r7, #8]
 180 0040 D318     		add	r3, r2, r3
 181 0042 3A69     		ldr	r2, [r7, #16]
 182 0044 5200     		lsl	r2, r2, #1
 183 0046 3968     		ldr	r1, [r7]
 184 0048 8A18     		add	r2, r1, r2
ARM GAS  C:\Users\Matty\AppData\Local\Temp\cc7EDzdh.s 			page 7


 185 004a 5278     		ldrb	r2, [r2, #1]
 186 004c 1A70     		strb	r2, [r3]
 159:.\Generated_Source\PSoC4/cyfitter_cfg.c **** 			j++;
 187              		.loc 1 159 0
 188 004e 3B69     		ldr	r3, [r7, #16]
 189 0050 0133     		add	r3, r3, #1
 190 0052 3B61     		str	r3, [r7, #16]
 160:.\Generated_Source\PSoC4/cyfitter_cfg.c **** 			count--;
 191              		.loc 1 160 0
 192 0054 3B1C     		mov	r3, r7
 193 0056 0F33     		add	r3, r3, #15
 194 0058 1A78     		ldrb	r2, [r3]
 195 005a 3B1C     		mov	r3, r7
 196 005c 0F33     		add	r3, r3, #15
 197 005e 013A     		sub	r2, r2, #1
 198 0060 1A70     		strb	r2, [r3]
 199              	.L6:
 156:.\Generated_Source\PSoC4/cyfitter_cfg.c **** 		while (count != 0u)
 200              		.loc 1 156 0 discriminator 1
 201 0062 3B1C     		mov	r3, r7
 202 0064 0F33     		add	r3, r3, #15
 203 0066 1B78     		ldrb	r3, [r3]
 204 0068 002B     		cmp	r3, #0
 205 006a E2D1     		bne	.L7
 206              	.LBE2:
 151:.\Generated_Source\PSoC4/cyfitter_cfg.c **** 	for (i = 0u; i < CY_CFG_BASE_ADDR_COUNT; i++)
 207              		.loc 1 151 0
 208 006c 7B69     		ldr	r3, [r7, #20]
 209 006e 0133     		add	r3, r3, #1
 210 0070 7B61     		str	r3, [r7, #20]
 211              	.L5:
 151:.\Generated_Source\PSoC4/cyfitter_cfg.c **** 	for (i = 0u; i < CY_CFG_BASE_ADDR_COUNT; i++)
 212              		.loc 1 151 0 is_stmt 0 discriminator 1
 213 0072 7B69     		ldr	r3, [r7, #20]
 214 0074 082B     		cmp	r3, #8
 215 0076 CDD9     		bls	.L8
 161:.\Generated_Source\PSoC4/cyfitter_cfg.c **** 		}
 162:.\Generated_Source\PSoC4/cyfitter_cfg.c **** 	}
 163:.\Generated_Source\PSoC4/cyfitter_cfg.c **** }
 216              		.loc 1 163 0 is_stmt 1
 217 0078 BD46     		mov	sp, r7
 218 007a 06B0     		add	sp, sp, #24
 219              		@ sp needed
 220 007c 80BD     		pop	{r7, pc}
 221              		.cfi_endproc
 222              	.LFE4:
 223              		.size	cfg_write_bytes32, .-cfg_write_bytes32
 224 007e C046     		.section	.psocinit,"ax",%progbits
 225              		.align	2
 226              		.code	16
 227              		.thumb_func
 228              		.type	ClockSetup, %function
 229              	ClockSetup:
 230              	.LFB5:
 164:.\Generated_Source\PSoC4/cyfitter_cfg.c **** 
 165:.\Generated_Source\PSoC4/cyfitter_cfg.c **** 
 166:.\Generated_Source\PSoC4/cyfitter_cfg.c **** /*******************************************************************************
ARM GAS  C:\Users\Matty\AppData\Local\Temp\cc7EDzdh.s 			page 8


 167:.\Generated_Source\PSoC4/cyfitter_cfg.c **** * Function Name: ClockSetup
 168:.\Generated_Source\PSoC4/cyfitter_cfg.c **** ********************************************************************************
 169:.\Generated_Source\PSoC4/cyfitter_cfg.c **** *
 170:.\Generated_Source\PSoC4/cyfitter_cfg.c **** * Summary:
 171:.\Generated_Source\PSoC4/cyfitter_cfg.c **** *   Performs the initialization of all of the clocks in the device based on the
 172:.\Generated_Source\PSoC4/cyfitter_cfg.c **** *   settings in the Clock tab of the DWR.  This includes enabling the requested
 173:.\Generated_Source\PSoC4/cyfitter_cfg.c **** *   clocks and setting the necessary dividers to produce the desired frequency. 
 174:.\Generated_Source\PSoC4/cyfitter_cfg.c **** *
 175:.\Generated_Source\PSoC4/cyfitter_cfg.c **** * Parameters:
 176:.\Generated_Source\PSoC4/cyfitter_cfg.c **** *   void
 177:.\Generated_Source\PSoC4/cyfitter_cfg.c **** *
 178:.\Generated_Source\PSoC4/cyfitter_cfg.c **** * Return:
 179:.\Generated_Source\PSoC4/cyfitter_cfg.c **** *   void
 180:.\Generated_Source\PSoC4/cyfitter_cfg.c **** *
 181:.\Generated_Source\PSoC4/cyfitter_cfg.c **** *******************************************************************************/
 182:.\Generated_Source\PSoC4/cyfitter_cfg.c **** static void ClockSetup(void);
 183:.\Generated_Source\PSoC4/cyfitter_cfg.c **** CY_CFG_SECTION
 184:.\Generated_Source\PSoC4/cyfitter_cfg.c **** static void ClockSetup(void)
 185:.\Generated_Source\PSoC4/cyfitter_cfg.c **** {
 231              		.loc 1 185 0
 232              		.cfi_startproc
 233 0000 80B5     		push	{r7, lr}
 234              		.cfi_def_cfa_offset 8
 235              		.cfi_offset 7, -8
 236              		.cfi_offset 14, -4
 237 0002 00AF     		add	r7, sp, #0
 238              		.cfi_def_cfa_register 7
 186:.\Generated_Source\PSoC4/cyfitter_cfg.c **** 
 187:.\Generated_Source\PSoC4/cyfitter_cfg.c **** 	/* Set Flash Cycles based on max possible frequency in case a glitch occurs during ClockSetup(). *
 188:.\Generated_Source\PSoC4/cyfitter_cfg.c **** 	CY_SET_REG32((void CYXDATA *)(CYREG_CPUSS_FLASH_CTL), (0x0012u));
 239              		.loc 1 188 0
 240 0004 184B     		ldr	r3, .L10
 241 0006 1222     		mov	r2, #18
 242 0008 1A60     		str	r2, [r3]
 189:.\Generated_Source\PSoC4/cyfitter_cfg.c **** 
 190:.\Generated_Source\PSoC4/cyfitter_cfg.c **** 	/* Start the WCO */
 191:.\Generated_Source\PSoC4/cyfitter_cfg.c **** 	CySysClkWcoStart();
 243              		.loc 1 191 0
 244 000a FFF7FEFF 		bl	CySysClkWcoStart
 192:.\Generated_Source\PSoC4/cyfitter_cfg.c **** 	CyDelayCycles(12000000u); /* WCO may take up to 500ms to start */
 245              		.loc 1 192 0
 246 000e 174B     		ldr	r3, .L10+4
 247 0010 181C     		mov	r0, r3
 248 0012 FFF7FEFF 		bl	CyDelayCycles
 193:.\Generated_Source\PSoC4/cyfitter_cfg.c **** 
 194:.\Generated_Source\PSoC4/cyfitter_cfg.c **** 	/* Setup and trim IMO based on desired frequency. */
 195:.\Generated_Source\PSoC4/cyfitter_cfg.c **** 	CySysClkWriteImoFreq(48u);
 249              		.loc 1 195 0
 250 0016 3020     		mov	r0, #48
 251 0018 FFF7FEFF 		bl	CySysClkWriteImoFreq
 196:.\Generated_Source\PSoC4/cyfitter_cfg.c **** 	/* CYDEV_CLK_ILO_CONFIG Starting address: CYDEV_CLK_ILO_CONFIG */
 197:.\Generated_Source\PSoC4/cyfitter_cfg.c **** 	CY_SET_XTND_REG32((void CYFAR *)(CYREG_CLK_ILO_CONFIG), 0x80000006u);
 252              		.loc 1 197 0
 253 001c 144B     		ldr	r3, .L10+8
 254 001e 154A     		ldr	r2, .L10+12
 255 0020 1A60     		str	r2, [r3]
 198:.\Generated_Source\PSoC4/cyfitter_cfg.c **** 
ARM GAS  C:\Users\Matty\AppData\Local\Temp\cc7EDzdh.s 			page 9


 199:.\Generated_Source\PSoC4/cyfitter_cfg.c **** 	/* CYDEV_WDT_CONFIG Starting address: CYDEV_WDT_CONFIG */
 200:.\Generated_Source\PSoC4/cyfitter_cfg.c **** 	CY_SET_XTND_REG32((void CYFAR *)(CYREG_WDT_CONFIG), 0x40000000u);
 256              		.loc 1 200 0
 257 0022 154B     		ldr	r3, .L10+16
 258 0024 8022     		mov	r2, #128
 259 0026 D205     		lsl	r2, r2, #23
 260 0028 1A60     		str	r2, [r3]
 201:.\Generated_Source\PSoC4/cyfitter_cfg.c **** 
 202:.\Generated_Source\PSoC4/cyfitter_cfg.c **** 
 203:.\Generated_Source\PSoC4/cyfitter_cfg.c **** 	/* Setup phase aligned clocks */
 204:.\Generated_Source\PSoC4/cyfitter_cfg.c **** 	CY_SET_REG32((void *)CYREG_PERI_DIV_16_CTL0, 0x00006700u);
 261              		.loc 1 204 0
 262 002a 144B     		ldr	r3, .L10+20
 263 002c CE22     		mov	r2, #206
 264 002e D201     		lsl	r2, r2, #7
 265 0030 1A60     		str	r2, [r3]
 205:.\Generated_Source\PSoC4/cyfitter_cfg.c **** 	CY_SET_REG32((void *)CYREG_PERI_DIV_CMD, 0x8000FF40u);
 266              		.loc 1 205 0
 267 0032 134B     		ldr	r3, .L10+24
 268 0034 134A     		ldr	r2, .L10+28
 269 0036 1A60     		str	r2, [r3]
 206:.\Generated_Source\PSoC4/cyfitter_cfg.c **** 	CY_SET_REG32((void *)CYREG_PERI_DIV_16_CTL1, 0x00003300u);
 270              		.loc 1 206 0
 271 0038 134B     		ldr	r3, .L10+32
 272 003a CC22     		mov	r2, #204
 273 003c 9201     		lsl	r2, r2, #6
 274 003e 1A60     		str	r2, [r3]
 207:.\Generated_Source\PSoC4/cyfitter_cfg.c **** 	CY_SET_REG32((void *)CYREG_PERI_DIV_CMD, 0x8000FF41u);
 275              		.loc 1 207 0
 276 0040 0F4B     		ldr	r3, .L10+24
 277 0042 124A     		ldr	r2, .L10+36
 278 0044 1A60     		str	r2, [r3]
 208:.\Generated_Source\PSoC4/cyfitter_cfg.c **** 
 209:.\Generated_Source\PSoC4/cyfitter_cfg.c **** 	/* CYDEV_CLK_IMO_CONFIG Starting address: CYDEV_CLK_IMO_CONFIG */
 210:.\Generated_Source\PSoC4/cyfitter_cfg.c **** 	CY_SET_XTND_REG32((void CYFAR *)(CYREG_CLK_IMO_CONFIG), 0x80000000u);
 279              		.loc 1 210 0
 280 0046 124B     		ldr	r3, .L10+40
 281 0048 8022     		mov	r2, #128
 282 004a 1206     		lsl	r2, r2, #24
 283 004c 1A60     		str	r2, [r3]
 211:.\Generated_Source\PSoC4/cyfitter_cfg.c **** 
 212:.\Generated_Source\PSoC4/cyfitter_cfg.c **** 	/* CYDEV_CLK_SELECT Starting address: CYDEV_CLK_SELECT */
 213:.\Generated_Source\PSoC4/cyfitter_cfg.c **** 	CY_SET_XTND_REG32((void CYFAR *)(CYREG_CLK_SELECT), 0x00280000u);
 284              		.loc 1 213 0
 285 004e 114B     		ldr	r3, .L10+44
 286 0050 A022     		mov	r2, #160
 287 0052 9203     		lsl	r2, r2, #14
 288 0054 1A60     		str	r2, [r3]
 214:.\Generated_Source\PSoC4/cyfitter_cfg.c **** 
 215:.\Generated_Source\PSoC4/cyfitter_cfg.c **** 	/* CYDEV_PERI_PCLK_CTL19 Starting address: CYDEV_PERI_PCLK_CTL19 */
 216:.\Generated_Source\PSoC4/cyfitter_cfg.c **** 	CY_SET_XTND_REG32((void CYFAR *)(CYREG_PERI_PCLK_CTL19), 0x00000041u);
 289              		.loc 1 216 0
 290 0056 104B     		ldr	r3, .L10+48
 291 0058 4122     		mov	r2, #65
 292 005a 1A60     		str	r2, [r3]
 217:.\Generated_Source\PSoC4/cyfitter_cfg.c **** 
 218:.\Generated_Source\PSoC4/cyfitter_cfg.c **** 	CY_SET_XTND_REG32((void CYFAR *)(CYREG_WDT_CONFIG), 0x40000000u);
ARM GAS  C:\Users\Matty\AppData\Local\Temp\cc7EDzdh.s 			page 10


 293              		.loc 1 218 0
 294 005c 064B     		ldr	r3, .L10+16
 295 005e 8022     		mov	r2, #128
 296 0060 D205     		lsl	r2, r2, #23
 297 0062 1A60     		str	r2, [r3]
 219:.\Generated_Source\PSoC4/cyfitter_cfg.c **** }
 298              		.loc 1 219 0
 299 0064 BD46     		mov	sp, r7
 300              		@ sp needed
 301 0066 80BD     		pop	{r7, pc}
 302              	.L11:
 303              		.align	2
 304              	.L10:
 305 0068 30001040 		.word	1074790448
 306 006c 001BB700 		.word	12000000
 307 0070 04010B40 		.word	1074462980
 308 0074 06000080 		.word	-2147483642
 309 0078 0C020B40 		.word	1074463244
 310 007c 00030140 		.word	1073808128
 311 0080 00000140 		.word	1073807360
 312 0084 40FF0080 		.word	-2147418304
 313 0088 04030140 		.word	1073808132
 314 008c 41FF0080 		.word	-2147418303
 315 0090 08010B40 		.word	1074462984
 316 0094 00010B40 		.word	1074462976
 317 0098 4C010140 		.word	1073807692
 318              		.cfi_endproc
 319              	.LFE5:
 320              		.size	ClockSetup, .-ClockSetup
 321              		.section	.text.AnalogSetDefault,"ax",%progbits
 322              		.align	2
 323              		.code	16
 324              		.thumb_func
 325              		.type	AnalogSetDefault, %function
 326              	AnalogSetDefault:
 327              	.LFB6:
 220:.\Generated_Source\PSoC4/cyfitter_cfg.c **** 
 221:.\Generated_Source\PSoC4/cyfitter_cfg.c **** 
 222:.\Generated_Source\PSoC4/cyfitter_cfg.c **** /* Analog API Functions */
 223:.\Generated_Source\PSoC4/cyfitter_cfg.c **** 
 224:.\Generated_Source\PSoC4/cyfitter_cfg.c **** 
 225:.\Generated_Source\PSoC4/cyfitter_cfg.c **** /*******************************************************************************
 226:.\Generated_Source\PSoC4/cyfitter_cfg.c **** * Function Name: AnalogSetDefault
 227:.\Generated_Source\PSoC4/cyfitter_cfg.c **** ********************************************************************************
 228:.\Generated_Source\PSoC4/cyfitter_cfg.c **** *
 229:.\Generated_Source\PSoC4/cyfitter_cfg.c **** * Summary:
 230:.\Generated_Source\PSoC4/cyfitter_cfg.c **** *  Sets up the analog portions of the chip to default values based on chip
 231:.\Generated_Source\PSoC4/cyfitter_cfg.c **** *  configuration options from the project.
 232:.\Generated_Source\PSoC4/cyfitter_cfg.c **** *
 233:.\Generated_Source\PSoC4/cyfitter_cfg.c **** * Parameters:
 234:.\Generated_Source\PSoC4/cyfitter_cfg.c **** *  void
 235:.\Generated_Source\PSoC4/cyfitter_cfg.c **** *
 236:.\Generated_Source\PSoC4/cyfitter_cfg.c **** * Return:
 237:.\Generated_Source\PSoC4/cyfitter_cfg.c **** *  void
 238:.\Generated_Source\PSoC4/cyfitter_cfg.c **** *
 239:.\Generated_Source\PSoC4/cyfitter_cfg.c **** *******************************************************************************/
 240:.\Generated_Source\PSoC4/cyfitter_cfg.c **** static void AnalogSetDefault(void);
ARM GAS  C:\Users\Matty\AppData\Local\Temp\cc7EDzdh.s 			page 11


 241:.\Generated_Source\PSoC4/cyfitter_cfg.c **** static void AnalogSetDefault(void)
 242:.\Generated_Source\PSoC4/cyfitter_cfg.c **** {
 328              		.loc 1 242 0
 329              		.cfi_startproc
 330 0000 80B5     		push	{r7, lr}
 331              		.cfi_def_cfa_offset 8
 332              		.cfi_offset 7, -8
 333              		.cfi_offset 14, -4
 334 0002 00AF     		add	r7, sp, #0
 335              		.cfi_def_cfa_register 7
 243:.\Generated_Source\PSoC4/cyfitter_cfg.c **** 	CY_SET_XTND_REG32((void CYFAR *)CYREG_CTBM0_DFT_CTRL, 0x00000003u);
 336              		.loc 1 243 0
 337 0004 054B     		ldr	r3, .L13
 338 0006 0322     		mov	r2, #3
 339 0008 1A60     		str	r2, [r3]
 244:.\Generated_Source\PSoC4/cyfitter_cfg.c **** 	CY_SET_XTND_REG32((void CYFAR *)CYREG_CTBM1_DFT_CTRL, 0x00000003u);
 340              		.loc 1 244 0
 341 000a 054B     		ldr	r3, .L13+4
 342 000c 0322     		mov	r2, #3
 343 000e 1A60     		str	r2, [r3]
 245:.\Generated_Source\PSoC4/cyfitter_cfg.c **** 	CY_SET_XTND_REG32((void CYFAR *)CYREG_PASS_DSAB_DSAB_CTRL, 0x00000000u);
 344              		.loc 1 245 0
 345 0010 044B     		ldr	r3, .L13+8
 346 0012 0022     		mov	r2, #0
 347 0014 1A60     		str	r2, [r3]
 246:.\Generated_Source\PSoC4/cyfitter_cfg.c **** }
 348              		.loc 1 246 0
 349 0016 BD46     		mov	sp, r7
 350              		@ sp needed
 351 0018 80BD     		pop	{r7, pc}
 352              	.L14:
 353 001a C046     		.align	2
 354              	.L13:
 355 001c 30003040 		.word	1076887600
 356 0020 30003140 		.word	1076953136
 357 0024 000E3F40 		.word	1077874176
 358              		.cfi_endproc
 359              	.LFE6:
 360              		.size	AnalogSetDefault, .-AnalogSetDefault
 361              		.section	.psocinit
 362              		.align	2
 363              		.global	cyfitter_cfg
 364              		.code	16
 365              		.thumb_func
 366              		.type	cyfitter_cfg, %function
 367              	cyfitter_cfg:
 368              	.LFB7:
 247:.\Generated_Source\PSoC4/cyfitter_cfg.c **** 
 248:.\Generated_Source\PSoC4/cyfitter_cfg.c **** #define CY_AMUX_UNUSED CYREG_CM0_ROM_DWT
 249:.\Generated_Source\PSoC4/cyfitter_cfg.c **** 
 250:.\Generated_Source\PSoC4/cyfitter_cfg.c **** 
 251:.\Generated_Source\PSoC4/cyfitter_cfg.c **** /*******************************************************************************
 252:.\Generated_Source\PSoC4/cyfitter_cfg.c **** * Function Name: cyfitter_cfg
 253:.\Generated_Source\PSoC4/cyfitter_cfg.c **** ********************************************************************************
 254:.\Generated_Source\PSoC4/cyfitter_cfg.c **** * Summary:
 255:.\Generated_Source\PSoC4/cyfitter_cfg.c **** *  This function is called by the start-up code for the selected device. It
 256:.\Generated_Source\PSoC4/cyfitter_cfg.c **** *  performs all of the necessary device configuration based on the design
ARM GAS  C:\Users\Matty\AppData\Local\Temp\cc7EDzdh.s 			page 12


 257:.\Generated_Source\PSoC4/cyfitter_cfg.c **** *  settings.  This includes settings from the Design Wide Resources (DWR) such
 258:.\Generated_Source\PSoC4/cyfitter_cfg.c **** *  as Clocks and Pins as well as any component configuration that is necessary.
 259:.\Generated_Source\PSoC4/cyfitter_cfg.c **** *
 260:.\Generated_Source\PSoC4/cyfitter_cfg.c **** * Parameters:  
 261:.\Generated_Source\PSoC4/cyfitter_cfg.c **** *   void
 262:.\Generated_Source\PSoC4/cyfitter_cfg.c **** *
 263:.\Generated_Source\PSoC4/cyfitter_cfg.c **** * Return:
 264:.\Generated_Source\PSoC4/cyfitter_cfg.c **** *   void
 265:.\Generated_Source\PSoC4/cyfitter_cfg.c **** *
 266:.\Generated_Source\PSoC4/cyfitter_cfg.c **** *******************************************************************************/
 267:.\Generated_Source\PSoC4/cyfitter_cfg.c **** CY_CFG_SECTION
 268:.\Generated_Source\PSoC4/cyfitter_cfg.c **** void cyfitter_cfg(void)
 269:.\Generated_Source\PSoC4/cyfitter_cfg.c **** {
 369              		.loc 1 269 0
 370              		.cfi_startproc
 371 009c 80B5     		push	{r7, lr}
 372              		.cfi_def_cfa_offset 8
 373              		.cfi_offset 7, -8
 374              		.cfi_offset 14, -4
 375 009e 86B0     		sub	sp, sp, #24
 376              		.cfi_def_cfa_offset 32
 377 00a0 00AF     		add	r7, sp, #0
 378              		.cfi_def_cfa_register 7
 270:.\Generated_Source\PSoC4/cyfitter_cfg.c **** 	/* Disable interrupts by default. Let user enable if/when they want. */
 271:.\Generated_Source\PSoC4/cyfitter_cfg.c **** 	CyGlobalIntDisable;
 379              		.loc 1 271 0
 380              	@ 271 ".\Generated_Source\PSoC4\cyfitter_cfg.c" 1
 381 00a2 72B6     		CPSID   i
 382              	@ 0 "" 2
 272:.\Generated_Source\PSoC4/cyfitter_cfg.c **** 
 273:.\Generated_Source\PSoC4/cyfitter_cfg.c **** 	/* Enable the clock in the interrupt controller for the routed interrupts */
 274:.\Generated_Source\PSoC4/cyfitter_cfg.c **** 	CY_SET_REG8((void *)CYREG_UDB_UDBIF_INT_CLK_CTL, 0x01u);
 383              		.loc 1 274 0
 384              		.code	16
 385 00a4 674B     		ldr	r3, .L20
 386 00a6 0122     		mov	r2, #1
 387 00a8 1A70     		strb	r2, [r3]
 388              	.LBB3:
 275:.\Generated_Source\PSoC4/cyfitter_cfg.c **** 	{
 276:.\Generated_Source\PSoC4/cyfitter_cfg.c **** 		static const uint32 CYCODE cy_cfg_addr_table[] = {
 277:.\Generated_Source\PSoC4/cyfitter_cfg.c **** 			0x400F0003u, /* Base address: 0x400F0000 Count: 3 */
 278:.\Generated_Source\PSoC4/cyfitter_cfg.c **** 			0x400F301Du, /* Base address: 0x400F3000 Count: 29 */
 279:.\Generated_Source\PSoC4/cyfitter_cfg.c **** 			0x400F3145u, /* Base address: 0x400F3100 Count: 69 */
 280:.\Generated_Source\PSoC4/cyfitter_cfg.c **** 			0x400F326Cu, /* Base address: 0x400F3200 Count: 108 */
 281:.\Generated_Source\PSoC4/cyfitter_cfg.c **** 			0x400F3353u, /* Base address: 0x400F3300 Count: 83 */
 282:.\Generated_Source\PSoC4/cyfitter_cfg.c **** 			0x400F4004u, /* Base address: 0x400F4000 Count: 4 */
 283:.\Generated_Source\PSoC4/cyfitter_cfg.c **** 			0x400F4209u, /* Base address: 0x400F4200 Count: 9 */
 284:.\Generated_Source\PSoC4/cyfitter_cfg.c **** 			0x400F430Fu, /* Base address: 0x400F4300 Count: 15 */
 285:.\Generated_Source\PSoC4/cyfitter_cfg.c **** 			0x400F6002u, /* Base address: 0x400F6000 Count: 2 */
 286:.\Generated_Source\PSoC4/cyfitter_cfg.c **** 		};
 287:.\Generated_Source\PSoC4/cyfitter_cfg.c **** 
 288:.\Generated_Source\PSoC4/cyfitter_cfg.c **** 		static const cy_cfg_addrvalue_t CYCODE cy_cfg_data_table[] = {
 289:.\Generated_Source\PSoC4/cyfitter_cfg.c **** 			{0x80u, 0x38u},
 290:.\Generated_Source\PSoC4/cyfitter_cfg.c **** 			{0x81u, 0x72u},
 291:.\Generated_Source\PSoC4/cyfitter_cfg.c **** 			{0x82u, 0x0Fu},
 292:.\Generated_Source\PSoC4/cyfitter_cfg.c **** 			{0x03u, 0x01u},
 293:.\Generated_Source\PSoC4/cyfitter_cfg.c **** 			{0x06u, 0x01u},
ARM GAS  C:\Users\Matty\AppData\Local\Temp\cc7EDzdh.s 			page 13


 294:.\Generated_Source\PSoC4/cyfitter_cfg.c **** 			{0x0Au, 0x08u},
 295:.\Generated_Source\PSoC4/cyfitter_cfg.c **** 			{0x0Bu, 0x02u},
 296:.\Generated_Source\PSoC4/cyfitter_cfg.c **** 			{0x0Eu, 0x01u},
 297:.\Generated_Source\PSoC4/cyfitter_cfg.c **** 			{0x12u, 0x02u},
 298:.\Generated_Source\PSoC4/cyfitter_cfg.c **** 			{0x13u, 0x02u},
 299:.\Generated_Source\PSoC4/cyfitter_cfg.c **** 			{0x15u, 0x04u},
 300:.\Generated_Source\PSoC4/cyfitter_cfg.c **** 			{0x1Du, 0x08u},
 301:.\Generated_Source\PSoC4/cyfitter_cfg.c **** 			{0x1Eu, 0x0Eu},
 302:.\Generated_Source\PSoC4/cyfitter_cfg.c **** 			{0x23u, 0x01u},
 303:.\Generated_Source\PSoC4/cyfitter_cfg.c **** 			{0x2Au, 0x04u},
 304:.\Generated_Source\PSoC4/cyfitter_cfg.c **** 			{0x30u, 0x04u},
 305:.\Generated_Source\PSoC4/cyfitter_cfg.c **** 			{0x31u, 0x02u},
 306:.\Generated_Source\PSoC4/cyfitter_cfg.c **** 			{0x32u, 0x08u},
 307:.\Generated_Source\PSoC4/cyfitter_cfg.c **** 			{0x33u, 0x04u},
 308:.\Generated_Source\PSoC4/cyfitter_cfg.c **** 			{0x34u, 0x01u},
 309:.\Generated_Source\PSoC4/cyfitter_cfg.c **** 			{0x35u, 0x08u},
 310:.\Generated_Source\PSoC4/cyfitter_cfg.c **** 			{0x36u, 0x02u},
 311:.\Generated_Source\PSoC4/cyfitter_cfg.c **** 			{0x37u, 0x01u},
 312:.\Generated_Source\PSoC4/cyfitter_cfg.c **** 			{0x38u, 0x80u},
 313:.\Generated_Source\PSoC4/cyfitter_cfg.c **** 			{0x3Eu, 0x55u},
 314:.\Generated_Source\PSoC4/cyfitter_cfg.c **** 			{0x3Fu, 0x55u},
 315:.\Generated_Source\PSoC4/cyfitter_cfg.c **** 			{0x54u, 0x18u},
 316:.\Generated_Source\PSoC4/cyfitter_cfg.c **** 			{0x56u, 0x04u},
 317:.\Generated_Source\PSoC4/cyfitter_cfg.c **** 			{0x58u, 0x04u},
 318:.\Generated_Source\PSoC4/cyfitter_cfg.c **** 			{0x59u, 0x04u},
 319:.\Generated_Source\PSoC4/cyfitter_cfg.c **** 			{0x5Bu, 0x04u},
 320:.\Generated_Source\PSoC4/cyfitter_cfg.c **** 			{0x5Fu, 0x01u},
 321:.\Generated_Source\PSoC4/cyfitter_cfg.c **** 			{0x00u, 0xA0u},
 322:.\Generated_Source\PSoC4/cyfitter_cfg.c **** 			{0x02u, 0x20u},
 323:.\Generated_Source\PSoC4/cyfitter_cfg.c **** 			{0x04u, 0x1Au},
 324:.\Generated_Source\PSoC4/cyfitter_cfg.c **** 			{0x08u, 0x40u},
 325:.\Generated_Source\PSoC4/cyfitter_cfg.c **** 			{0x0Au, 0x40u},
 326:.\Generated_Source\PSoC4/cyfitter_cfg.c **** 			{0x0Bu, 0x01u},
 327:.\Generated_Source\PSoC4/cyfitter_cfg.c **** 			{0x0Du, 0x22u},
 328:.\Generated_Source\PSoC4/cyfitter_cfg.c **** 			{0x0Eu, 0x22u},
 329:.\Generated_Source\PSoC4/cyfitter_cfg.c **** 			{0x10u, 0x08u},
 330:.\Generated_Source\PSoC4/cyfitter_cfg.c **** 			{0x16u, 0x81u},
 331:.\Generated_Source\PSoC4/cyfitter_cfg.c **** 			{0x17u, 0x24u},
 332:.\Generated_Source\PSoC4/cyfitter_cfg.c **** 			{0x18u, 0xA4u},
 333:.\Generated_Source\PSoC4/cyfitter_cfg.c **** 			{0x1Bu, 0x40u},
 334:.\Generated_Source\PSoC4/cyfitter_cfg.c **** 			{0x1Cu, 0x10u},
 335:.\Generated_Source\PSoC4/cyfitter_cfg.c **** 			{0x1Du, 0x21u},
 336:.\Generated_Source\PSoC4/cyfitter_cfg.c **** 			{0x1Eu, 0x01u},
 337:.\Generated_Source\PSoC4/cyfitter_cfg.c **** 			{0x1Fu, 0x24u},
 338:.\Generated_Source\PSoC4/cyfitter_cfg.c **** 			{0x21u, 0x08u},
 339:.\Generated_Source\PSoC4/cyfitter_cfg.c **** 			{0x22u, 0x80u},
 340:.\Generated_Source\PSoC4/cyfitter_cfg.c **** 			{0x23u, 0x48u},
 341:.\Generated_Source\PSoC4/cyfitter_cfg.c **** 			{0x24u, 0x02u},
 342:.\Generated_Source\PSoC4/cyfitter_cfg.c **** 			{0x25u, 0x41u},
 343:.\Generated_Source\PSoC4/cyfitter_cfg.c **** 			{0x26u, 0x24u},
 344:.\Generated_Source\PSoC4/cyfitter_cfg.c **** 			{0x28u, 0x40u},
 345:.\Generated_Source\PSoC4/cyfitter_cfg.c **** 			{0x2Eu, 0x82u},
 346:.\Generated_Source\PSoC4/cyfitter_cfg.c **** 			{0x2Fu, 0x26u},
 347:.\Generated_Source\PSoC4/cyfitter_cfg.c **** 			{0x31u, 0x01u},
 348:.\Generated_Source\PSoC4/cyfitter_cfg.c **** 			{0x32u, 0x41u},
 349:.\Generated_Source\PSoC4/cyfitter_cfg.c **** 			{0x33u, 0x08u},
 350:.\Generated_Source\PSoC4/cyfitter_cfg.c **** 			{0x36u, 0x09u},
ARM GAS  C:\Users\Matty\AppData\Local\Temp\cc7EDzdh.s 			page 14


 351:.\Generated_Source\PSoC4/cyfitter_cfg.c **** 			{0x37u, 0x20u},
 352:.\Generated_Source\PSoC4/cyfitter_cfg.c **** 			{0x39u, 0x01u},
 353:.\Generated_Source\PSoC4/cyfitter_cfg.c **** 			{0x3Au, 0x50u},
 354:.\Generated_Source\PSoC4/cyfitter_cfg.c **** 			{0x3Bu, 0x40u},
 355:.\Generated_Source\PSoC4/cyfitter_cfg.c **** 			{0x3Du, 0x82u},
 356:.\Generated_Source\PSoC4/cyfitter_cfg.c **** 			{0x3Eu, 0x08u},
 357:.\Generated_Source\PSoC4/cyfitter_cfg.c **** 			{0x42u, 0x30u},
 358:.\Generated_Source\PSoC4/cyfitter_cfg.c **** 			{0x45u, 0x20u},
 359:.\Generated_Source\PSoC4/cyfitter_cfg.c **** 			{0x46u, 0x80u},
 360:.\Generated_Source\PSoC4/cyfitter_cfg.c **** 			{0x47u, 0x40u},
 361:.\Generated_Source\PSoC4/cyfitter_cfg.c **** 			{0x4Cu, 0x04u},
 362:.\Generated_Source\PSoC4/cyfitter_cfg.c **** 			{0x4Eu, 0x09u},
 363:.\Generated_Source\PSoC4/cyfitter_cfg.c **** 			{0x54u, 0x40u},
 364:.\Generated_Source\PSoC4/cyfitter_cfg.c **** 			{0x56u, 0x10u},
 365:.\Generated_Source\PSoC4/cyfitter_cfg.c **** 			{0x5Au, 0x01u},
 366:.\Generated_Source\PSoC4/cyfitter_cfg.c **** 			{0x5Eu, 0x08u},
 367:.\Generated_Source\PSoC4/cyfitter_cfg.c **** 			{0x60u, 0x04u},
 368:.\Generated_Source\PSoC4/cyfitter_cfg.c **** 			{0x62u, 0x42u},
 369:.\Generated_Source\PSoC4/cyfitter_cfg.c **** 			{0x68u, 0x18u},
 370:.\Generated_Source\PSoC4/cyfitter_cfg.c **** 			{0x69u, 0x01u},
 371:.\Generated_Source\PSoC4/cyfitter_cfg.c **** 			{0x6Au, 0x40u},
 372:.\Generated_Source\PSoC4/cyfitter_cfg.c **** 			{0x6Du, 0x40u},
 373:.\Generated_Source\PSoC4/cyfitter_cfg.c **** 			{0x6Eu, 0x10u},
 374:.\Generated_Source\PSoC4/cyfitter_cfg.c **** 			{0x6Fu, 0x10u},
 375:.\Generated_Source\PSoC4/cyfitter_cfg.c **** 			{0x73u, 0x01u},
 376:.\Generated_Source\PSoC4/cyfitter_cfg.c **** 			{0x76u, 0x0Bu},
 377:.\Generated_Source\PSoC4/cyfitter_cfg.c **** 			{0x77u, 0x24u},
 378:.\Generated_Source\PSoC4/cyfitter_cfg.c **** 			{0x82u, 0x02u},
 379:.\Generated_Source\PSoC4/cyfitter_cfg.c **** 			{0x8Fu, 0x40u},
 380:.\Generated_Source\PSoC4/cyfitter_cfg.c **** 			{0xC0u, 0x77u},
 381:.\Generated_Source\PSoC4/cyfitter_cfg.c **** 			{0xC2u, 0xF9u},
 382:.\Generated_Source\PSoC4/cyfitter_cfg.c **** 			{0xC4u, 0xF2u},
 383:.\Generated_Source\PSoC4/cyfitter_cfg.c **** 			{0xCAu, 0xF1u},
 384:.\Generated_Source\PSoC4/cyfitter_cfg.c **** 			{0xCCu, 0xEBu},
 385:.\Generated_Source\PSoC4/cyfitter_cfg.c **** 			{0xCEu, 0xD5u},
 386:.\Generated_Source\PSoC4/cyfitter_cfg.c **** 			{0xD0u, 0xB0u},
 387:.\Generated_Source\PSoC4/cyfitter_cfg.c **** 			{0xD2u, 0x30u},
 388:.\Generated_Source\PSoC4/cyfitter_cfg.c **** 			{0xD6u, 0x41u},
 389:.\Generated_Source\PSoC4/cyfitter_cfg.c **** 			{0xD8u, 0x0Du},
 390:.\Generated_Source\PSoC4/cyfitter_cfg.c **** 			{0x03u, 0x20u},
 391:.\Generated_Source\PSoC4/cyfitter_cfg.c **** 			{0x04u, 0x80u},
 392:.\Generated_Source\PSoC4/cyfitter_cfg.c **** 			{0x06u, 0x20u},
 393:.\Generated_Source\PSoC4/cyfitter_cfg.c **** 			{0x08u, 0x13u},
 394:.\Generated_Source\PSoC4/cyfitter_cfg.c **** 			{0x09u, 0x13u},
 395:.\Generated_Source\PSoC4/cyfitter_cfg.c **** 			{0x0Au, 0x0Cu},
 396:.\Generated_Source\PSoC4/cyfitter_cfg.c **** 			{0x0Eu, 0x15u},
 397:.\Generated_Source\PSoC4/cyfitter_cfg.c **** 			{0x0Fu, 0x20u},
 398:.\Generated_Source\PSoC4/cyfitter_cfg.c **** 			{0x10u, 0x13u},
 399:.\Generated_Source\PSoC4/cyfitter_cfg.c **** 			{0x11u, 0x01u},
 400:.\Generated_Source\PSoC4/cyfitter_cfg.c **** 			{0x12u, 0x04u},
 401:.\Generated_Source\PSoC4/cyfitter_cfg.c **** 			{0x13u, 0x0Au},
 402:.\Generated_Source\PSoC4/cyfitter_cfg.c **** 			{0x14u, 0x0Au},
 403:.\Generated_Source\PSoC4/cyfitter_cfg.c **** 			{0x15u, 0x13u},
 404:.\Generated_Source\PSoC4/cyfitter_cfg.c **** 			{0x16u, 0x14u},
 405:.\Generated_Source\PSoC4/cyfitter_cfg.c **** 			{0x19u, 0x02u},
 406:.\Generated_Source\PSoC4/cyfitter_cfg.c **** 			{0x1Au, 0x08u},
 407:.\Generated_Source\PSoC4/cyfitter_cfg.c **** 			{0x1Bu, 0x09u},
ARM GAS  C:\Users\Matty\AppData\Local\Temp\cc7EDzdh.s 			page 15


 408:.\Generated_Source\PSoC4/cyfitter_cfg.c **** 			{0x1Cu, 0x40u},
 409:.\Generated_Source\PSoC4/cyfitter_cfg.c **** 			{0x1Eu, 0x20u},
 410:.\Generated_Source\PSoC4/cyfitter_cfg.c **** 			{0x20u, 0x03u},
 411:.\Generated_Source\PSoC4/cyfitter_cfg.c **** 			{0x22u, 0x14u},
 412:.\Generated_Source\PSoC4/cyfitter_cfg.c **** 			{0x24u, 0xE0u},
 413:.\Generated_Source\PSoC4/cyfitter_cfg.c **** 			{0x28u, 0xE0u},
 414:.\Generated_Source\PSoC4/cyfitter_cfg.c **** 			{0x2Bu, 0x04u},
 415:.\Generated_Source\PSoC4/cyfitter_cfg.c **** 			{0x2Cu, 0x20u},
 416:.\Generated_Source\PSoC4/cyfitter_cfg.c **** 			{0x2Du, 0x10u},
 417:.\Generated_Source\PSoC4/cyfitter_cfg.c **** 			{0x2Eu, 0xC0u},
 418:.\Generated_Source\PSoC4/cyfitter_cfg.c **** 			{0x30u, 0x10u},
 419:.\Generated_Source\PSoC4/cyfitter_cfg.c **** 			{0x31u, 0x0Cu},
 420:.\Generated_Source\PSoC4/cyfitter_cfg.c **** 			{0x32u, 0xE0u},
 421:.\Generated_Source\PSoC4/cyfitter_cfg.c **** 			{0x33u, 0x03u},
 422:.\Generated_Source\PSoC4/cyfitter_cfg.c **** 			{0x34u, 0x0Fu},
 423:.\Generated_Source\PSoC4/cyfitter_cfg.c **** 			{0x35u, 0x10u},
 424:.\Generated_Source\PSoC4/cyfitter_cfg.c **** 			{0x37u, 0x20u},
 425:.\Generated_Source\PSoC4/cyfitter_cfg.c **** 			{0x3Au, 0x20u},
 426:.\Generated_Source\PSoC4/cyfitter_cfg.c **** 			{0x3Eu, 0x01u},
 427:.\Generated_Source\PSoC4/cyfitter_cfg.c **** 			{0x3Fu, 0x41u},
 428:.\Generated_Source\PSoC4/cyfitter_cfg.c **** 			{0x40u, 0x34u},
 429:.\Generated_Source\PSoC4/cyfitter_cfg.c **** 			{0x41u, 0x06u},
 430:.\Generated_Source\PSoC4/cyfitter_cfg.c **** 			{0x45u, 0xE0u},
 431:.\Generated_Source\PSoC4/cyfitter_cfg.c **** 			{0x46u, 0xBCu},
 432:.\Generated_Source\PSoC4/cyfitter_cfg.c **** 			{0x48u, 0x0Eu},
 433:.\Generated_Source\PSoC4/cyfitter_cfg.c **** 			{0x49u, 0xFFu},
 434:.\Generated_Source\PSoC4/cyfitter_cfg.c **** 			{0x4Au, 0xFFu},
 435:.\Generated_Source\PSoC4/cyfitter_cfg.c **** 			{0x4Bu, 0xFFu},
 436:.\Generated_Source\PSoC4/cyfitter_cfg.c **** 			{0x4Eu, 0xF0u},
 437:.\Generated_Source\PSoC4/cyfitter_cfg.c **** 			{0x4Fu, 0x44u},
 438:.\Generated_Source\PSoC4/cyfitter_cfg.c **** 			{0x50u, 0x0Cu},
 439:.\Generated_Source\PSoC4/cyfitter_cfg.c **** 			{0x54u, 0x01u},
 440:.\Generated_Source\PSoC4/cyfitter_cfg.c **** 			{0x58u, 0x04u},
 441:.\Generated_Source\PSoC4/cyfitter_cfg.c **** 			{0x59u, 0x04u},
 442:.\Generated_Source\PSoC4/cyfitter_cfg.c **** 			{0x5Au, 0x04u},
 443:.\Generated_Source\PSoC4/cyfitter_cfg.c **** 			{0x5Bu, 0x04u},
 444:.\Generated_Source\PSoC4/cyfitter_cfg.c **** 			{0x5Fu, 0x01u},
 445:.\Generated_Source\PSoC4/cyfitter_cfg.c **** 			{0x66u, 0xC0u},
 446:.\Generated_Source\PSoC4/cyfitter_cfg.c **** 			{0x6Au, 0x40u},
 447:.\Generated_Source\PSoC4/cyfitter_cfg.c **** 			{0x6Bu, 0x02u},
 448:.\Generated_Source\PSoC4/cyfitter_cfg.c **** 			{0x82u, 0x20u},
 449:.\Generated_Source\PSoC4/cyfitter_cfg.c **** 			{0x84u, 0x14u},
 450:.\Generated_Source\PSoC4/cyfitter_cfg.c **** 			{0x8Au, 0x03u},
 451:.\Generated_Source\PSoC4/cyfitter_cfg.c **** 			{0x8Bu, 0x0Cu},
 452:.\Generated_Source\PSoC4/cyfitter_cfg.c **** 			{0x8Du, 0x20u},
 453:.\Generated_Source\PSoC4/cyfitter_cfg.c **** 			{0x8Fu, 0x43u},
 454:.\Generated_Source\PSoC4/cyfitter_cfg.c **** 			{0x94u, 0xDCu},
 455:.\Generated_Source\PSoC4/cyfitter_cfg.c **** 			{0x95u, 0x8Cu},
 456:.\Generated_Source\PSoC4/cyfitter_cfg.c **** 			{0x96u, 0x22u},
 457:.\Generated_Source\PSoC4/cyfitter_cfg.c **** 			{0x97u, 0x13u},
 458:.\Generated_Source\PSoC4/cyfitter_cfg.c **** 			{0x98u, 0x09u},
 459:.\Generated_Source\PSoC4/cyfitter_cfg.c **** 			{0x99u, 0xD1u},
 460:.\Generated_Source\PSoC4/cyfitter_cfg.c **** 			{0x9Au, 0xD0u},
 461:.\Generated_Source\PSoC4/cyfitter_cfg.c **** 			{0x9Bu, 0x06u},
 462:.\Generated_Source\PSoC4/cyfitter_cfg.c **** 			{0x9Fu, 0x08u},
 463:.\Generated_Source\PSoC4/cyfitter_cfg.c **** 			{0xA0u, 0x10u},
 464:.\Generated_Source\PSoC4/cyfitter_cfg.c **** 			{0xA2u, 0x40u},
ARM GAS  C:\Users\Matty\AppData\Local\Temp\cc7EDzdh.s 			page 16


 465:.\Generated_Source\PSoC4/cyfitter_cfg.c **** 			{0xA4u, 0x10u},
 466:.\Generated_Source\PSoC4/cyfitter_cfg.c **** 			{0xA6u, 0xACu},
 467:.\Generated_Source\PSoC4/cyfitter_cfg.c **** 			{0xA8u, 0x0Cu},
 468:.\Generated_Source\PSoC4/cyfitter_cfg.c **** 			{0xA9u, 0xD1u},
 469:.\Generated_Source\PSoC4/cyfitter_cfg.c **** 			{0xAAu, 0x71u},
 470:.\Generated_Source\PSoC4/cyfitter_cfg.c **** 			{0xABu, 0x0Eu},
 471:.\Generated_Source\PSoC4/cyfitter_cfg.c **** 			{0xB1u, 0xC0u},
 472:.\Generated_Source\PSoC4/cyfitter_cfg.c **** 			{0xB2u, 0x1Fu},
 473:.\Generated_Source\PSoC4/cyfitter_cfg.c **** 			{0xB3u, 0x0Fu},
 474:.\Generated_Source\PSoC4/cyfitter_cfg.c **** 			{0xB4u, 0xE0u},
 475:.\Generated_Source\PSoC4/cyfitter_cfg.c **** 			{0xB5u, 0x30u},
 476:.\Generated_Source\PSoC4/cyfitter_cfg.c **** 			{0xB9u, 0x22u},
 477:.\Generated_Source\PSoC4/cyfitter_cfg.c **** 			{0xBAu, 0x22u},
 478:.\Generated_Source\PSoC4/cyfitter_cfg.c **** 			{0xBBu, 0x08u},
 479:.\Generated_Source\PSoC4/cyfitter_cfg.c **** 			{0xBFu, 0x01u},
 480:.\Generated_Source\PSoC4/cyfitter_cfg.c **** 			{0xC0u, 0x04u},
 481:.\Generated_Source\PSoC4/cyfitter_cfg.c **** 			{0xC5u, 0x40u},
 482:.\Generated_Source\PSoC4/cyfitter_cfg.c **** 			{0xC9u, 0xFFu},
 483:.\Generated_Source\PSoC4/cyfitter_cfg.c **** 			{0xCAu, 0x07u},
 484:.\Generated_Source\PSoC4/cyfitter_cfg.c **** 			{0xCBu, 0xFFu},
 485:.\Generated_Source\PSoC4/cyfitter_cfg.c **** 			{0xCCu, 0x40u},
 486:.\Generated_Source\PSoC4/cyfitter_cfg.c **** 			{0xCDu, 0x20u},
 487:.\Generated_Source\PSoC4/cyfitter_cfg.c **** 			{0xCEu, 0xF0u},
 488:.\Generated_Source\PSoC4/cyfitter_cfg.c **** 			{0xCFu, 0x05u},
 489:.\Generated_Source\PSoC4/cyfitter_cfg.c **** 			{0xD0u, 0x08u},
 490:.\Generated_Source\PSoC4/cyfitter_cfg.c **** 			{0xD8u, 0x04u},
 491:.\Generated_Source\PSoC4/cyfitter_cfg.c **** 			{0xD9u, 0x04u},
 492:.\Generated_Source\PSoC4/cyfitter_cfg.c **** 			{0xDAu, 0x04u},
 493:.\Generated_Source\PSoC4/cyfitter_cfg.c **** 			{0xDFu, 0x01u},
 494:.\Generated_Source\PSoC4/cyfitter_cfg.c **** 			{0xE0u, 0x40u},
 495:.\Generated_Source\PSoC4/cyfitter_cfg.c **** 			{0xE1u, 0xA8u},
 496:.\Generated_Source\PSoC4/cyfitter_cfg.c **** 			{0xE2u, 0x40u},
 497:.\Generated_Source\PSoC4/cyfitter_cfg.c **** 			{0xE3u, 0x20u},
 498:.\Generated_Source\PSoC4/cyfitter_cfg.c **** 			{0x02u, 0x90u},
 499:.\Generated_Source\PSoC4/cyfitter_cfg.c **** 			{0x03u, 0x08u},
 500:.\Generated_Source\PSoC4/cyfitter_cfg.c **** 			{0x04u, 0x80u},
 501:.\Generated_Source\PSoC4/cyfitter_cfg.c **** 			{0x05u, 0x10u},
 502:.\Generated_Source\PSoC4/cyfitter_cfg.c **** 			{0x07u, 0x20u},
 503:.\Generated_Source\PSoC4/cyfitter_cfg.c **** 			{0x09u, 0x08u},
 504:.\Generated_Source\PSoC4/cyfitter_cfg.c **** 			{0x0Bu, 0x04u},
 505:.\Generated_Source\PSoC4/cyfitter_cfg.c **** 			{0x0Du, 0x09u},
 506:.\Generated_Source\PSoC4/cyfitter_cfg.c **** 			{0x0Eu, 0x02u},
 507:.\Generated_Source\PSoC4/cyfitter_cfg.c **** 			{0x0Fu, 0x04u},
 508:.\Generated_Source\PSoC4/cyfitter_cfg.c **** 			{0x10u, 0x94u},
 509:.\Generated_Source\PSoC4/cyfitter_cfg.c **** 			{0x15u, 0x10u},
 510:.\Generated_Source\PSoC4/cyfitter_cfg.c **** 			{0x16u, 0x62u},
 511:.\Generated_Source\PSoC4/cyfitter_cfg.c **** 			{0x17u, 0x14u},
 512:.\Generated_Source\PSoC4/cyfitter_cfg.c **** 			{0x19u, 0x20u},
 513:.\Generated_Source\PSoC4/cyfitter_cfg.c **** 			{0x1Bu, 0x0Au},
 514:.\Generated_Source\PSoC4/cyfitter_cfg.c **** 			{0x1Du, 0x10u},
 515:.\Generated_Source\PSoC4/cyfitter_cfg.c **** 			{0x1Eu, 0xA0u},
 516:.\Generated_Source\PSoC4/cyfitter_cfg.c **** 			{0x1Fu, 0x04u},
 517:.\Generated_Source\PSoC4/cyfitter_cfg.c **** 			{0x20u, 0x40u},
 518:.\Generated_Source\PSoC4/cyfitter_cfg.c **** 			{0x21u, 0x18u},
 519:.\Generated_Source\PSoC4/cyfitter_cfg.c **** 			{0x23u, 0x04u},
 520:.\Generated_Source\PSoC4/cyfitter_cfg.c **** 			{0x24u, 0x08u},
 521:.\Generated_Source\PSoC4/cyfitter_cfg.c **** 			{0x27u, 0x61u},
ARM GAS  C:\Users\Matty\AppData\Local\Temp\cc7EDzdh.s 			page 17


 522:.\Generated_Source\PSoC4/cyfitter_cfg.c **** 			{0x28u, 0x04u},
 523:.\Generated_Source\PSoC4/cyfitter_cfg.c **** 			{0x29u, 0x20u},
 524:.\Generated_Source\PSoC4/cyfitter_cfg.c **** 			{0x2Du, 0x40u},
 525:.\Generated_Source\PSoC4/cyfitter_cfg.c **** 			{0x2Fu, 0x04u},
 526:.\Generated_Source\PSoC4/cyfitter_cfg.c **** 			{0x30u, 0x90u},
 527:.\Generated_Source\PSoC4/cyfitter_cfg.c **** 			{0x31u, 0x18u},
 528:.\Generated_Source\PSoC4/cyfitter_cfg.c **** 			{0x36u, 0x01u},
 529:.\Generated_Source\PSoC4/cyfitter_cfg.c **** 			{0x37u, 0x24u},
 530:.\Generated_Source\PSoC4/cyfitter_cfg.c **** 			{0x38u, 0x80u},
 531:.\Generated_Source\PSoC4/cyfitter_cfg.c **** 			{0x39u, 0x20u},
 532:.\Generated_Source\PSoC4/cyfitter_cfg.c **** 			{0x3Au, 0x80u},
 533:.\Generated_Source\PSoC4/cyfitter_cfg.c **** 			{0x3Du, 0x10u},
 534:.\Generated_Source\PSoC4/cyfitter_cfg.c **** 			{0x3Eu, 0x40u},
 535:.\Generated_Source\PSoC4/cyfitter_cfg.c **** 			{0x3Fu, 0x01u},
 536:.\Generated_Source\PSoC4/cyfitter_cfg.c **** 			{0x40u, 0x40u},
 537:.\Generated_Source\PSoC4/cyfitter_cfg.c **** 			{0x44u, 0x10u},
 538:.\Generated_Source\PSoC4/cyfitter_cfg.c **** 			{0x46u, 0x80u},
 539:.\Generated_Source\PSoC4/cyfitter_cfg.c **** 			{0x48u, 0x80u},
 540:.\Generated_Source\PSoC4/cyfitter_cfg.c **** 			{0x4Du, 0x21u},
 541:.\Generated_Source\PSoC4/cyfitter_cfg.c **** 			{0x4Eu, 0x40u},
 542:.\Generated_Source\PSoC4/cyfitter_cfg.c **** 			{0x50u, 0x40u},
 543:.\Generated_Source\PSoC4/cyfitter_cfg.c **** 			{0x52u, 0x80u},
 544:.\Generated_Source\PSoC4/cyfitter_cfg.c **** 			{0x56u, 0x50u},
 545:.\Generated_Source\PSoC4/cyfitter_cfg.c **** 			{0x5Du, 0x01u},
 546:.\Generated_Source\PSoC4/cyfitter_cfg.c **** 			{0x5Eu, 0x80u},
 547:.\Generated_Source\PSoC4/cyfitter_cfg.c **** 			{0x5Fu, 0x18u},
 548:.\Generated_Source\PSoC4/cyfitter_cfg.c **** 			{0x81u, 0x02u},
 549:.\Generated_Source\PSoC4/cyfitter_cfg.c **** 			{0x83u, 0x20u},
 550:.\Generated_Source\PSoC4/cyfitter_cfg.c **** 			{0x85u, 0x21u},
 551:.\Generated_Source\PSoC4/cyfitter_cfg.c **** 			{0x86u, 0x12u},
 552:.\Generated_Source\PSoC4/cyfitter_cfg.c **** 			{0x87u, 0x01u},
 553:.\Generated_Source\PSoC4/cyfitter_cfg.c **** 			{0x8Au, 0x40u},
 554:.\Generated_Source\PSoC4/cyfitter_cfg.c **** 			{0x8Bu, 0x10u},
 555:.\Generated_Source\PSoC4/cyfitter_cfg.c **** 			{0x8Eu, 0x01u},
 556:.\Generated_Source\PSoC4/cyfitter_cfg.c **** 			{0x91u, 0x40u},
 557:.\Generated_Source\PSoC4/cyfitter_cfg.c **** 			{0x92u, 0x40u},
 558:.\Generated_Source\PSoC4/cyfitter_cfg.c **** 			{0x93u, 0x01u},
 559:.\Generated_Source\PSoC4/cyfitter_cfg.c **** 			{0x94u, 0x08u},
 560:.\Generated_Source\PSoC4/cyfitter_cfg.c **** 			{0x96u, 0x80u},
 561:.\Generated_Source\PSoC4/cyfitter_cfg.c **** 			{0x9Au, 0x20u},
 562:.\Generated_Source\PSoC4/cyfitter_cfg.c **** 			{0x9Bu, 0x18u},
 563:.\Generated_Source\PSoC4/cyfitter_cfg.c **** 			{0x9Fu, 0x40u},
 564:.\Generated_Source\PSoC4/cyfitter_cfg.c **** 			{0xA5u, 0x02u},
 565:.\Generated_Source\PSoC4/cyfitter_cfg.c **** 			{0xA6u, 0x11u},
 566:.\Generated_Source\PSoC4/cyfitter_cfg.c **** 			{0xA7u, 0x0Au},
 567:.\Generated_Source\PSoC4/cyfitter_cfg.c **** 			{0xA8u, 0x50u},
 568:.\Generated_Source\PSoC4/cyfitter_cfg.c **** 			{0xB1u, 0x08u},
 569:.\Generated_Source\PSoC4/cyfitter_cfg.c **** 			{0xB6u, 0x80u},
 570:.\Generated_Source\PSoC4/cyfitter_cfg.c **** 			{0xC0u, 0xEEu},
 571:.\Generated_Source\PSoC4/cyfitter_cfg.c **** 			{0xC2u, 0xF6u},
 572:.\Generated_Source\PSoC4/cyfitter_cfg.c **** 			{0xC4u, 0xFEu},
 573:.\Generated_Source\PSoC4/cyfitter_cfg.c **** 			{0xCAu, 0x34u},
 574:.\Generated_Source\PSoC4/cyfitter_cfg.c **** 			{0xCCu, 0xEEu},
 575:.\Generated_Source\PSoC4/cyfitter_cfg.c **** 			{0xCEu, 0xBCu},
 576:.\Generated_Source\PSoC4/cyfitter_cfg.c **** 			{0xD0u, 0xC1u},
 577:.\Generated_Source\PSoC4/cyfitter_cfg.c **** 			{0xD2u, 0x20u},
 578:.\Generated_Source\PSoC4/cyfitter_cfg.c **** 			{0xD6u, 0xF0u},
ARM GAS  C:\Users\Matty\AppData\Local\Temp\cc7EDzdh.s 			page 18


 579:.\Generated_Source\PSoC4/cyfitter_cfg.c **** 			{0xE0u, 0x02u},
 580:.\Generated_Source\PSoC4/cyfitter_cfg.c **** 			{0xE8u, 0x05u},
 581:.\Generated_Source\PSoC4/cyfitter_cfg.c **** 			{0x6Bu, 0x20u},
 582:.\Generated_Source\PSoC4/cyfitter_cfg.c **** 			{0x83u, 0x20u},
 583:.\Generated_Source\PSoC4/cyfitter_cfg.c **** 			{0xDAu, 0x40u},
 584:.\Generated_Source\PSoC4/cyfitter_cfg.c **** 			{0xE2u, 0x80u},
 585:.\Generated_Source\PSoC4/cyfitter_cfg.c **** 			{0x52u, 0x0Au},
 586:.\Generated_Source\PSoC4/cyfitter_cfg.c **** 			{0x54u, 0x80u},
 587:.\Generated_Source\PSoC4/cyfitter_cfg.c **** 			{0x5Fu, 0x80u},
 588:.\Generated_Source\PSoC4/cyfitter_cfg.c **** 			{0x63u, 0x08u},
 589:.\Generated_Source\PSoC4/cyfitter_cfg.c **** 			{0x8Eu, 0x08u},
 590:.\Generated_Source\PSoC4/cyfitter_cfg.c **** 			{0xD4u, 0x07u},
 591:.\Generated_Source\PSoC4/cyfitter_cfg.c **** 			{0xD6u, 0x04u},
 592:.\Generated_Source\PSoC4/cyfitter_cfg.c **** 			{0xD8u, 0x02u},
 593:.\Generated_Source\PSoC4/cyfitter_cfg.c **** 			{0xE4u, 0x02u},
 594:.\Generated_Source\PSoC4/cyfitter_cfg.c **** 			{0x04u, 0x08u},
 595:.\Generated_Source\PSoC4/cyfitter_cfg.c **** 			{0x56u, 0x80u},
 596:.\Generated_Source\PSoC4/cyfitter_cfg.c **** 			{0x87u, 0x80u},
 597:.\Generated_Source\PSoC4/cyfitter_cfg.c **** 			{0x8Cu, 0x04u},
 598:.\Generated_Source\PSoC4/cyfitter_cfg.c **** 			{0x9Au, 0x80u},
 599:.\Generated_Source\PSoC4/cyfitter_cfg.c **** 			{0x9Fu, 0x80u},
 600:.\Generated_Source\PSoC4/cyfitter_cfg.c **** 			{0xA8u, 0x80u},
 601:.\Generated_Source\PSoC4/cyfitter_cfg.c **** 			{0xAAu, 0x02u},
 602:.\Generated_Source\PSoC4/cyfitter_cfg.c **** 			{0xB2u, 0x80u},
 603:.\Generated_Source\PSoC4/cyfitter_cfg.c **** 			{0xB7u, 0x04u},
 604:.\Generated_Source\PSoC4/cyfitter_cfg.c **** 			{0xC0u, 0x04u},
 605:.\Generated_Source\PSoC4/cyfitter_cfg.c **** 			{0xD4u, 0x02u},
 606:.\Generated_Source\PSoC4/cyfitter_cfg.c **** 			{0xE2u, 0x08u},
 607:.\Generated_Source\PSoC4/cyfitter_cfg.c **** 			{0xE8u, 0x02u},
 608:.\Generated_Source\PSoC4/cyfitter_cfg.c **** 			{0xECu, 0x04u},
 609:.\Generated_Source\PSoC4/cyfitter_cfg.c **** 			{0x10u, 0x01u},
 610:.\Generated_Source\PSoC4/cyfitter_cfg.c **** 			{0x11u, 0x01u},
 611:.\Generated_Source\PSoC4/cyfitter_cfg.c **** 		};
 612:.\Generated_Source\PSoC4/cyfitter_cfg.c **** 
 613:.\Generated_Source\PSoC4/cyfitter_cfg.c **** 
 614:.\Generated_Source\PSoC4/cyfitter_cfg.c **** 
 615:.\Generated_Source\PSoC4/cyfitter_cfg.c **** 		CYPACKED typedef struct {
 616:.\Generated_Source\PSoC4/cyfitter_cfg.c **** 			void CYFAR *address;
 617:.\Generated_Source\PSoC4/cyfitter_cfg.c **** 			uint16 size;
 618:.\Generated_Source\PSoC4/cyfitter_cfg.c **** 		} CYPACKED_ATTR cfg_memset_t;
 619:.\Generated_Source\PSoC4/cyfitter_cfg.c **** 
 620:.\Generated_Source\PSoC4/cyfitter_cfg.c **** 
 621:.\Generated_Source\PSoC4/cyfitter_cfg.c **** 		CYPACKED typedef struct {
 622:.\Generated_Source\PSoC4/cyfitter_cfg.c **** 			void CYFAR *dest;
 623:.\Generated_Source\PSoC4/cyfitter_cfg.c **** 			const void CYCODE *src;
 624:.\Generated_Source\PSoC4/cyfitter_cfg.c **** 			uint16 size;
 625:.\Generated_Source\PSoC4/cyfitter_cfg.c **** 		} CYPACKED_ATTR cfg_memcpy_t;
 626:.\Generated_Source\PSoC4/cyfitter_cfg.c **** 
 627:.\Generated_Source\PSoC4/cyfitter_cfg.c **** 		static const cfg_memset_t CYCODE cfg_memset_list [] = {
 628:.\Generated_Source\PSoC4/cyfitter_cfg.c **** 			/* address, size */
 629:.\Generated_Source\PSoC4/cyfitter_cfg.c **** 			{(void CYFAR *)(CYDEV_UDB_P0_U0_BASE), 128u},
 630:.\Generated_Source\PSoC4/cyfitter_cfg.c **** 			{(void CYFAR *)(CYDEV_UDB_P0_ROUTE_BASE), 768u},
 631:.\Generated_Source\PSoC4/cyfitter_cfg.c **** 			{(void CYFAR *)(CYDEV_UDB_DSI0_BASE), 1024u},
 632:.\Generated_Source\PSoC4/cyfitter_cfg.c **** 		};
 633:.\Generated_Source\PSoC4/cyfitter_cfg.c **** 
 634:.\Generated_Source\PSoC4/cyfitter_cfg.c **** 		/* UDB_0_1_1_CONFIG Address: CYDEV_UDB_P0_U1_BASE Size (bytes): 128 */
 635:.\Generated_Source\PSoC4/cyfitter_cfg.c **** 		static const uint8 CYCODE BS_UDB_0_1_1_CONFIG_VAL[] = {
ARM GAS  C:\Users\Matty\AppData\Local\Temp\cc7EDzdh.s 			page 19


 636:.\Generated_Source\PSoC4/cyfitter_cfg.c **** 			0x1Cu, 0x00u, 0xE3u, 0x04u, 0x00u, 0x08u, 0xF3u, 0x00u, 0x0Fu, 0x00u, 0xF0u, 0x00u, 0x00u, 0x3Cu
 637:.\Generated_Source\PSoC4/cyfitter_cfg.c **** 			0x82u, 0x04u, 0x00u, 0x80u, 0xC3u, 0x00u, 0x00u, 0x03u, 0xF3u, 0x18u, 0x0Cu, 0x00u, 0x41u, 0x00u
 638:.\Generated_Source\PSoC4/cyfitter_cfg.c **** 			0xFFu, 0x10u, 0x00u, 0x00u, 0x04u, 0x67u, 0x00u, 0x18u, 0x0Cu, 0x3Cu, 0x00u, 0x41u, 0x08u, 0x7Fu
 639:.\Generated_Source\PSoC4/cyfitter_cfg.c **** 			0x1Cu, 0x80u, 0x2Cu, 0x20u, 0x0Fu, 0x40u, 0xC0u, 0x1Fu, 0x00u, 0x20u, 0x28u, 0x80u, 0x00u, 0x00u
 640:.\Generated_Source\PSoC4/cyfitter_cfg.c **** 			0x26u, 0x04u, 0x05u, 0x00u, 0x01u, 0x00u, 0xCEu, 0x00u, 0x0Cu, 0xFFu, 0xFFu, 0xFFu, 0x62u, 0xA0u
 641:.\Generated_Source\PSoC4/cyfitter_cfg.c **** 			0x0Cu, 0x00u, 0x00u, 0x00u, 0x00u, 0x00u, 0x02u, 0x12u, 0x04u, 0x04u, 0x04u, 0x04u, 0x00u, 0x00u
 642:.\Generated_Source\PSoC4/cyfitter_cfg.c **** 			0x00u, 0x00u, 0x00u, 0x00u, 0x00u, 0x00u, 0x40u, 0x02u, 0x00u, 0x10u, 0x30u, 0x10u, 0x00u, 0x10u
 643:.\Generated_Source\PSoC4/cyfitter_cfg.c **** 			0x00u, 0x00u, 0x00u, 0x00u, 0x00u, 0x00u, 0x00u, 0x00u, 0x00u, 0x00u, 0x00u, 0x00u, 0x00u, 0x00u
 644:.\Generated_Source\PSoC4/cyfitter_cfg.c **** 
 645:.\Generated_Source\PSoC4/cyfitter_cfg.c **** 		static const cfg_memcpy_t CYCODE cfg_memcpy_list [] = {
 646:.\Generated_Source\PSoC4/cyfitter_cfg.c **** 			/* dest, src, size */
 647:.\Generated_Source\PSoC4/cyfitter_cfg.c **** 			{(void CYFAR *)(CYDEV_UDB_P0_U1_BASE), BS_UDB_0_1_1_CONFIG_VAL, 128u},
 648:.\Generated_Source\PSoC4/cyfitter_cfg.c **** 		};
 649:.\Generated_Source\PSoC4/cyfitter_cfg.c **** 
 650:.\Generated_Source\PSoC4/cyfitter_cfg.c **** 		uint8 CYDATA i;
 651:.\Generated_Source\PSoC4/cyfitter_cfg.c **** 
 652:.\Generated_Source\PSoC4/cyfitter_cfg.c **** 		/* Zero out critical memory blocks before beginning configuration */
 653:.\Generated_Source\PSoC4/cyfitter_cfg.c **** 		for (i = 0u; i < (sizeof(cfg_memset_list)/sizeof(cfg_memset_list[0])); i++)
 389              		.loc 1 653 0
 390 00aa 3B1C     		mov	r3, r7
 391 00ac 1733     		add	r3, r3, #23
 392 00ae 0022     		mov	r2, #0
 393 00b0 1A70     		strb	r2, [r3]
 394 00b2 26E0     		b	.L16
 395              	.L17:
 396              	.LBB4:
 654:.\Generated_Source\PSoC4/cyfitter_cfg.c **** 		{
 655:.\Generated_Source\PSoC4/cyfitter_cfg.c **** 			const cfg_memset_t CYCODE * CYDATA ms = &cfg_memset_list[i];
 397              		.loc 1 655 0 discriminator 2
 398 00b4 3B1C     		mov	r3, r7
 399 00b6 1733     		add	r3, r3, #23
 400 00b8 1A78     		ldrb	r2, [r3]
 401 00ba 131C     		mov	r3, r2
 402 00bc 5B00     		lsl	r3, r3, #1
 403 00be 9B18     		add	r3, r3, r2
 404 00c0 5B00     		lsl	r3, r3, #1
 405 00c2 614A     		ldr	r2, .L20+4
 406 00c4 9B18     		add	r3, r3, r2
 407 00c6 3B61     		str	r3, [r7, #16]
 656:.\Generated_Source\PSoC4/cyfitter_cfg.c **** 			CYMEMZERO(ms->address, (size_t)(uint32)(ms->size));
 408              		.loc 1 656 0 discriminator 2
 409 00c8 3B69     		ldr	r3, [r7, #16]
 410 00ca 1A78     		ldrb	r2, [r3]
 411 00cc 5978     		ldrb	r1, [r3, #1]
 412 00ce 0902     		lsl	r1, r1, #8
 413 00d0 0A43     		orr	r2, r1
 414 00d2 9978     		ldrb	r1, [r3, #2]
 415 00d4 0904     		lsl	r1, r1, #16
 416 00d6 0A43     		orr	r2, r1
 417 00d8 DB78     		ldrb	r3, [r3, #3]
 418 00da 1B06     		lsl	r3, r3, #24
 419 00dc 1343     		orr	r3, r2
 420 00de 1A1C     		mov	r2, r3
 421 00e0 3B69     		ldr	r3, [r7, #16]
 422 00e2 1979     		ldrb	r1, [r3, #4]
 423 00e4 5B79     		ldrb	r3, [r3, #5]
 424 00e6 1B02     		lsl	r3, r3, #8
ARM GAS  C:\Users\Matty\AppData\Local\Temp\cc7EDzdh.s 			page 20


 425 00e8 0B43     		orr	r3, r1
 426 00ea 9BB2     		uxth	r3, r3
 427 00ec 101C     		mov	r0, r2
 428 00ee 191C     		mov	r1, r3
 429 00f0 FFF7FEFF 		bl	CYMEMZERO
 430              	.LBE4:
 653:.\Generated_Source\PSoC4/cyfitter_cfg.c **** 		for (i = 0u; i < (sizeof(cfg_memset_list)/sizeof(cfg_memset_list[0])); i++)
 431              		.loc 1 653 0 discriminator 2
 432 00f4 3B1C     		mov	r3, r7
 433 00f6 1733     		add	r3, r3, #23
 434 00f8 1A78     		ldrb	r2, [r3]
 435 00fa 3B1C     		mov	r3, r7
 436 00fc 1733     		add	r3, r3, #23
 437 00fe 0132     		add	r2, r2, #1
 438 0100 1A70     		strb	r2, [r3]
 439              	.L16:
 653:.\Generated_Source\PSoC4/cyfitter_cfg.c **** 		for (i = 0u; i < (sizeof(cfg_memset_list)/sizeof(cfg_memset_list[0])); i++)
 440              		.loc 1 653 0 is_stmt 0 discriminator 1
 441 0102 3B1C     		mov	r3, r7
 442 0104 1733     		add	r3, r3, #23
 443 0106 1B78     		ldrb	r3, [r3]
 444 0108 022B     		cmp	r3, #2
 445 010a D3D9     		bls	.L17
 657:.\Generated_Source\PSoC4/cyfitter_cfg.c **** 		}
 658:.\Generated_Source\PSoC4/cyfitter_cfg.c **** 
 659:.\Generated_Source\PSoC4/cyfitter_cfg.c **** 		/* Copy device configuration data into registers */
 660:.\Generated_Source\PSoC4/cyfitter_cfg.c **** 		for (i = 0u; i < (sizeof(cfg_memcpy_list)/sizeof(cfg_memcpy_list[0])); i++)
 446              		.loc 1 660 0 is_stmt 1
 447 010c 3B1C     		mov	r3, r7
 448 010e 1733     		add	r3, r3, #23
 449 0110 0022     		mov	r2, #0
 450 0112 1A70     		strb	r2, [r3]
 451 0114 38E0     		b	.L18
 452              	.L19:
 453              	.LBB5:
 661:.\Generated_Source\PSoC4/cyfitter_cfg.c **** 		{
 662:.\Generated_Source\PSoC4/cyfitter_cfg.c **** 			const cfg_memcpy_t CYCODE * CYDATA mc = &cfg_memcpy_list[i];
 454              		.loc 1 662 0 discriminator 2
 455 0116 3B1C     		mov	r3, r7
 456 0118 1733     		add	r3, r3, #23
 457 011a 1A78     		ldrb	r2, [r3]
 458 011c 131C     		mov	r3, r2
 459 011e 9B00     		lsl	r3, r3, #2
 460 0120 9B18     		add	r3, r3, r2
 461 0122 5B00     		lsl	r3, r3, #1
 462 0124 494A     		ldr	r2, .L20+8
 463 0126 9B18     		add	r3, r3, r2
 464 0128 FB60     		str	r3, [r7, #12]
 663:.\Generated_Source\PSoC4/cyfitter_cfg.c **** 			void * CYDATA destPtr = mc->dest;
 465              		.loc 1 663 0 discriminator 2
 466 012a FB68     		ldr	r3, [r7, #12]
 467 012c 1A78     		ldrb	r2, [r3]
 468 012e 5978     		ldrb	r1, [r3, #1]
 469 0130 0902     		lsl	r1, r1, #8
 470 0132 0A43     		orr	r2, r1
 471 0134 9978     		ldrb	r1, [r3, #2]
 472 0136 0904     		lsl	r1, r1, #16
ARM GAS  C:\Users\Matty\AppData\Local\Temp\cc7EDzdh.s 			page 21


 473 0138 0A43     		orr	r2, r1
 474 013a DB78     		ldrb	r3, [r3, #3]
 475 013c 1B06     		lsl	r3, r3, #24
 476 013e 1343     		orr	r3, r2
 477 0140 BB60     		str	r3, [r7, #8]
 664:.\Generated_Source\PSoC4/cyfitter_cfg.c **** 			const void CYCODE * CYDATA srcPtr = mc->src;
 478              		.loc 1 664 0 discriminator 2
 479 0142 FB68     		ldr	r3, [r7, #12]
 480 0144 1A79     		ldrb	r2, [r3, #4]
 481 0146 5979     		ldrb	r1, [r3, #5]
 482 0148 0902     		lsl	r1, r1, #8
 483 014a 0A43     		orr	r2, r1
 484 014c 9979     		ldrb	r1, [r3, #6]
 485 014e 0904     		lsl	r1, r1, #16
 486 0150 0A43     		orr	r2, r1
 487 0152 DB79     		ldrb	r3, [r3, #7]
 488 0154 1B06     		lsl	r3, r3, #24
 489 0156 1343     		orr	r3, r2
 490 0158 7B60     		str	r3, [r7, #4]
 665:.\Generated_Source\PSoC4/cyfitter_cfg.c **** 			uint16 CYDATA numBytes = mc->size;
 491              		.loc 1 665 0 discriminator 2
 492 015a BA1C     		add	r2, r7, #2
 493 015c FB68     		ldr	r3, [r7, #12]
 494 015e 197A     		ldrb	r1, [r3, #8]
 495 0160 5B7A     		ldrb	r3, [r3, #9]
 496 0162 1B02     		lsl	r3, r3, #8
 497 0164 0B43     		orr	r3, r1
 498 0166 1380     		strh	r3, [r2]
 666:.\Generated_Source\PSoC4/cyfitter_cfg.c **** 			CYCONFIGCPYCODE(destPtr, srcPtr, numBytes);
 499              		.loc 1 666 0 discriminator 2
 500 0168 BB1C     		add	r3, r7, #2
 501 016a 1B88     		ldrh	r3, [r3]
 502 016c B968     		ldr	r1, [r7, #8]
 503 016e 7A68     		ldr	r2, [r7, #4]
 504 0170 081C     		mov	r0, r1
 505 0172 111C     		mov	r1, r2
 506 0174 1A1C     		mov	r2, r3
 507 0176 FFF7FEFF 		bl	CYCONFIGCPYCODE
 508              	.LBE5:
 660:.\Generated_Source\PSoC4/cyfitter_cfg.c **** 		for (i = 0u; i < (sizeof(cfg_memcpy_list)/sizeof(cfg_memcpy_list[0])); i++)
 509              		.loc 1 660 0 discriminator 2
 510 017a 3B1C     		mov	r3, r7
 511 017c 1733     		add	r3, r3, #23
 512 017e 1A78     		ldrb	r2, [r3]
 513 0180 3B1C     		mov	r3, r7
 514 0182 1733     		add	r3, r3, #23
 515 0184 0132     		add	r2, r2, #1
 516 0186 1A70     		strb	r2, [r3]
 517              	.L18:
 660:.\Generated_Source\PSoC4/cyfitter_cfg.c **** 		for (i = 0u; i < (sizeof(cfg_memcpy_list)/sizeof(cfg_memcpy_list[0])); i++)
 518              		.loc 1 660 0 is_stmt 0 discriminator 1
 519 0188 3B1C     		mov	r3, r7
 520 018a 1733     		add	r3, r3, #23
 521 018c 1B78     		ldrb	r3, [r3]
 522 018e 002B     		cmp	r3, #0
 523 0190 C1D0     		beq	.L19
 667:.\Generated_Source\PSoC4/cyfitter_cfg.c **** 		}
ARM GAS  C:\Users\Matty\AppData\Local\Temp\cc7EDzdh.s 			page 22


 668:.\Generated_Source\PSoC4/cyfitter_cfg.c **** 
 669:.\Generated_Source\PSoC4/cyfitter_cfg.c **** 		cfg_write_bytes32(cy_cfg_addr_table, cy_cfg_data_table);
 524              		.loc 1 669 0 is_stmt 1
 525 0192 2F4A     		ldr	r2, .L20+12
 526 0194 2F4B     		ldr	r3, .L20+16
 527 0196 101C     		mov	r0, r2
 528 0198 191C     		mov	r1, r3
 529 019a FFF7FEFF 		bl	cfg_write_bytes32
 670:.\Generated_Source\PSoC4/cyfitter_cfg.c **** 
 671:.\Generated_Source\PSoC4/cyfitter_cfg.c **** 		/* Perform normal device configuration. Order is not critical for these items. */
 672:.\Generated_Source\PSoC4/cyfitter_cfg.c **** 		CY_SET_XTND_REG16((void CYFAR *)(CYREG_UDB_BCTL0_DRV), 0x0100u);
 530              		.loc 1 672 0
 531 019e 2E4B     		ldr	r3, .L20+20
 532 01a0 8022     		mov	r2, #128
 533 01a2 5200     		lsl	r2, r2, #1
 534 01a4 1A80     		strh	r2, [r3]
 673:.\Generated_Source\PSoC4/cyfitter_cfg.c **** 		CY_SET_XTND_REG8((void CYFAR *)(CYREG_UDB_BCTL0_DRV + 0x2u), 0x01u);
 535              		.loc 1 673 0
 536 01a6 2D4B     		ldr	r3, .L20+24
 537 01a8 0122     		mov	r2, #1
 538 01aa 1A70     		strb	r2, [r3]
 674:.\Generated_Source\PSoC4/cyfitter_cfg.c **** 
 675:.\Generated_Source\PSoC4/cyfitter_cfg.c **** 		/* HSIOM Starting address: CYDEV_HSIOM_BASE */
 676:.\Generated_Source\PSoC4/cyfitter_cfg.c **** 		CY_SET_XTND_REG32((void CYFAR *)(CYREG_HSIOM_PORT_SEL2), 0x00033333u);
 539              		.loc 1 676 0
 540 01ac 2C4B     		ldr	r3, .L20+28
 541 01ae 2D4A     		ldr	r2, .L20+32
 542 01b0 1A60     		str	r2, [r3]
 677:.\Generated_Source\PSoC4/cyfitter_cfg.c **** 		CY_SET_XTND_REG32((void CYFAR *)(CYREG_HSIOM_PORT_SEL3), 0x0000EE03u);
 543              		.loc 1 677 0
 544 01b2 2D4B     		ldr	r3, .L20+36
 545 01b4 2D4A     		ldr	r2, .L20+40
 546 01b6 1A60     		str	r2, [r3]
 678:.\Generated_Source\PSoC4/cyfitter_cfg.c **** 
 679:.\Generated_Source\PSoC4/cyfitter_cfg.c **** 		/* UDB_PA_2 Starting address: CYDEV_UDB_PA2_BASE */
 680:.\Generated_Source\PSoC4/cyfitter_cfg.c **** 		CY_SET_XTND_REG32((void CYFAR *)(CYDEV_UDB_PA2_BASE), 0x00990000u);
 547              		.loc 1 680 0
 548 01b8 2D4B     		ldr	r3, .L20+44
 549 01ba 9922     		mov	r2, #153
 550 01bc 1204     		lsl	r2, r2, #16
 551 01be 1A60     		str	r2, [r3]
 681:.\Generated_Source\PSoC4/cyfitter_cfg.c **** 		CY_SET_XTND_REG32((void CYFAR *)(CYREG_UDB_PA2_CFG8), 0x02630000u);
 552              		.loc 1 681 0
 553 01c0 2C4B     		ldr	r3, .L20+48
 554 01c2 2D4A     		ldr	r2, .L20+52
 555 01c4 1A60     		str	r2, [r3]
 682:.\Generated_Source\PSoC4/cyfitter_cfg.c **** 
 683:.\Generated_Source\PSoC4/cyfitter_cfg.c **** 		/* UDB_PA_3 Starting address: CYDEV_UDB_PA3_BASE */
 684:.\Generated_Source\PSoC4/cyfitter_cfg.c **** 		CY_SET_XTND_REG32((void CYFAR *)(CYDEV_UDB_PA3_BASE), 0x00990004u);
 556              		.loc 1 684 0
 557 01c6 2D4B     		ldr	r3, .L20+56
 558 01c8 2D4A     		ldr	r2, .L20+60
 559 01ca 1A60     		str	r2, [r3]
 685:.\Generated_Source\PSoC4/cyfitter_cfg.c **** 		CY_SET_XTND_REG32((void CYFAR *)(CYREG_UDB_PA3_CFG4), 0x00080000u);
 560              		.loc 1 685 0
 561 01cc 2D4B     		ldr	r3, .L20+64
 562 01ce 8022     		mov	r2, #128
ARM GAS  C:\Users\Matty\AppData\Local\Temp\cc7EDzdh.s 			page 23


 563 01d0 1203     		lsl	r2, r2, #12
 564 01d2 1A60     		str	r2, [r3]
 686:.\Generated_Source\PSoC4/cyfitter_cfg.c **** 		CY_SET_XTND_REG32((void CYFAR *)(CYREG_UDB_PA3_CFG8), 0x00010000u);
 565              		.loc 1 686 0
 566 01d4 2C4B     		ldr	r3, .L20+68
 567 01d6 8022     		mov	r2, #128
 568 01d8 5202     		lsl	r2, r2, #9
 569 01da 1A60     		str	r2, [r3]
 687:.\Generated_Source\PSoC4/cyfitter_cfg.c **** 
 688:.\Generated_Source\PSoC4/cyfitter_cfg.c **** 		/* INT_SELECT Starting address: CYDEV_CPUSS_INT_SEL */
 689:.\Generated_Source\PSoC4/cyfitter_cfg.c **** 		CY_SET_XTND_REG32((void CYFAR *)(CYREG_CPUSS_INT_SEL), 0x00000001u);
 570              		.loc 1 689 0
 571 01dc 2B4B     		ldr	r3, .L20+72
 572 01de 0122     		mov	r2, #1
 573 01e0 1A60     		str	r2, [r3]
 690:.\Generated_Source\PSoC4/cyfitter_cfg.c **** 
 691:.\Generated_Source\PSoC4/cyfitter_cfg.c **** 		/* INT_CONFIG Starting address: CYDEV_UDB_INT_CFG */
 692:.\Generated_Source\PSoC4/cyfitter_cfg.c **** 		CY_SET_XTND_REG32((void CYFAR *)(CYREG_UDB_INT_CFG), 0x00000001u);
 574              		.loc 1 692 0
 575 01e2 2B4B     		ldr	r3, .L20+76
 576 01e4 0122     		mov	r2, #1
 577 01e6 1A60     		str	r2, [r3]
 693:.\Generated_Source\PSoC4/cyfitter_cfg.c **** 
 694:.\Generated_Source\PSoC4/cyfitter_cfg.c **** 		/* Enable digital routing */
 695:.\Generated_Source\PSoC4/cyfitter_cfg.c **** 		CY_SET_XTND_REG8((void *)CYREG_UDB_UDBIF_BANK_CTL, CY_GET_XTND_REG8((void *)CYREG_UDB_UDBIF_BANK_
 578              		.loc 1 695 0
 579 01e8 2A4B     		ldr	r3, .L20+80
 580 01ea 2A4A     		ldr	r2, .L20+80
 581 01ec 1278     		ldrb	r2, [r2]
 582 01ee D2B2     		uxtb	r2, r2
 583 01f0 0221     		mov	r1, #2
 584 01f2 0A43     		orr	r2, r1
 585 01f4 D2B2     		uxtb	r2, r2
 586 01f6 1A70     		strb	r2, [r3]
 696:.\Generated_Source\PSoC4/cyfitter_cfg.c **** 
 697:.\Generated_Source\PSoC4/cyfitter_cfg.c **** 		/* Enable UDB array */
 698:.\Generated_Source\PSoC4/cyfitter_cfg.c **** 		CY_SET_XTND_REG8((void *)CYREG_UDB_UDBIF_WAIT_CFG, (uint8)((CY_GET_XTND_REG8((void *)CYREG_UDB_UD
 587              		.loc 1 698 0
 588 01f8 274B     		ldr	r3, .L20+84
 589 01fa 274A     		ldr	r2, .L20+84
 590 01fc 1278     		ldrb	r2, [r2]
 591 01fe D2B2     		uxtb	r2, r2
 592 0200 3C21     		mov	r1, #60
 593 0202 8A43     		bic	r2, r1
 594 0204 D2B2     		uxtb	r2, r2
 595 0206 1421     		mov	r1, #20
 596 0208 0A43     		orr	r2, r1
 597 020a D2B2     		uxtb	r2, r2
 598 020c 1A70     		strb	r2, [r3]
 699:.\Generated_Source\PSoC4/cyfitter_cfg.c **** 		CY_SET_XTND_REG8((void *)CYREG_UDB_UDBIF_BANK_CTL, (uint8)(CY_GET_XTND_REG8((void *)CYREG_UDB_UDB
 599              		.loc 1 699 0
 600 020e 214B     		ldr	r3, .L20+80
 601 0210 204A     		ldr	r2, .L20+80
 602 0212 1278     		ldrb	r2, [r2]
 603 0214 D2B2     		uxtb	r2, r2
 604 0216 1621     		mov	r1, #22
 605 0218 0A43     		orr	r2, r1
ARM GAS  C:\Users\Matty\AppData\Local\Temp\cc7EDzdh.s 			page 24


 606 021a D2B2     		uxtb	r2, r2
 607 021c 1A70     		strb	r2, [r3]
 608              	.LBE3:
 700:.\Generated_Source\PSoC4/cyfitter_cfg.c **** 	}
 701:.\Generated_Source\PSoC4/cyfitter_cfg.c **** 
 702:.\Generated_Source\PSoC4/cyfitter_cfg.c **** 	/* Perform second pass device configuration. These items must be configured in specific order afte
 703:.\Generated_Source\PSoC4/cyfitter_cfg.c **** 	/* IOPINS0_2 Starting address: CYDEV_GPIO_PRT2_DR */
 704:.\Generated_Source\PSoC4/cyfitter_cfg.c **** 	CY_SET_XTND_REG32((void CYFAR *)(CYREG_GPIO_PRT2_DR), 0x0000001Fu);
 609              		.loc 1 704 0
 610 021e 1F4B     		ldr	r3, .L20+88
 611 0220 1F22     		mov	r2, #31
 612 0222 1A60     		str	r2, [r3]
 705:.\Generated_Source\PSoC4/cyfitter_cfg.c **** 	CY_SET_XTND_REG32((void CYFAR *)(CYREG_GPIO_PRT2_PC), 0x00006DB6u);
 613              		.loc 1 705 0
 614 0224 1E4B     		ldr	r3, .L20+92
 615 0226 1F4A     		ldr	r2, .L20+96
 616 0228 1A60     		str	r2, [r3]
 706:.\Generated_Source\PSoC4/cyfitter_cfg.c **** 
 707:.\Generated_Source\PSoC4/cyfitter_cfg.c **** 	/* IOPINS0_3 Starting address: CYDEV_GPIO_PRT3_DR */
 708:.\Generated_Source\PSoC4/cyfitter_cfg.c **** 	CY_SET_XTND_REG32((void CYFAR *)(CYREG_GPIO_PRT3_DR), 0x00000001u);
 617              		.loc 1 708 0
 618 022a 1F4B     		ldr	r3, .L20+100
 619 022c 0122     		mov	r2, #1
 620 022e 1A60     		str	r2, [r3]
 709:.\Generated_Source\PSoC4/cyfitter_cfg.c **** 	CY_SET_XTND_REG32((void CYFAR *)(CYREG_GPIO_PRT3_PC), 0x00000D8Eu);
 621              		.loc 1 709 0
 622 0230 1E4B     		ldr	r3, .L20+104
 623 0232 1F4A     		ldr	r2, .L20+108
 624 0234 1A60     		str	r2, [r3]
 710:.\Generated_Source\PSoC4/cyfitter_cfg.c **** 
 711:.\Generated_Source\PSoC4/cyfitter_cfg.c **** 	/* Setup clocks based on selections from Clock DWR */
 712:.\Generated_Source\PSoC4/cyfitter_cfg.c **** 	ClockSetup();
 625              		.loc 1 712 0
 626 0236 FFF7E3FE 		bl	ClockSetup
 713:.\Generated_Source\PSoC4/cyfitter_cfg.c **** 
 714:.\Generated_Source\PSoC4/cyfitter_cfg.c **** 	/* Perform basic analog initialization to defaults */
 715:.\Generated_Source\PSoC4/cyfitter_cfg.c **** 	AnalogSetDefault();
 627              		.loc 1 715 0
 628 023a FFF7FEFF 		bl	AnalogSetDefault
 716:.\Generated_Source\PSoC4/cyfitter_cfg.c **** 
 717:.\Generated_Source\PSoC4/cyfitter_cfg.c **** }
 629              		.loc 1 717 0
 630 023e BD46     		mov	sp, r7
 631 0240 06B0     		add	sp, sp, #24
 632              		@ sp needed
 633 0242 80BD     		pop	{r7, pc}
 634              	.L21:
 635              		.align	2
 636              	.L20:
 637 0244 1C700F40 		.word	1074753564
 638 0248 00000000 		.word	cfg_memset_list.4766
 639 024c 14000000 		.word	cfg_memcpy_list.4768
 640 0250 20000000 		.word	cy_cfg_addr_table.4755
 641 0254 44000000 		.word	cy_cfg_data_table.4756
 642 0258 00600F40 		.word	1074749440
 643 025c 02600F40 		.word	1074749442
 644 0260 00020240 		.word	1073873408
ARM GAS  C:\Users\Matty\AppData\Local\Temp\cc7EDzdh.s 			page 25


 645 0264 33330300 		.word	209715
 646 0268 00030240 		.word	1073873664
 647 026c 03EE0000 		.word	60931
 648 0270 20500F40 		.word	1074745376
 649 0274 28500F40 		.word	1074745384
 650 0278 00006302 		.word	40042496
 651 027c 30500F40 		.word	1074745392
 652 0280 04009900 		.word	10027012
 653 0284 34500F40 		.word	1074745396
 654 0288 38500F40 		.word	1074745400
 655 028c 20001040 		.word	1074790432
 656 0290 00800F40 		.word	1074757632
 657 0294 00700F40 		.word	1074753536
 658 0298 01700F40 		.word	1074753537
 659 029c 00020440 		.word	1074004480
 660 02a0 08020440 		.word	1074004488
 661 02a4 B66D0000 		.word	28086
 662 02a8 00030440 		.word	1074004736
 663 02ac 08030440 		.word	1074004744
 664 02b0 8E0D0000 		.word	3470
 665              		.cfi_endproc
 666              	.LFE7:
 667              		.size	cyfitter_cfg, .-cyfitter_cfg
 668              		.section	.rodata
 669              		.align	2
 670              		.type	cfg_memset_list.4766, %object
 671              		.size	cfg_memset_list.4766, 18
 672              	cfg_memset_list.4766:
 673 0000 00300F40 		.word	1074737152
 674 0004 8000     		.short	128
 675 0006 00310F40 		.4byte	1074737408
 676 000a 0003     		.short	768
 677 000c 00400F40 		.word	1074741248
 678 0010 0004     		.short	1024
 679 0012 0000     		.align	2
 680              		.type	cfg_memcpy_list.4768, %object
 681              		.size	cfg_memcpy_list.4768, 10
 682              	cfg_memcpy_list.4768:
 683 0014 80300F40 		.word	1074737280
 684 0018 C8020000 		.word	BS_UDB_0_1_1_CONFIG_VAL.4767
 685 001c 8000     		.short	128
 686 001e 0000     		.align	2
 687              		.type	cy_cfg_addr_table.4755, %object
 688              		.size	cy_cfg_addr_table.4755, 36
 689              	cy_cfg_addr_table.4755:
 690 0020 03000F40 		.word	1074724867
 691 0024 1D300F40 		.word	1074737181
 692 0028 45310F40 		.word	1074737477
 693 002c 6C320F40 		.word	1074737772
 694 0030 53330F40 		.word	1074738003
 695 0034 04400F40 		.word	1074741252
 696 0038 09420F40 		.word	1074741769
 697 003c 0F430F40 		.word	1074742031
 698 0040 02600F40 		.word	1074749442
 699              		.align	2
 700              		.type	cy_cfg_data_table.4756, %object
 701              		.size	cy_cfg_data_table.4756, 644
ARM GAS  C:\Users\Matty\AppData\Local\Temp\cc7EDzdh.s 			page 26


 702              	cy_cfg_data_table.4756:
 703 0044 80       		.byte	-128
 704 0045 38       		.byte	56
 705 0046 81       		.byte	-127
 706 0047 72       		.byte	114
 707 0048 82       		.byte	-126
 708 0049 0F       		.byte	15
 709 004a 03       		.byte	3
 710 004b 01       		.byte	1
 711 004c 06       		.byte	6
 712 004d 01       		.byte	1
 713 004e 0A       		.byte	10
 714 004f 08       		.byte	8
 715 0050 0B       		.byte	11
 716 0051 02       		.byte	2
 717 0052 0E       		.byte	14
 718 0053 01       		.byte	1
 719 0054 12       		.byte	18
 720 0055 02       		.byte	2
 721 0056 13       		.byte	19
 722 0057 02       		.byte	2
 723 0058 15       		.byte	21
 724 0059 04       		.byte	4
 725 005a 1D       		.byte	29
 726 005b 08       		.byte	8
 727 005c 1E       		.byte	30
 728 005d 0E       		.byte	14
 729 005e 23       		.byte	35
 730 005f 01       		.byte	1
 731 0060 2A       		.byte	42
 732 0061 04       		.byte	4
 733 0062 30       		.byte	48
 734 0063 04       		.byte	4
 735 0064 31       		.byte	49
 736 0065 02       		.byte	2
 737 0066 32       		.byte	50
 738 0067 08       		.byte	8
 739 0068 33       		.byte	51
 740 0069 04       		.byte	4
 741 006a 34       		.byte	52
 742 006b 01       		.byte	1
 743 006c 35       		.byte	53
 744 006d 08       		.byte	8
 745 006e 36       		.byte	54
 746 006f 02       		.byte	2
 747 0070 37       		.byte	55
 748 0071 01       		.byte	1
 749 0072 38       		.byte	56
 750 0073 80       		.byte	-128
 751 0074 3E       		.byte	62
 752 0075 55       		.byte	85
 753 0076 3F       		.byte	63
 754 0077 55       		.byte	85
 755 0078 54       		.byte	84
 756 0079 18       		.byte	24
 757 007a 56       		.byte	86
 758 007b 04       		.byte	4
ARM GAS  C:\Users\Matty\AppData\Local\Temp\cc7EDzdh.s 			page 27


 759 007c 58       		.byte	88
 760 007d 04       		.byte	4
 761 007e 59       		.byte	89
 762 007f 04       		.byte	4
 763 0080 5B       		.byte	91
 764 0081 04       		.byte	4
 765 0082 5F       		.byte	95
 766 0083 01       		.byte	1
 767 0084 00       		.byte	0
 768 0085 A0       		.byte	-96
 769 0086 02       		.byte	2
 770 0087 20       		.byte	32
 771 0088 04       		.byte	4
 772 0089 1A       		.byte	26
 773 008a 08       		.byte	8
 774 008b 40       		.byte	64
 775 008c 0A       		.byte	10
 776 008d 40       		.byte	64
 777 008e 0B       		.byte	11
 778 008f 01       		.byte	1
 779 0090 0D       		.byte	13
 780 0091 22       		.byte	34
 781 0092 0E       		.byte	14
 782 0093 22       		.byte	34
 783 0094 10       		.byte	16
 784 0095 08       		.byte	8
 785 0096 16       		.byte	22
 786 0097 81       		.byte	-127
 787 0098 17       		.byte	23
 788 0099 24       		.byte	36
 789 009a 18       		.byte	24
 790 009b A4       		.byte	-92
 791 009c 1B       		.byte	27
 792 009d 40       		.byte	64
 793 009e 1C       		.byte	28
 794 009f 10       		.byte	16
 795 00a0 1D       		.byte	29
 796 00a1 21       		.byte	33
 797 00a2 1E       		.byte	30
 798 00a3 01       		.byte	1
 799 00a4 1F       		.byte	31
 800 00a5 24       		.byte	36
 801 00a6 21       		.byte	33
 802 00a7 08       		.byte	8
 803 00a8 22       		.byte	34
 804 00a9 80       		.byte	-128
 805 00aa 23       		.byte	35
 806 00ab 48       		.byte	72
 807 00ac 24       		.byte	36
 808 00ad 02       		.byte	2
 809 00ae 25       		.byte	37
 810 00af 41       		.byte	65
 811 00b0 26       		.byte	38
 812 00b1 24       		.byte	36
 813 00b2 28       		.byte	40
 814 00b3 40       		.byte	64
 815 00b4 2E       		.byte	46
ARM GAS  C:\Users\Matty\AppData\Local\Temp\cc7EDzdh.s 			page 28


 816 00b5 82       		.byte	-126
 817 00b6 2F       		.byte	47
 818 00b7 26       		.byte	38
 819 00b8 31       		.byte	49
 820 00b9 01       		.byte	1
 821 00ba 32       		.byte	50
 822 00bb 41       		.byte	65
 823 00bc 33       		.byte	51
 824 00bd 08       		.byte	8
 825 00be 36       		.byte	54
 826 00bf 09       		.byte	9
 827 00c0 37       		.byte	55
 828 00c1 20       		.byte	32
 829 00c2 39       		.byte	57
 830 00c3 01       		.byte	1
 831 00c4 3A       		.byte	58
 832 00c5 50       		.byte	80
 833 00c6 3B       		.byte	59
 834 00c7 40       		.byte	64
 835 00c8 3D       		.byte	61
 836 00c9 82       		.byte	-126
 837 00ca 3E       		.byte	62
 838 00cb 08       		.byte	8
 839 00cc 42       		.byte	66
 840 00cd 30       		.byte	48
 841 00ce 45       		.byte	69
 842 00cf 20       		.byte	32
 843 00d0 46       		.byte	70
 844 00d1 80       		.byte	-128
 845 00d2 47       		.byte	71
 846 00d3 40       		.byte	64
 847 00d4 4C       		.byte	76
 848 00d5 04       		.byte	4
 849 00d6 4E       		.byte	78
 850 00d7 09       		.byte	9
 851 00d8 54       		.byte	84
 852 00d9 40       		.byte	64
 853 00da 56       		.byte	86
 854 00db 10       		.byte	16
 855 00dc 5A       		.byte	90
 856 00dd 01       		.byte	1
 857 00de 5E       		.byte	94
 858 00df 08       		.byte	8
 859 00e0 60       		.byte	96
 860 00e1 04       		.byte	4
 861 00e2 62       		.byte	98
 862 00e3 42       		.byte	66
 863 00e4 68       		.byte	104
 864 00e5 18       		.byte	24
 865 00e6 69       		.byte	105
 866 00e7 01       		.byte	1
 867 00e8 6A       		.byte	106
 868 00e9 40       		.byte	64
 869 00ea 6D       		.byte	109
 870 00eb 40       		.byte	64
 871 00ec 6E       		.byte	110
 872 00ed 10       		.byte	16
ARM GAS  C:\Users\Matty\AppData\Local\Temp\cc7EDzdh.s 			page 29


 873 00ee 6F       		.byte	111
 874 00ef 10       		.byte	16
 875 00f0 73       		.byte	115
 876 00f1 01       		.byte	1
 877 00f2 76       		.byte	118
 878 00f3 0B       		.byte	11
 879 00f4 77       		.byte	119
 880 00f5 24       		.byte	36
 881 00f6 82       		.byte	-126
 882 00f7 02       		.byte	2
 883 00f8 8F       		.byte	-113
 884 00f9 40       		.byte	64
 885 00fa C0       		.byte	-64
 886 00fb 77       		.byte	119
 887 00fc C2       		.byte	-62
 888 00fd F9       		.byte	-7
 889 00fe C4       		.byte	-60
 890 00ff F2       		.byte	-14
 891 0100 CA       		.byte	-54
 892 0101 F1       		.byte	-15
 893 0102 CC       		.byte	-52
 894 0103 EB       		.byte	-21
 895 0104 CE       		.byte	-50
 896 0105 D5       		.byte	-43
 897 0106 D0       		.byte	-48
 898 0107 B0       		.byte	-80
 899 0108 D2       		.byte	-46
 900 0109 30       		.byte	48
 901 010a D6       		.byte	-42
 902 010b 41       		.byte	65
 903 010c D8       		.byte	-40
 904 010d 0D       		.byte	13
 905 010e 03       		.byte	3
 906 010f 20       		.byte	32
 907 0110 04       		.byte	4
 908 0111 80       		.byte	-128
 909 0112 06       		.byte	6
 910 0113 20       		.byte	32
 911 0114 08       		.byte	8
 912 0115 13       		.byte	19
 913 0116 09       		.byte	9
 914 0117 13       		.byte	19
 915 0118 0A       		.byte	10
 916 0119 0C       		.byte	12
 917 011a 0E       		.byte	14
 918 011b 15       		.byte	21
 919 011c 0F       		.byte	15
 920 011d 20       		.byte	32
 921 011e 10       		.byte	16
 922 011f 13       		.byte	19
 923 0120 11       		.byte	17
 924 0121 01       		.byte	1
 925 0122 12       		.byte	18
 926 0123 04       		.byte	4
 927 0124 13       		.byte	19
 928 0125 0A       		.byte	10
 929 0126 14       		.byte	20
ARM GAS  C:\Users\Matty\AppData\Local\Temp\cc7EDzdh.s 			page 30


 930 0127 0A       		.byte	10
 931 0128 15       		.byte	21
 932 0129 13       		.byte	19
 933 012a 16       		.byte	22
 934 012b 14       		.byte	20
 935 012c 19       		.byte	25
 936 012d 02       		.byte	2
 937 012e 1A       		.byte	26
 938 012f 08       		.byte	8
 939 0130 1B       		.byte	27
 940 0131 09       		.byte	9
 941 0132 1C       		.byte	28
 942 0133 40       		.byte	64
 943 0134 1E       		.byte	30
 944 0135 20       		.byte	32
 945 0136 20       		.byte	32
 946 0137 03       		.byte	3
 947 0138 22       		.byte	34
 948 0139 14       		.byte	20
 949 013a 24       		.byte	36
 950 013b E0       		.byte	-32
 951 013c 28       		.byte	40
 952 013d E0       		.byte	-32
 953 013e 2B       		.byte	43
 954 013f 04       		.byte	4
 955 0140 2C       		.byte	44
 956 0141 20       		.byte	32
 957 0142 2D       		.byte	45
 958 0143 10       		.byte	16
 959 0144 2E       		.byte	46
 960 0145 C0       		.byte	-64
 961 0146 30       		.byte	48
 962 0147 10       		.byte	16
 963 0148 31       		.byte	49
 964 0149 0C       		.byte	12
 965 014a 32       		.byte	50
 966 014b E0       		.byte	-32
 967 014c 33       		.byte	51
 968 014d 03       		.byte	3
 969 014e 34       		.byte	52
 970 014f 0F       		.byte	15
 971 0150 35       		.byte	53
 972 0151 10       		.byte	16
 973 0152 37       		.byte	55
 974 0153 20       		.byte	32
 975 0154 3A       		.byte	58
 976 0155 20       		.byte	32
 977 0156 3E       		.byte	62
 978 0157 01       		.byte	1
 979 0158 3F       		.byte	63
 980 0159 41       		.byte	65
 981 015a 40       		.byte	64
 982 015b 34       		.byte	52
 983 015c 41       		.byte	65
 984 015d 06       		.byte	6
 985 015e 45       		.byte	69
 986 015f E0       		.byte	-32
ARM GAS  C:\Users\Matty\AppData\Local\Temp\cc7EDzdh.s 			page 31


 987 0160 46       		.byte	70
 988 0161 BC       		.byte	-68
 989 0162 48       		.byte	72
 990 0163 0E       		.byte	14
 991 0164 49       		.byte	73
 992 0165 FF       		.byte	-1
 993 0166 4A       		.byte	74
 994 0167 FF       		.byte	-1
 995 0168 4B       		.byte	75
 996 0169 FF       		.byte	-1
 997 016a 4E       		.byte	78
 998 016b F0       		.byte	-16
 999 016c 4F       		.byte	79
 1000 016d 44       		.byte	68
 1001 016e 50       		.byte	80
 1002 016f 0C       		.byte	12
 1003 0170 54       		.byte	84
 1004 0171 01       		.byte	1
 1005 0172 58       		.byte	88
 1006 0173 04       		.byte	4
 1007 0174 59       		.byte	89
 1008 0175 04       		.byte	4
 1009 0176 5A       		.byte	90
 1010 0177 04       		.byte	4
 1011 0178 5B       		.byte	91
 1012 0179 04       		.byte	4
 1013 017a 5F       		.byte	95
 1014 017b 01       		.byte	1
 1015 017c 66       		.byte	102
 1016 017d C0       		.byte	-64
 1017 017e 6A       		.byte	106
 1018 017f 40       		.byte	64
 1019 0180 6B       		.byte	107
 1020 0181 02       		.byte	2
 1021 0182 82       		.byte	-126
 1022 0183 20       		.byte	32
 1023 0184 84       		.byte	-124
 1024 0185 14       		.byte	20
 1025 0186 8A       		.byte	-118
 1026 0187 03       		.byte	3
 1027 0188 8B       		.byte	-117
 1028 0189 0C       		.byte	12
 1029 018a 8D       		.byte	-115
 1030 018b 20       		.byte	32
 1031 018c 8F       		.byte	-113
 1032 018d 43       		.byte	67
 1033 018e 94       		.byte	-108
 1034 018f DC       		.byte	-36
 1035 0190 95       		.byte	-107
 1036 0191 8C       		.byte	-116
 1037 0192 96       		.byte	-106
 1038 0193 22       		.byte	34
 1039 0194 97       		.byte	-105
 1040 0195 13       		.byte	19
 1041 0196 98       		.byte	-104
 1042 0197 09       		.byte	9
 1043 0198 99       		.byte	-103
ARM GAS  C:\Users\Matty\AppData\Local\Temp\cc7EDzdh.s 			page 32


 1044 0199 D1       		.byte	-47
 1045 019a 9A       		.byte	-102
 1046 019b D0       		.byte	-48
 1047 019c 9B       		.byte	-101
 1048 019d 06       		.byte	6
 1049 019e 9F       		.byte	-97
 1050 019f 08       		.byte	8
 1051 01a0 A0       		.byte	-96
 1052 01a1 10       		.byte	16
 1053 01a2 A2       		.byte	-94
 1054 01a3 40       		.byte	64
 1055 01a4 A4       		.byte	-92
 1056 01a5 10       		.byte	16
 1057 01a6 A6       		.byte	-90
 1058 01a7 AC       		.byte	-84
 1059 01a8 A8       		.byte	-88
 1060 01a9 0C       		.byte	12
 1061 01aa A9       		.byte	-87
 1062 01ab D1       		.byte	-47
 1063 01ac AA       		.byte	-86
 1064 01ad 71       		.byte	113
 1065 01ae AB       		.byte	-85
 1066 01af 0E       		.byte	14
 1067 01b0 B1       		.byte	-79
 1068 01b1 C0       		.byte	-64
 1069 01b2 B2       		.byte	-78
 1070 01b3 1F       		.byte	31
 1071 01b4 B3       		.byte	-77
 1072 01b5 0F       		.byte	15
 1073 01b6 B4       		.byte	-76
 1074 01b7 E0       		.byte	-32
 1075 01b8 B5       		.byte	-75
 1076 01b9 30       		.byte	48
 1077 01ba B9       		.byte	-71
 1078 01bb 22       		.byte	34
 1079 01bc BA       		.byte	-70
 1080 01bd 22       		.byte	34
 1081 01be BB       		.byte	-69
 1082 01bf 08       		.byte	8
 1083 01c0 BF       		.byte	-65
 1084 01c1 01       		.byte	1
 1085 01c2 C0       		.byte	-64
 1086 01c3 04       		.byte	4
 1087 01c4 C5       		.byte	-59
 1088 01c5 40       		.byte	64
 1089 01c6 C9       		.byte	-55
 1090 01c7 FF       		.byte	-1
 1091 01c8 CA       		.byte	-54
 1092 01c9 07       		.byte	7
 1093 01ca CB       		.byte	-53
 1094 01cb FF       		.byte	-1
 1095 01cc CC       		.byte	-52
 1096 01cd 40       		.byte	64
 1097 01ce CD       		.byte	-51
 1098 01cf 20       		.byte	32
 1099 01d0 CE       		.byte	-50
 1100 01d1 F0       		.byte	-16
ARM GAS  C:\Users\Matty\AppData\Local\Temp\cc7EDzdh.s 			page 33


 1101 01d2 CF       		.byte	-49
 1102 01d3 05       		.byte	5
 1103 01d4 D0       		.byte	-48
 1104 01d5 08       		.byte	8
 1105 01d6 D8       		.byte	-40
 1106 01d7 04       		.byte	4
 1107 01d8 D9       		.byte	-39
 1108 01d9 04       		.byte	4
 1109 01da DA       		.byte	-38
 1110 01db 04       		.byte	4
 1111 01dc DF       		.byte	-33
 1112 01dd 01       		.byte	1
 1113 01de E0       		.byte	-32
 1114 01df 40       		.byte	64
 1115 01e0 E1       		.byte	-31
 1116 01e1 A8       		.byte	-88
 1117 01e2 E2       		.byte	-30
 1118 01e3 40       		.byte	64
 1119 01e4 E3       		.byte	-29
 1120 01e5 20       		.byte	32
 1121 01e6 02       		.byte	2
 1122 01e7 90       		.byte	-112
 1123 01e8 03       		.byte	3
 1124 01e9 08       		.byte	8
 1125 01ea 04       		.byte	4
 1126 01eb 80       		.byte	-128
 1127 01ec 05       		.byte	5
 1128 01ed 10       		.byte	16
 1129 01ee 07       		.byte	7
 1130 01ef 20       		.byte	32
 1131 01f0 09       		.byte	9
 1132 01f1 08       		.byte	8
 1133 01f2 0B       		.byte	11
 1134 01f3 04       		.byte	4
 1135 01f4 0D       		.byte	13
 1136 01f5 09       		.byte	9
 1137 01f6 0E       		.byte	14
 1138 01f7 02       		.byte	2
 1139 01f8 0F       		.byte	15
 1140 01f9 04       		.byte	4
 1141 01fa 10       		.byte	16
 1142 01fb 94       		.byte	-108
 1143 01fc 15       		.byte	21
 1144 01fd 10       		.byte	16
 1145 01fe 16       		.byte	22
 1146 01ff 62       		.byte	98
 1147 0200 17       		.byte	23
 1148 0201 14       		.byte	20
 1149 0202 19       		.byte	25
 1150 0203 20       		.byte	32
 1151 0204 1B       		.byte	27
 1152 0205 0A       		.byte	10
 1153 0206 1D       		.byte	29
 1154 0207 10       		.byte	16
 1155 0208 1E       		.byte	30
 1156 0209 A0       		.byte	-96
 1157 020a 1F       		.byte	31
ARM GAS  C:\Users\Matty\AppData\Local\Temp\cc7EDzdh.s 			page 34


 1158 020b 04       		.byte	4
 1159 020c 20       		.byte	32
 1160 020d 40       		.byte	64
 1161 020e 21       		.byte	33
 1162 020f 18       		.byte	24
 1163 0210 23       		.byte	35
 1164 0211 04       		.byte	4
 1165 0212 24       		.byte	36
 1166 0213 08       		.byte	8
 1167 0214 27       		.byte	39
 1168 0215 61       		.byte	97
 1169 0216 28       		.byte	40
 1170 0217 04       		.byte	4
 1171 0218 29       		.byte	41
 1172 0219 20       		.byte	32
 1173 021a 2D       		.byte	45
 1174 021b 40       		.byte	64
 1175 021c 2F       		.byte	47
 1176 021d 04       		.byte	4
 1177 021e 30       		.byte	48
 1178 021f 90       		.byte	-112
 1179 0220 31       		.byte	49
 1180 0221 18       		.byte	24
 1181 0222 36       		.byte	54
 1182 0223 01       		.byte	1
 1183 0224 37       		.byte	55
 1184 0225 24       		.byte	36
 1185 0226 38       		.byte	56
 1186 0227 80       		.byte	-128
 1187 0228 39       		.byte	57
 1188 0229 20       		.byte	32
 1189 022a 3A       		.byte	58
 1190 022b 80       		.byte	-128
 1191 022c 3D       		.byte	61
 1192 022d 10       		.byte	16
 1193 022e 3E       		.byte	62
 1194 022f 40       		.byte	64
 1195 0230 3F       		.byte	63
 1196 0231 01       		.byte	1
 1197 0232 40       		.byte	64
 1198 0233 40       		.byte	64
 1199 0234 44       		.byte	68
 1200 0235 10       		.byte	16
 1201 0236 46       		.byte	70
 1202 0237 80       		.byte	-128
 1203 0238 48       		.byte	72
 1204 0239 80       		.byte	-128
 1205 023a 4D       		.byte	77
 1206 023b 21       		.byte	33
 1207 023c 4E       		.byte	78
 1208 023d 40       		.byte	64
 1209 023e 50       		.byte	80
 1210 023f 40       		.byte	64
 1211 0240 52       		.byte	82
 1212 0241 80       		.byte	-128
 1213 0242 56       		.byte	86
 1214 0243 50       		.byte	80
ARM GAS  C:\Users\Matty\AppData\Local\Temp\cc7EDzdh.s 			page 35


 1215 0244 5D       		.byte	93
 1216 0245 01       		.byte	1
 1217 0246 5E       		.byte	94
 1218 0247 80       		.byte	-128
 1219 0248 5F       		.byte	95
 1220 0249 18       		.byte	24
 1221 024a 81       		.byte	-127
 1222 024b 02       		.byte	2
 1223 024c 83       		.byte	-125
 1224 024d 20       		.byte	32
 1225 024e 85       		.byte	-123
 1226 024f 21       		.byte	33
 1227 0250 86       		.byte	-122
 1228 0251 12       		.byte	18
 1229 0252 87       		.byte	-121
 1230 0253 01       		.byte	1
 1231 0254 8A       		.byte	-118
 1232 0255 40       		.byte	64
 1233 0256 8B       		.byte	-117
 1234 0257 10       		.byte	16
 1235 0258 8E       		.byte	-114
 1236 0259 01       		.byte	1
 1237 025a 91       		.byte	-111
 1238 025b 40       		.byte	64
 1239 025c 92       		.byte	-110
 1240 025d 40       		.byte	64
 1241 025e 93       		.byte	-109
 1242 025f 01       		.byte	1
 1243 0260 94       		.byte	-108
 1244 0261 08       		.byte	8
 1245 0262 96       		.byte	-106
 1246 0263 80       		.byte	-128
 1247 0264 9A       		.byte	-102
 1248 0265 20       		.byte	32
 1249 0266 9B       		.byte	-101
 1250 0267 18       		.byte	24
 1251 0268 9F       		.byte	-97
 1252 0269 40       		.byte	64
 1253 026a A5       		.byte	-91
 1254 026b 02       		.byte	2
 1255 026c A6       		.byte	-90
 1256 026d 11       		.byte	17
 1257 026e A7       		.byte	-89
 1258 026f 0A       		.byte	10
 1259 0270 A8       		.byte	-88
 1260 0271 50       		.byte	80
 1261 0272 B1       		.byte	-79
 1262 0273 08       		.byte	8
 1263 0274 B6       		.byte	-74
 1264 0275 80       		.byte	-128
 1265 0276 C0       		.byte	-64
 1266 0277 EE       		.byte	-18
 1267 0278 C2       		.byte	-62
 1268 0279 F6       		.byte	-10
 1269 027a C4       		.byte	-60
 1270 027b FE       		.byte	-2
 1271 027c CA       		.byte	-54
ARM GAS  C:\Users\Matty\AppData\Local\Temp\cc7EDzdh.s 			page 36


 1272 027d 34       		.byte	52
 1273 027e CC       		.byte	-52
 1274 027f EE       		.byte	-18
 1275 0280 CE       		.byte	-50
 1276 0281 BC       		.byte	-68
 1277 0282 D0       		.byte	-48
 1278 0283 C1       		.byte	-63
 1279 0284 D2       		.byte	-46
 1280 0285 20       		.byte	32
 1281 0286 D6       		.byte	-42
 1282 0287 F0       		.byte	-16
 1283 0288 E0       		.byte	-32
 1284 0289 02       		.byte	2
 1285 028a E8       		.byte	-24
 1286 028b 05       		.byte	5
 1287 028c 6B       		.byte	107
 1288 028d 20       		.byte	32
 1289 028e 83       		.byte	-125
 1290 028f 20       		.byte	32
 1291 0290 DA       		.byte	-38
 1292 0291 40       		.byte	64
 1293 0292 E2       		.byte	-30
 1294 0293 80       		.byte	-128
 1295 0294 52       		.byte	82
 1296 0295 0A       		.byte	10
 1297 0296 54       		.byte	84
 1298 0297 80       		.byte	-128
 1299 0298 5F       		.byte	95
 1300 0299 80       		.byte	-128
 1301 029a 63       		.byte	99
 1302 029b 08       		.byte	8
 1303 029c 8E       		.byte	-114
 1304 029d 08       		.byte	8
 1305 029e D4       		.byte	-44
 1306 029f 07       		.byte	7
 1307 02a0 D6       		.byte	-42
 1308 02a1 04       		.byte	4
 1309 02a2 D8       		.byte	-40
 1310 02a3 02       		.byte	2
 1311 02a4 E4       		.byte	-28
 1312 02a5 02       		.byte	2
 1313 02a6 04       		.byte	4
 1314 02a7 08       		.byte	8
 1315 02a8 56       		.byte	86
 1316 02a9 80       		.byte	-128
 1317 02aa 87       		.byte	-121
 1318 02ab 80       		.byte	-128
 1319 02ac 8C       		.byte	-116
 1320 02ad 04       		.byte	4
 1321 02ae 9A       		.byte	-102
 1322 02af 80       		.byte	-128
 1323 02b0 9F       		.byte	-97
 1324 02b1 80       		.byte	-128
 1325 02b2 A8       		.byte	-88
 1326 02b3 80       		.byte	-128
 1327 02b4 AA       		.byte	-86
 1328 02b5 02       		.byte	2
ARM GAS  C:\Users\Matty\AppData\Local\Temp\cc7EDzdh.s 			page 37


 1329 02b6 B2       		.byte	-78
 1330 02b7 80       		.byte	-128
 1331 02b8 B7       		.byte	-73
 1332 02b9 04       		.byte	4
 1333 02ba C0       		.byte	-64
 1334 02bb 04       		.byte	4
 1335 02bc D4       		.byte	-44
 1336 02bd 02       		.byte	2
 1337 02be E2       		.byte	-30
 1338 02bf 08       		.byte	8
 1339 02c0 E8       		.byte	-24
 1340 02c1 02       		.byte	2
 1341 02c2 EC       		.byte	-20
 1342 02c3 04       		.byte	4
 1343 02c4 10       		.byte	16
 1344 02c5 01       		.byte	1
 1345 02c6 11       		.byte	17
 1346 02c7 01       		.byte	1
 1347              		.align	2
 1348              		.type	BS_UDB_0_1_1_CONFIG_VAL.4767, %object
 1349              		.size	BS_UDB_0_1_1_CONFIG_VAL.4767, 128
 1350              	BS_UDB_0_1_1_CONFIG_VAL.4767:
 1351 02c8 1C       		.byte	28
 1352 02c9 00       		.byte	0
 1353 02ca E3       		.byte	-29
 1354 02cb 04       		.byte	4
 1355 02cc 00       		.byte	0
 1356 02cd 08       		.byte	8
 1357 02ce F3       		.byte	-13
 1358 02cf 00       		.byte	0
 1359 02d0 0F       		.byte	15
 1360 02d1 00       		.byte	0
 1361 02d2 F0       		.byte	-16
 1362 02d3 00       		.byte	0
 1363 02d4 00       		.byte	0
 1364 02d5 3C       		.byte	60
 1365 02d6 00       		.byte	0
 1366 02d7 42       		.byte	66
 1367 02d8 82       		.byte	-126
 1368 02d9 04       		.byte	4
 1369 02da 00       		.byte	0
 1370 02db 80       		.byte	-128
 1371 02dc C3       		.byte	-61
 1372 02dd 00       		.byte	0
 1373 02de 00       		.byte	0
 1374 02df 03       		.byte	3
 1375 02e0 F3       		.byte	-13
 1376 02e1 18       		.byte	24
 1377 02e2 0C       		.byte	12
 1378 02e3 00       		.byte	0
 1379 02e4 41       		.byte	65
 1380 02e5 00       		.byte	0
 1381 02e6 00       		.byte	0
 1382 02e7 00       		.byte	0
 1383 02e8 FF       		.byte	-1
 1384 02e9 10       		.byte	16
 1385 02ea 00       		.byte	0
ARM GAS  C:\Users\Matty\AppData\Local\Temp\cc7EDzdh.s 			page 38


 1386 02eb 00       		.byte	0
 1387 02ec 04       		.byte	4
 1388 02ed 67       		.byte	103
 1389 02ee 00       		.byte	0
 1390 02ef 18       		.byte	24
 1391 02f0 0C       		.byte	12
 1392 02f1 3C       		.byte	60
 1393 02f2 00       		.byte	0
 1394 02f3 41       		.byte	65
 1395 02f4 08       		.byte	8
 1396 02f5 7F       		.byte	127
 1397 02f6 00       		.byte	0
 1398 02f7 00       		.byte	0
 1399 02f8 1C       		.byte	28
 1400 02f9 80       		.byte	-128
 1401 02fa 2C       		.byte	44
 1402 02fb 20       		.byte	32
 1403 02fc 0F       		.byte	15
 1404 02fd 40       		.byte	64
 1405 02fe C0       		.byte	-64
 1406 02ff 1F       		.byte	31
 1407 0300 00       		.byte	0
 1408 0301 20       		.byte	32
 1409 0302 28       		.byte	40
 1410 0303 80       		.byte	-128
 1411 0304 00       		.byte	0
 1412 0305 00       		.byte	0
 1413 0306 00       		.byte	0
 1414 0307 04       		.byte	4
 1415 0308 26       		.byte	38
 1416 0309 04       		.byte	4
 1417 030a 05       		.byte	5
 1418 030b 00       		.byte	0
 1419 030c 01       		.byte	1
 1420 030d 00       		.byte	0
 1421 030e CE       		.byte	-50
 1422 030f 00       		.byte	0
 1423 0310 0C       		.byte	12
 1424 0311 FF       		.byte	-1
 1425 0312 FF       		.byte	-1
 1426 0313 FF       		.byte	-1
 1427 0314 62       		.byte	98
 1428 0315 A0       		.byte	-96
 1429 0316 F0       		.byte	-16
 1430 0317 41       		.byte	65
 1431 0318 0C       		.byte	12
 1432 0319 00       		.byte	0
 1433 031a 00       		.byte	0
 1434 031b 00       		.byte	0
 1435 031c 00       		.byte	0
 1436 031d 00       		.byte	0
 1437 031e 02       		.byte	2
 1438 031f 12       		.byte	18
 1439 0320 04       		.byte	4
 1440 0321 04       		.byte	4
 1441 0322 04       		.byte	4
 1442 0323 04       		.byte	4
ARM GAS  C:\Users\Matty\AppData\Local\Temp\cc7EDzdh.s 			page 39


 1443 0324 00       		.byte	0
 1444 0325 00       		.byte	0
 1445 0326 00       		.byte	0
 1446 0327 01       		.byte	1
 1447 0328 00       		.byte	0
 1448 0329 00       		.byte	0
 1449 032a 00       		.byte	0
 1450 032b 00       		.byte	0
 1451 032c 00       		.byte	0
 1452 032d 00       		.byte	0
 1453 032e 40       		.byte	64
 1454 032f 02       		.byte	2
 1455 0330 00       		.byte	0
 1456 0331 10       		.byte	16
 1457 0332 30       		.byte	48
 1458 0333 10       		.byte	16
 1459 0334 00       		.byte	0
 1460 0335 10       		.byte	16
 1461 0336 10       		.byte	16
 1462 0337 12       		.byte	18
 1463 0338 00       		.byte	0
 1464 0339 00       		.byte	0
 1465 033a 00       		.byte	0
 1466 033b 00       		.byte	0
 1467 033c 00       		.byte	0
 1468 033d 00       		.byte	0
 1469 033e 00       		.byte	0
 1470 033f 00       		.byte	0
 1471 0340 00       		.byte	0
 1472 0341 00       		.byte	0
 1473 0342 00       		.byte	0
 1474 0343 00       		.byte	0
 1475 0344 00       		.byte	0
 1476 0345 00       		.byte	0
 1477 0346 00       		.byte	0
 1478 0347 00       		.byte	0
 1479              		.text
 1480              	.Letext0:
 1481              		.file 2 "c:\\program files (x86)\\cypress\\psoc creator\\3.2\\psoc creator\\import\\gnu\\arm\\4.8.
 1482              		.file 3 ".\\Generated_Source\\PSoC4\\cytypes.h"